
C:/Users/nahue/Desktop/Accesos Directos/GitHUB/Software/EGA_TD3/Firmware/build/pico-rv32ima/pico-rv32ima.elf:     file format elf32-littlearm

Sections:
Idx Name          Size      VMA       LMA       File off  Algn
  0 .flashtext    000001f8  10000000  10000000  00001000  2**2
                  CONTENTS, ALLOC, LOAD, READONLY, CODE
  1 .rodata       00000000  100001f8  100001f8  000126b0  2**0
                  CONTENTS, ALLOC, LOAD, DATA
  2 .ARM.exidx    00000008  100001f8  100001f8  000011f8  2**2
                  CONTENTS, ALLOC, LOAD, READONLY, DATA
  3 .binary_info  00000024  10000200  10000200  00001200  2**2
                  CONTENTS, ALLOC, LOAD, READONLY, DATA
  4 .ram_vector_table 00000110  20000000  20000000  00013000  2**2
                  ALLOC
  5 .uninitialized_data 00000000  20000110  20000110  000126b0  2**0
                  CONTENTS
  6 .text         0000d88c  20000110  10000224  00002110  2**3
                  CONTENTS, ALLOC, LOAD, READONLY, CODE
  7 .data         00002bec  2000d9a0  1000dab0  0000f9a0  2**3
                  CONTENTS, ALLOC, LOAD, CODE
  8 .tdata        00000000  2001058c  2001058c  000126b0  2**0
                  CONTENTS, ALLOC, LOAD, DATA, THREAD_LOCAL
  9 .tbss         00000000  2001058c  2001058c  00000000  2**0
                  ALLOC, THREAD_LOCAL
 10 .bss          0004aa44  20010590  1001069c  00013590  2**3
                  ALLOC
 11 .heap         00000800  2005afd4  2005afd4  000126b0  2**2
                  CONTENTS, READONLY
 12 .scratch_x    00000000  20080000  20080000  00012eb0  2**0
                  CONTENTS
 13 .scratch_y    00000000  20081000  20081000  00012eb0  2**0
                  CONTENTS
 14 .stack1_dummy 00000800  20080000  20080000  00013000  2**2
                  ALLOC
 15 .stack_dummy  00000800  20081000  20081000  00012ec0  2**5
                  CONTENTS, READONLY
 16 .flash_end    00000014  1001069c  1001069c  0001269c  2**2
                  CONTENTS, ALLOC, LOAD, READONLY, DATA
 17 .ARM.attributes 00000034  00000000  00000000  000136c0  2**0
                  CONTENTS, READONLY
 18 .comment      00000045  00000000  00000000  000136f4  2**0
                  CONTENTS, READONLY
 19 .debug_info   00048c2e  00000000  00000000  00013739  2**0
                  CONTENTS, READONLY, DEBUGGING, OCTETS
 20 .debug_abbrev 0000bf74  00000000  00000000  0005c367  2**0
                  CONTENTS, READONLY, DEBUGGING, OCTETS
 21 .debug_loclists 000243b5  00000000  00000000  000682db  2**0
                  CONTENTS, READONLY, DEBUGGING, OCTETS
 22 .debug_aranges 00001748  00000000  00000000  0008c690  2**3
                  CONTENTS, READONLY, DEBUGGING, OCTETS
 23 .debug_rnglists 000064a9  00000000  00000000  0008ddd8  2**0
                  CONTENTS, READONLY, DEBUGGING, OCTETS
 24 .debug_line   0002eae4  00000000  00000000  00094281  2**0
                  CONTENTS, READONLY, DEBUGGING, OCTETS
 25 .debug_str    0000ba6a  00000000  00000000  000c2d65  2**0
                  CONTENTS, READONLY, DEBUGGING, OCTETS
 26 .debug_frame  00004f9c  00000000  00000000  000ce7d0  2**2
                  CONTENTS, READONLY, DEBUGGING, OCTETS
 27 .debug_line_str 000002b4  00000000  00000000  000d376c  2**0
                  CONTENTS, READONLY, DEBUGGING, OCTETS

C:/Users/nahue/Desktop/Accesos Directos/GitHUB/Software/EGA_TD3/Firmware/build/pico-rv32ima/pico-rv32ima.elf:     file format elf32-littlearm


Disassembly of section .flashtext:

10000000 <__VECTOR_TABLE>:
10000000:	20082000 	.word	0x20082000
10000004:	1000015d 	.word	0x1000015d
10000008:	10000113 	.word	0x10000113
1000000c:	10000115 	.word	0x10000115
10000010:	10000111 	.word	0x10000111
10000014:	10000111 	.word	0x10000111
10000018:	10000111 	.word	0x10000111
1000001c:	10000111 	.word	0x10000111
10000020:	10000111 	.word	0x10000111
10000024:	10000111 	.word	0x10000111
10000028:	10000111 	.word	0x10000111
1000002c:	10000117 	.word	0x10000117
10000030:	10000111 	.word	0x10000111
10000034:	10000111 	.word	0x10000111
10000038:	10000119 	.word	0x10000119
1000003c:	1000011b 	.word	0x1000011b
10000040:	1000011d 	.word	0x1000011d
10000044:	1000011d 	.word	0x1000011d
10000048:	1000011d 	.word	0x1000011d
1000004c:	1000011d 	.word	0x1000011d
10000050:	1000011d 	.word	0x1000011d
10000054:	1000011d 	.word	0x1000011d
10000058:	1000011d 	.word	0x1000011d
1000005c:	1000011d 	.word	0x1000011d
10000060:	1000011d 	.word	0x1000011d
10000064:	1000011d 	.word	0x1000011d
10000068:	1000011d 	.word	0x1000011d
1000006c:	1000011d 	.word	0x1000011d
10000070:	1000011d 	.word	0x1000011d
10000074:	1000011d 	.word	0x1000011d
10000078:	1000011d 	.word	0x1000011d
1000007c:	1000011d 	.word	0x1000011d
10000080:	1000011d 	.word	0x1000011d
10000084:	1000011d 	.word	0x1000011d
10000088:	1000011d 	.word	0x1000011d
1000008c:	1000011d 	.word	0x1000011d
10000090:	1000011d 	.word	0x1000011d
10000094:	1000011d 	.word	0x1000011d
10000098:	1000011d 	.word	0x1000011d
1000009c:	1000011d 	.word	0x1000011d
100000a0:	1000011d 	.word	0x1000011d
100000a4:	1000011d 	.word	0x1000011d
100000a8:	1000011d 	.word	0x1000011d
100000ac:	1000011d 	.word	0x1000011d
100000b0:	1000011d 	.word	0x1000011d
100000b4:	1000011d 	.word	0x1000011d
100000b8:	1000011d 	.word	0x1000011d
100000bc:	1000011d 	.word	0x1000011d
100000c0:	1000011d 	.word	0x1000011d
100000c4:	1000011d 	.word	0x1000011d
100000c8:	1000011d 	.word	0x1000011d
100000cc:	1000011d 	.word	0x1000011d
100000d0:	1000011d 	.word	0x1000011d
100000d4:	1000011d 	.word	0x1000011d
100000d8:	1000011d 	.word	0x1000011d
100000dc:	1000011d 	.word	0x1000011d
100000e0:	1000011d 	.word	0x1000011d
100000e4:	1000011d 	.word	0x1000011d
100000e8:	1000011d 	.word	0x1000011d
100000ec:	1000011d 	.word	0x1000011d
100000f0:	1000011d 	.word	0x1000011d
100000f4:	1000011d 	.word	0x1000011d
100000f8:	1000011d 	.word	0x1000011d
100000fc:	1000011d 	.word	0x1000011d
10000100:	1000011d 	.word	0x1000011d
10000104:	1000011d 	.word	0x1000011d
10000108:	1000011d 	.word	0x1000011d
1000010c:	1000011d 	.word	0x1000011d

10000110 <isr_invalid>:
10000110:	be00      	bkpt	0x0000

10000112 <isr_nmi>:
10000112:	be00      	bkpt	0x0000

10000114 <isr_hardfault>:
10000114:	be00      	bkpt	0x0000

10000116 <isr_svcall>:
10000116:	be00      	bkpt	0x0000

10000118 <isr_pendsv>:
10000118:	be00      	bkpt	0x0000

1000011a <isr_systick>:
1000011a:	be00      	bkpt	0x0000

1000011c <__unhandled_user_irq>:
1000011c:	f3ef 8005 	mrs	r0, IPSR
10000120:	3810      	subs	r0, #16

10000122 <unhandled_user_irq_num_in_r0>:
10000122:	be00      	bkpt	0x0000

10000124 <binary_info_header>:
10000124:	7188ebf2 	.word	0x7188ebf2
10000128:	10000200 	.word	0x10000200
1000012c:	10000224 	.word	0x10000224
10000130:	100001a8 	.word	0x100001a8
10000134:	e71aa390 	.word	0xe71aa390

10000138 <__binary_info_header_end>:
10000138:	ffffded3 	.word	0xffffded3
1000013c:	10210142 	.word	0x10210142
10000140:	000001ff 	.word	0x000001ff
10000144:	00010564 	.word	0x00010564
10000148:	ab123579 	.word	0xab123579

1000014c <_entry_point>:
1000014c:	f04f 0000 	mov.w	r0, #0

10000150 <_enter_vtable_in_r0>:
10000150:	4923      	ldr	r1, [pc, #140]	@ (100001e0 <data_cpy_table+0x38>)
10000152:	6008      	str	r0, [r1, #0]
10000154:	c806      	ldmia	r0!, {r1, r2}
10000156:	f381 8808 	msr	MSP, r1
1000015a:	4710      	bx	r2

1000015c <_reset_handler>:
1000015c:	f04f 4050 	mov.w	r0, #3489660928	@ 0xd0000000
10000160:	6800      	ldr	r0, [r0, #0]
10000162:	b110      	cbz	r0, 1000016a <hold_non_core0_in_bootrom+0x6>

10000164 <hold_non_core0_in_bootrom>:
10000164:	f04f 0000 	mov.w	r0, #0
10000168:	e7f2      	b.n	10000150 <_enter_vtable_in_r0>
1000016a:	a40f      	add	r4, pc, #60	@ (adr r4, 100001a8 <data_cpy_table>)
1000016c:	cc0e      	ldmia	r4!, {r1, r2, r3}
1000016e:	2900      	cmp	r1, #0
10000170:	d002      	beq.n	10000178 <hold_non_core0_in_bootrom+0x14>
10000172:	f000 f815 	bl	100001a0 <data_cpy>
10000176:	e7f9      	b.n	1000016c <hold_non_core0_in_bootrom+0x8>
10000178:	491a      	ldr	r1, [pc, #104]	@ (100001e4 <data_cpy_table+0x3c>)
1000017a:	4a1b      	ldr	r2, [pc, #108]	@ (100001e8 <data_cpy_table+0x40>)
1000017c:	2000      	movs	r0, #0
1000017e:	e000      	b.n	10000182 <bss_fill_test>

10000180 <bss_fill_loop>:
10000180:	c101      	stmia	r1!, {r0}

10000182 <bss_fill_test>:
10000182:	4291      	cmp	r1, r2
10000184:	d1fc      	bne.n	10000180 <bss_fill_loop>

10000186 <platform_entry>:
10000186:	2000      	movs	r0, #0
10000188:	f380 880a 	msr	MSPLIM, r0
1000018c:	4917      	ldr	r1, [pc, #92]	@ (100001ec <data_cpy_table+0x44>)
1000018e:	4788      	blx	r1
10000190:	4917      	ldr	r1, [pc, #92]	@ (100001f0 <data_cpy_table+0x48>)
10000192:	4788      	blx	r1
10000194:	4917      	ldr	r1, [pc, #92]	@ (100001f4 <data_cpy_table+0x4c>)
10000196:	4788      	blx	r1
10000198:	be00      	bkpt	0x0000
1000019a:	e7fd      	b.n	10000198 <platform_entry+0x12>

1000019c <data_cpy_loop>:
1000019c:	c901      	ldmia	r1!, {r0}
1000019e:	c201      	stmia	r2!, {r0}

100001a0 <data_cpy>:
100001a0:	429a      	cmp	r2, r3
100001a2:	d3fb      	bcc.n	1000019c <data_cpy_loop>
100001a4:	4770      	bx	lr
100001a6:	bf00      	nop

100001a8 <data_cpy_table>:
100001a8:	10000224 	.word	0x10000224
100001ac:	20000110 	.word	0x20000110
100001b0:	2000d99c 	.word	0x2000d99c
100001b4:	1000dab0 	.word	0x1000dab0
100001b8:	2000d9a0 	.word	0x2000d9a0
100001bc:	2001058c 	.word	0x2001058c
100001c0:	1001069c 	.word	0x1001069c
100001c4:	20080000 	.word	0x20080000
100001c8:	20080000 	.word	0x20080000
100001cc:	1001069c 	.word	0x1001069c
100001d0:	20081000 	.word	0x20081000
100001d4:	20081000 	.word	0x20081000
100001d8:	00000000 	.word	0x00000000
100001dc:	4770      	bx	lr
100001de:	0000      	.short	0x0000
100001e0:	e000ed08 	.word	0xe000ed08
100001e4:	2001058c 	.word	0x2001058c
100001e8:	2005afd4 	.word	0x2005afd4
100001ec:	20004459 	.word	0x20004459
100001f0:	200002b9 	.word	0x200002b9
100001f4:	2000441d 	.word	0x2000441d

Disassembly of section .text:

20000110 <_init>:
20000110:	b5f8      	push	{r3, r4, r5, r6, r7, lr}
20000112:	bf00      	nop

20000114 <register_tm_clones>:
20000114:	4b06      	ldr	r3, [pc, #24]	@ (20000130 <register_tm_clones+0x1c>)
20000116:	4907      	ldr	r1, [pc, #28]	@ (20000134 <register_tm_clones+0x20>)
20000118:	1ac9      	subs	r1, r1, r3
2000011a:	1089      	asrs	r1, r1, #2
2000011c:	bf48      	it	mi
2000011e:	3101      	addmi	r1, #1
20000120:	1049      	asrs	r1, r1, #1
20000122:	d003      	beq.n	2000012c <register_tm_clones+0x18>
20000124:	4b04      	ldr	r3, [pc, #16]	@ (20000138 <register_tm_clones+0x24>)
20000126:	b10b      	cbz	r3, 2000012c <register_tm_clones+0x18>
20000128:	4801      	ldr	r0, [pc, #4]	@ (20000130 <register_tm_clones+0x1c>)
2000012a:	4718      	bx	r3
2000012c:	4770      	bx	lr
2000012e:	bf00      	nop
20000130:	2001058c 	.word	0x2001058c
20000134:	2001058c 	.word	0x2001058c
20000138:	00000000 	.word	0x00000000

2000013c <frame_dummy>:
2000013c:	b508      	push	{r3, lr}
2000013e:	4b05      	ldr	r3, [pc, #20]	@ (20000154 <frame_dummy+0x18>)
20000140:	b11b      	cbz	r3, 2000014a <frame_dummy+0xe>
20000142:	4905      	ldr	r1, [pc, #20]	@ (20000158 <frame_dummy+0x1c>)
20000144:	4805      	ldr	r0, [pc, #20]	@ (2000015c <frame_dummy+0x20>)
20000146:	f3af 8000 	nop.w
2000014a:	e8bd 4008 	ldmia.w	sp!, {r3, lr}
2000014e:	f7ff bfe1 	b.w	20000114 <register_tm_clones>
20000152:	bf00      	nop
20000154:	00000000 	.word	0x00000000
20000158:	2005a734 	.word	0x2005a734
2000015c:	2000d99c 	.word	0x2000d99c

20000160 <core1_entry>:
20000160:	2100      	movs	r1, #0
20000162:	b510      	push	{r4, lr}
20000164:	4824      	ldr	r0, [pc, #144]	@ (200001f8 <core1_entry+0x98>)
20000166:	f003 fb9f 	bl	200038a8 <queue_remove_blocking>
2000016a:	4824      	ldr	r0, [pc, #144]	@ (200001fc <core1_entry+0x9c>)
2000016c:	f000 fd18 	bl	20000ba0 <console_printf>
20000170:	f000 f8cc 	bl	2000030c <psram_init>
20000174:	2800      	cmp	r0, #0
20000176:	db3a      	blt.n	200001ee <core1_entry+0x8e>
20000178:	4821      	ldr	r0, [pc, #132]	@ (20000200 <core1_entry+0xa0>)
2000017a:	f000 fd11 	bl	20000ba0 <console_printf>
2000017e:	2405      	movs	r4, #5
20000180:	4820      	ldr	r0, [pc, #128]	@ (20000204 <core1_entry+0xa4>)
20000182:	f006 fb89 	bl	20006898 <pf_mount>
20000186:	bb48      	cbnz	r0, 200001dc <core1_entry+0x7c>
20000188:	20c8      	movs	r0, #200	@ 0xc8
2000018a:	f003 f9b5 	bl	200034f8 <sleep_ms>
2000018e:	481e      	ldr	r0, [pc, #120]	@ (20000208 <core1_entry+0xa8>)
20000190:	f000 fd06 	bl	20000ba0 <console_printf>
20000194:	491d      	ldr	r1, [pc, #116]	@ (2000020c <core1_entry+0xac>)
20000196:	481e      	ldr	r0, [pc, #120]	@ (20000210 <core1_entry+0xb0>)
20000198:	f004 fbe0 	bl	2000495c <spi_set_baudrate>
2000019c:	ee07 0a90 	vmov	s15, r0
200001a0:	ed9f 7a1c 	vldr	s14, [pc, #112]	@ 20000214 <core1_entry+0xb4>
200001a4:	eef8 7ae7 	vcvt.f32.s32	s15, s15
200001a8:	eec7 7a87 	vdiv.f32	s15, s15, s14
200001ac:	ee17 0a90 	vmov	r0, s15
200001b0:	f008 f972 	bl	20008498 <__aeabi_f2d>
200001b4:	4602      	mov	r2, r0
200001b6:	460b      	mov	r3, r1
200001b8:	4817      	ldr	r0, [pc, #92]	@ (20000218 <core1_entry+0xb8>)
200001ba:	f000 fcf1 	bl	20000ba0 <console_printf>
200001be:	2032      	movs	r0, #50	@ 0x32
200001c0:	f003 f99a 	bl	200034f8 <sleep_ms>
200001c4:	f000 ff34 	bl	20001030 <riscv_emu>
200001c8:	2801      	cmp	r0, #1
200001ca:	d003      	beq.n	200001d4 <core1_entry+0x74>
200001cc:	2100      	movs	r1, #0
200001ce:	480a      	ldr	r0, [pc, #40]	@ (200001f8 <core1_entry+0x98>)
200001d0:	f003 fb6a 	bl	200038a8 <queue_remove_blocking>
200001d4:	4809      	ldr	r0, [pc, #36]	@ (200001fc <core1_entry+0x9c>)
200001d6:	f000 fce3 	bl	20000ba0 <console_printf>
200001da:	e7f3      	b.n	200001c4 <core1_entry+0x64>
200001dc:	20c8      	movs	r0, #200	@ 0xc8
200001de:	f003 f98b 	bl	200034f8 <sleep_ms>
200001e2:	3c01      	subs	r4, #1
200001e4:	d1cc      	bne.n	20000180 <core1_entry+0x20>
200001e6:	480d      	ldr	r0, [pc, #52]	@ (2000021c <core1_entry+0xbc>)
200001e8:	f000 fd06 	bl	20000bf8 <console_panic>
200001ec:	e7cf      	b.n	2000018e <core1_entry+0x2e>
200001ee:	480c      	ldr	r0, [pc, #48]	@ (20000220 <core1_entry+0xc0>)
200001f0:	f000 fd02 	bl	20000bf8 <console_panic>
200001f4:	e7c0      	b.n	20000178 <core1_entry+0x18>
200001f6:	bf00      	nop
200001f8:	2005a70c 	.word	0x2005a70c
200001fc:	2000e79c 	.word	0x2000e79c
20000200:	2000e7c4 	.word	0x2000e7c4
20000204:	20059c94 	.word	0x20059c94
20000208:	2000e7f4 	.word	0x2000e7f4
2000020c:	03473bc0 	.word	0x03473bc0
20000210:	40088000 	.word	0x40088000
20000214:	49742400 	.word	0x49742400
20000218:	2000e804 	.word	0x2000e804
2000021c:	2000e7d8 	.word	0x2000e7d8
20000220:	2000e7a8 	.word	0x2000e7a8

20000224 <gset_sys_clock_khz>:
20000224:	b5f0      	push	{r4, r5, r6, r7, lr}
20000226:	b087      	sub	sp, #28
20000228:	460c      	mov	r4, r1
2000022a:	ab05      	add	r3, sp, #20
2000022c:	aa04      	add	r2, sp, #16
2000022e:	a903      	add	r1, sp, #12
20000230:	4606      	mov	r6, r0
20000232:	f003 fca3 	bl	20003b7c <check_sys_clock_khz>
20000236:	b918      	cbnz	r0, 20000240 <gset_sys_clock_khz+0x1c>
20000238:	bb8c      	cbnz	r4, 2000029e <gset_sys_clock_khz+0x7a>
2000023a:	4620      	mov	r0, r4
2000023c:	b007      	add	sp, #28
2000023e:	bdf0      	pop	{r4, r5, r6, r7, pc}
20000240:	2201      	movs	r2, #1
20000242:	e9dd 4603 	ldrd	r4, r6, [sp, #12]
20000246:	4b18      	ldr	r3, [pc, #96]	@ (200002a8 <gset_sys_clock_khz+0x84>)
20000248:	9f05      	ldr	r7, [sp, #20]
2000024a:	4605      	mov	r5, r0
2000024c:	4611      	mov	r1, r2
2000024e:	9300      	str	r3, [sp, #0]
20000250:	2005      	movs	r0, #5
20000252:	f003 fba7 	bl	200039a4 <clock_configure>
20000256:	4633      	mov	r3, r6
20000258:	fb07 f606 	mul.w	r6, r7, r6
2000025c:	4622      	mov	r2, r4
2000025e:	2101      	movs	r1, #1
20000260:	4812      	ldr	r0, [pc, #72]	@ (200002ac <gset_sys_clock_khz+0x88>)
20000262:	9700      	str	r7, [sp, #0]
20000264:	f003 fd58 	bl	20003d18 <pll_init>
20000268:	fbb4 f4f6 	udiv	r4, r4, r6
2000026c:	4b10      	ldr	r3, [pc, #64]	@ (200002b0 <gset_sys_clock_khz+0x8c>)
2000026e:	2200      	movs	r2, #0
20000270:	9300      	str	r3, [sp, #0]
20000272:	2102      	movs	r1, #2
20000274:	2004      	movs	r0, #4
20000276:	f003 fb95 	bl	200039a4 <clock_configure>
2000027a:	4623      	mov	r3, r4
2000027c:	9400      	str	r4, [sp, #0]
2000027e:	2200      	movs	r2, #0
20000280:	2101      	movs	r1, #1
20000282:	2005      	movs	r0, #5
20000284:	f003 fb8e 	bl	200039a4 <clock_configure>
20000288:	2200      	movs	r2, #0
2000028a:	4623      	mov	r3, r4
2000028c:	9400      	str	r4, [sp, #0]
2000028e:	462c      	mov	r4, r5
20000290:	4611      	mov	r1, r2
20000292:	2006      	movs	r0, #6
20000294:	f003 fb86 	bl	200039a4 <clock_configure>
20000298:	4620      	mov	r0, r4
2000029a:	b007      	add	sp, #28
2000029c:	bdf0      	pop	{r4, r5, r6, r7, pc}
2000029e:	4631      	mov	r1, r6
200002a0:	4804      	ldr	r0, [pc, #16]	@ (200002b4 <gset_sys_clock_khz+0x90>)
200002a2:	f002 fa27 	bl	200026f4 <panic>
200002a6:	bf00      	nop
200002a8:	02dc6c00 	.word	0x02dc6c00
200002ac:	40050000 	.word	0x40050000
200002b0:	00b71b00 	.word	0x00b71b00
200002b4:	2000e824 	.word	0x2000e824

200002b8 <main>:
200002b8:	b508      	push	{r3, lr}
200002ba:	f003 fd95 	bl	20003de8 <vreg_disable_voltage_limit>
200002be:	2032      	movs	r0, #50	@ 0x32
200002c0:	f003 f91a 	bl	200034f8 <sleep_ms>
200002c4:	2013      	movs	r0, #19
200002c6:	f003 fd6d 	bl	20003da4 <vreg_set_voltage>
200002ca:	2032      	movs	r0, #50	@ 0x32
200002cc:	f003 f914 	bl	200034f8 <sleep_ms>
200002d0:	2101      	movs	r1, #1
200002d2:	f44f 20fa 	mov.w	r0, #512000	@ 0x7d000
200002d6:	f7ff ffa5 	bl	20000224 <gset_sys_clock_khz>
200002da:	2032      	movs	r0, #50	@ 0x32
200002dc:	f003 f90c 	bl	200034f8 <sleep_ms>
200002e0:	f000 fb9c 	bl	20000a1c <console_init>
200002e4:	f004 fa06 	bl	200046f4 <multicore_reset_core1>
200002e8:	f04f 4350 	mov.w	r3, #3489660928	@ 0xd0000000
200002ec:	6d1a      	ldr	r2, [r3, #80]	@ 0x50
200002ee:	07d1      	lsls	r1, r2, #31
200002f0:	d503      	bpl.n	200002fa <main+0x42>
200002f2:	6d9a      	ldr	r2, [r3, #88]	@ 0x58
200002f4:	6d1a      	ldr	r2, [r3, #80]	@ 0x50
200002f6:	07d2      	lsls	r2, r2, #31
200002f8:	d4fb      	bmi.n	200002f2 <main+0x3a>
200002fa:	4803      	ldr	r0, [pc, #12]	@ (20000308 <main+0x50>)
200002fc:	f004 fa70 	bl	200047e0 <multicore_launch_core1>
20000300:	f000 fc0c 	bl	20000b1c <console_task>
20000304:	e7fc      	b.n	20000300 <main+0x48>
20000306:	bf00      	nop
20000308:	20000161 	.word	0x20000161

2000030c <psram_init>:
2000030c:	b570      	push	{r4, r5, r6, lr}
2000030e:	200d      	movs	r0, #13
20000310:	b082      	sub	sp, #8
20000312:	f002 f9cb 	bl	200026ac <gpio_init>
20000316:	200b      	movs	r0, #11
20000318:	f002 f9c8 	bl	200026ac <gpio_init>
2000031c:	200c      	movs	r0, #12
2000031e:	f002 f9c5 	bl	200026ac <gpio_init>
20000322:	200a      	movs	r0, #10
20000324:	f002 f9c2 	bl	200026ac <gpio_init>
20000328:	240d      	movs	r4, #13
2000032a:	f04f 0501 	mov.w	r5, #1
2000032e:	ec45 4044 	gpioc_bit_oe_put r4, r5
20000332:	ec45 4040 	gpioc_bit_out_put r4, r5
20000336:	4927      	ldr	r1, [pc, #156]	@ (200003d4 <psram_init+0xc8>)
20000338:	4827      	ldr	r0, [pc, #156]	@ (200003d8 <psram_init+0xcc>)
2000033a:	f004 fa95 	bl	20004868 <spi_init>
2000033e:	2101      	movs	r1, #1
20000340:	200b      	movs	r0, #11
20000342:	f002 f91f 	bl	20002584 <gpio_set_function>
20000346:	2101      	movs	r1, #1
20000348:	200c      	movs	r0, #12
2000034a:	f002 f91b 	bl	20002584 <gpio_set_function>
2000034e:	2101      	movs	r1, #1
20000350:	200a      	movs	r0, #10
20000352:	f002 f917 	bl	20002584 <gpio_set_function>
20000356:	200a      	movs	r0, #10
20000358:	f003 f8ce 	bl	200034f8 <sleep_ms>
2000035c:	2366      	movs	r3, #102	@ 0x66
2000035e:	f04f 0600 	mov.w	r6, #0
20000362:	f88d 3000 	strb.w	r3, [sp]
20000366:	ec46 4040 	gpioc_bit_out_put r4, r6
2000036a:	2201      	movs	r2, #1
2000036c:	4669      	mov	r1, sp
2000036e:	481a      	ldr	r0, [pc, #104]	@ (200003d8 <psram_init+0xcc>)
20000370:	f00d fbfa 	bl	2000db68 <spi_write_blocking>
20000374:	ec45 4040 	gpioc_bit_out_put r4, r5
20000378:	2399      	movs	r3, #153	@ 0x99
2000037a:	f88d 3000 	strb.w	r3, [sp]
2000037e:	ec46 4040 	gpioc_bit_out_put r4, r6
20000382:	2201      	movs	r2, #1
20000384:	4669      	mov	r1, sp
20000386:	4814      	ldr	r0, [pc, #80]	@ (200003d8 <psram_init+0xcc>)
20000388:	f00d fbee 	bl	2000db68 <spi_write_blocking>
2000038c:	ec45 4040 	gpioc_bit_out_put r4, r5
20000390:	200a      	movs	r0, #10
20000392:	f003 f8b1 	bl	200034f8 <sleep_ms>
20000396:	ec46 4040 	gpioc_bit_out_put r4, r6
2000039a:	239f      	movs	r3, #159	@ 0x9f
2000039c:	4669      	mov	r1, sp
2000039e:	2201      	movs	r2, #1
200003a0:	480d      	ldr	r0, [pc, #52]	@ (200003d8 <psram_init+0xcc>)
200003a2:	f88d 3000 	strb.w	r3, [sp]
200003a6:	f00d fbdf 	bl	2000db68 <spi_write_blocking>
200003aa:	4669      	mov	r1, sp
200003ac:	2203      	movs	r2, #3
200003ae:	480a      	ldr	r0, [pc, #40]	@ (200003d8 <psram_init+0xcc>)
200003b0:	f00d fbda 	bl	2000db68 <spi_write_blocking>
200003b4:	2306      	movs	r3, #6
200003b6:	466a      	mov	r2, sp
200003b8:	2100      	movs	r1, #0
200003ba:	4807      	ldr	r0, [pc, #28]	@ (200003d8 <psram_init+0xcc>)
200003bc:	f00d fc1c 	bl	2000dbf8 <spi_read_blocking>
200003c0:	ec45 4040 	gpioc_bit_out_put r4, r5
200003c4:	f89d 0001 	ldrb.w	r0, [sp, #1]
200003c8:	385d      	subs	r0, #93	@ 0x5d
200003ca:	bf18      	it	ne
200003cc:	f04f 30ff 	movne.w	r0, #4294967295
200003d0:	b002      	add	sp, #8
200003d2:	bd70      	pop	{r4, r5, r6, pc}
200003d4:	017d7840 	.word	0x017d7840
200003d8:	40088000 	.word	0x40088000

200003dc <psram_access>:
200003dc:	b5f8      	push	{r3, r4, r5, r6, r7, lr}
200003de:	460f      	mov	r7, r1
200003e0:	4615      	mov	r5, r2
200003e2:	461e      	mov	r6, r3
200003e4:	b312      	cbz	r2, 2000042c <psram_access+0x50>
200003e6:	2302      	movs	r3, #2
200003e8:	2204      	movs	r2, #4
200003ea:	2400      	movs	r4, #0
200003ec:	f363 0407 	bfi	r4, r3, #0, #8
200003f0:	0c03      	lsrs	r3, r0, #16
200003f2:	f363 240f 	bfi	r4, r3, #8, #8
200003f6:	0a03      	lsrs	r3, r0, #8
200003f8:	4911      	ldr	r1, [pc, #68]	@ (20000440 <psram_access+0x64>)
200003fa:	f363 4417 	bfi	r4, r3, #16, #8
200003fe:	f360 641f 	bfi	r4, r0, #24, #8
20000402:	230d      	movs	r3, #13
20000404:	f04f 0000 	mov.w	r0, #0
20000408:	600c      	str	r4, [r1, #0]
2000040a:	ec40 3040 	gpioc_bit_out_put r3, r0
2000040e:	480d      	ldr	r0, [pc, #52]	@ (20000444 <psram_access+0x68>)
20000410:	f00d fbaa 	bl	2000db68 <spi_write_blocking>
20000414:	b16d      	cbz	r5, 20000432 <psram_access+0x56>
20000416:	463a      	mov	r2, r7
20000418:	4631      	mov	r1, r6
2000041a:	480a      	ldr	r0, [pc, #40]	@ (20000444 <psram_access+0x68>)
2000041c:	f00d fba4 	bl	2000db68 <spi_write_blocking>
20000420:	230d      	movs	r3, #13
20000422:	f04f 0201 	mov.w	r2, #1
20000426:	ec42 3040 	gpioc_bit_out_put r3, r2
2000042a:	bdf8      	pop	{r3, r4, r5, r6, r7, pc}
2000042c:	230b      	movs	r3, #11
2000042e:	2205      	movs	r2, #5
20000430:	e7db      	b.n	200003ea <psram_access+0xe>
20000432:	463b      	mov	r3, r7
20000434:	4632      	mov	r2, r6
20000436:	4629      	mov	r1, r5
20000438:	4802      	ldr	r0, [pc, #8]	@ (20000444 <psram_access+0x68>)
2000043a:	f00d fbdd 	bl	2000dbf8 <spi_read_blocking>
2000043e:	e7ef      	b.n	20000420 <psram_access+0x44>
20000440:	20059c50 	.word	0x20059c50
20000444:	40088000 	.word	0x40088000

20000448 <psram_load_data>:
20000448:	e92d 4ff0 	stmdb	sp!, {r4, r5, r6, r7, r8, r9, sl, fp, lr}
2000044c:	f5b2 6f80 	cmp.w	r2, #1024	@ 0x400
20000450:	4690      	mov	r8, r2
20000452:	4681      	mov	r9, r0
20000454:	460c      	mov	r4, r1
20000456:	b083      	sub	sp, #12
20000458:	d351      	bcc.n	200004fe <psram_load_data+0xb6>
2000045a:	f5a2 6a80 	sub.w	sl, r2, #1024	@ 0x400
2000045e:	4653      	mov	r3, sl
20000460:	f04f 0b00 	mov.w	fp, #0
20000464:	f36f 0309 	bfc	r3, #0, #10
20000468:	f501 6680 	add.w	r6, r1, #1024	@ 0x400
2000046c:	4d25      	ldr	r5, [pc, #148]	@ (20000504 <psram_load_data+0xbc>)
2000046e:	9301      	str	r3, [sp, #4]
20000470:	441e      	add	r6, r3
20000472:	1a47      	subs	r7, r0, r1
20000474:	2202      	movs	r2, #2
20000476:	0c21      	lsrs	r1, r4, #16
20000478:	ba63      	rev16	r3, r4
2000047a:	f04f 0a0d 	mov.w	sl, #13
2000047e:	7069      	strb	r1, [r5, #1]
20000480:	806b      	strh	r3, [r5, #2]
20000482:	702a      	strb	r2, [r5, #0]
20000484:	ec4b a040 	gpioc_bit_out_put sl, fp
20000488:	2204      	movs	r2, #4
2000048a:	4629      	mov	r1, r5
2000048c:	481e      	ldr	r0, [pc, #120]	@ (20000508 <psram_load_data+0xc0>)
2000048e:	f00d fb6b 	bl	2000db68 <spi_write_blocking>
20000492:	f44f 6280 	mov.w	r2, #1024	@ 0x400
20000496:	1939      	adds	r1, r7, r4
20000498:	481b      	ldr	r0, [pc, #108]	@ (20000508 <psram_load_data+0xc0>)
2000049a:	f00d fb65 	bl	2000db68 <spi_write_blocking>
2000049e:	f04f 0201 	mov.w	r2, #1
200004a2:	ec42 a040 	gpioc_bit_out_put sl, r2
200004a6:	f504 6480 	add.w	r4, r4, #1024	@ 0x400
200004aa:	42b4      	cmp	r4, r6
200004ac:	d1e2      	bne.n	20000474 <psram_load_data+0x2c>
200004ae:	9b01      	ldr	r3, [sp, #4]
200004b0:	f3c8 0809 	ubfx	r8, r8, #0, #10
200004b4:	444b      	add	r3, r9
200004b6:	f503 6980 	add.w	r9, r3, #1024	@ 0x400
200004ba:	f1b8 0f00 	cmp.w	r8, #0
200004be:	d102      	bne.n	200004c6 <psram_load_data+0x7e>
200004c0:	b003      	add	sp, #12
200004c2:	e8bd 8ff0 	ldmia.w	sp!, {r4, r5, r6, r7, r8, r9, sl, fp, pc}
200004c6:	2202      	movs	r2, #2
200004c8:	490e      	ldr	r1, [pc, #56]	@ (20000504 <psram_load_data+0xbc>)
200004ca:	0c33      	lsrs	r3, r6, #16
200004cc:	ba76      	rev16	r6, r6
200004ce:	704b      	strb	r3, [r1, #1]
200004d0:	240d      	movs	r4, #13
200004d2:	f04f 0300 	mov.w	r3, #0
200004d6:	804e      	strh	r6, [r1, #2]
200004d8:	700a      	strb	r2, [r1, #0]
200004da:	ec43 4040 	gpioc_bit_out_put r4, r3
200004de:	2204      	movs	r2, #4
200004e0:	4809      	ldr	r0, [pc, #36]	@ (20000508 <psram_load_data+0xc0>)
200004e2:	f00d fb41 	bl	2000db68 <spi_write_blocking>
200004e6:	4642      	mov	r2, r8
200004e8:	4649      	mov	r1, r9
200004ea:	4807      	ldr	r0, [pc, #28]	@ (20000508 <psram_load_data+0xc0>)
200004ec:	f00d fb3c 	bl	2000db68 <spi_write_blocking>
200004f0:	f04f 0301 	mov.w	r3, #1
200004f4:	ec43 4040 	gpioc_bit_out_put r4, r3
200004f8:	b003      	add	sp, #12
200004fa:	e8bd 8ff0 	ldmia.w	sp!, {r4, r5, r6, r7, r8, r9, sl, fp, pc}
200004fe:	460e      	mov	r6, r1
20000500:	e7db      	b.n	200004ba <psram_load_data+0x72>
20000502:	bf00      	nop
20000504:	20059c50 	.word	0x20059c50
20000508:	40088000 	.word	0x40088000
2000050c:	00000000 	.word	0x00000000

20000510 <cache_reset>:
20000510:	ed9f 7b09 	vldr	d7, [pc, #36]	@ 20000538 <cache_reset+0x28>
20000514:	b410      	push	{r4}
20000516:	4c0a      	ldr	r4, [pc, #40]	@ (20000540 <cache_reset+0x30>)
20000518:	4b0a      	ldr	r3, [pc, #40]	@ (20000544 <cache_reset+0x34>)
2000051a:	ed84 7b00 	vstr	d7, [r4]
2000051e:	f44f 2290 	mov.w	r2, #294912	@ 0x48000
20000522:	2100      	movs	r1, #0
20000524:	4808      	ldr	r0, [pc, #32]	@ (20000548 <cache_reset+0x38>)
20000526:	f85d 4b04 	ldr.w	r4, [sp], #4
2000052a:	ed83 7b00 	vstr	d7, [r3]
2000052e:	f009 b825 	b.w	2000957c <memset>
20000532:	bf00      	nop
20000534:	f3af 8000 	nop.w
	...
20000540:	200107d0 	.word	0x200107d0
20000544:	200107d8 	.word	0x200107d8
20000548:	20011c00 	.word	0x20011c00

2000054c <cache_read>:
2000054c:	e92d 47f0 	stmdb	sp!, {r4, r5, r6, r7, r8, r9, sl, lr}
20000550:	4607      	mov	r7, r0
20000552:	4b8c      	ldr	r3, [pc, #560]	@ (20000784 <cache_read+0x238>)
20000554:	4615      	mov	r5, r2
20000556:	f3c0 120c 	ubfx	r2, r0, #4, #13
2000055a:	eb02 04c2 	add.w	r4, r2, r2, lsl #3
2000055e:	f813 0024 	ldrb.w	r0, [r3, r4, lsl #2]
20000562:	f3c7 4847 	ubfx	r8, r7, #17, #8
20000566:	4540      	cmp	r0, r8
20000568:	460e      	mov	r6, r1
2000056a:	ea4f 0c84 	mov.w	ip, r4, lsl #2
2000056e:	b082      	sub	sp, #8
20000570:	f007 090f 	and.w	r9, r7, #15
20000574:	ea4f 01c2 	mov.w	r1, r2, lsl #3
20000578:	eb03 0484 	add.w	r4, r3, r4, lsl #2
2000057c:	d07a      	beq.n	20000674 <cache_read+0x128>
2000057e:	1888      	adds	r0, r1, r2
20000580:	eb03 0080 	add.w	r0, r3, r0, lsl #2
20000584:	7c84      	ldrb	r4, [r0, #18]
20000586:	f890 e023 	ldrb.w	lr, [r0, #35]	@ 0x23
2000058a:	4544      	cmp	r4, r8
2000058c:	f000 8088 	beq.w	200006a0 <cache_read+0x154>
20000590:	4c7d      	ldr	r4, [pc, #500]	@ (20000788 <cache_read+0x23c>)
20000592:	1888      	adds	r0, r1, r2
20000594:	eb03 0080 	add.w	r0, r3, r0, lsl #2
20000598:	f890 a011 	ldrb.w	sl, [r0, #17]
2000059c:	6820      	ldr	r0, [r4, #0]
2000059e:	3001      	adds	r0, #1
200005a0:	6020      	str	r0, [r4, #0]
200005a2:	6860      	ldr	r0, [r4, #4]
200005a4:	f140 0000 	adc.w	r0, r0, #0
200005a8:	f01a 0f04 	tst.w	sl, #4
200005ac:	6060      	str	r0, [r4, #4]
200005ae:	d149      	bne.n	20000644 <cache_read+0xf8>
200005b0:	f10c 0c12 	add.w	ip, ip, #18
200005b4:	eb03 040c 	add.w	r4, r3, ip
200005b8:	f00e 0efb 	and.w	lr, lr, #251	@ 0xfb
200005bc:	f04a 0a04 	orr.w	sl, sl, #4
200005c0:	4411      	add	r1, r2
200005c2:	eb03 0381 	add.w	r3, r3, r1, lsl #2
200005c6:	f883 e023 	strb.w	lr, [r3, #35]	@ 0x23
200005ca:	f883 a011 	strb.w	sl, [r3, #17]
200005ce:	7c63      	ldrb	r3, [r4, #17]
200005d0:	f003 0303 	and.w	r3, r3, #3
200005d4:	2b03      	cmp	r3, #3
200005d6:	d07c      	beq.n	200006d2 <cache_read+0x186>
200005d8:	1c63      	adds	r3, r4, #1
200005da:	2200      	movs	r2, #0
200005dc:	2110      	movs	r1, #16
200005de:	f027 000f 	bic.w	r0, r7, #15
200005e2:	f7ff fefb 	bl	200003dc <psram_access>
200005e6:	2301      	movs	r3, #1
200005e8:	f884 8000 	strb.w	r8, [r4]
200005ec:	7463      	strb	r3, [r4, #17]
200005ee:	b335      	cbz	r5, 2000063e <cache_read+0xf2>
200005f0:	1e6b      	subs	r3, r5, #1
200005f2:	2b05      	cmp	r3, #5
200005f4:	d97a      	bls.n	200006ec <cache_read+0x1a0>
200005f6:	f109 0302 	add.w	r3, r9, #2
200005fa:	4423      	add	r3, r4
200005fc:	1af3      	subs	r3, r6, r3
200005fe:	2b02      	cmp	r3, #2
20000600:	f240 80ba 	bls.w	20000778 <cache_read+0x22c>
20000604:	f109 0301 	add.w	r3, r9, #1
20000608:	58e1      	ldr	r1, [r4, r3]
2000060a:	08aa      	lsrs	r2, r5, #2
2000060c:	2a01      	cmp	r2, #1
2000060e:	6031      	str	r1, [r6, #0]
20000610:	4423      	add	r3, r4
20000612:	d01e      	beq.n	20000652 <cache_read+0x106>
20000614:	6859      	ldr	r1, [r3, #4]
20000616:	2a02      	cmp	r2, #2
20000618:	6071      	str	r1, [r6, #4]
2000061a:	d005      	beq.n	20000628 <cache_read+0xdc>
2000061c:	6899      	ldr	r1, [r3, #8]
2000061e:	2a03      	cmp	r2, #3
20000620:	60b1      	str	r1, [r6, #8]
20000622:	bf1c      	itt	ne
20000624:	68db      	ldrne	r3, [r3, #12]
20000626:	60f3      	strne	r3, [r6, #12]
20000628:	07ab      	lsls	r3, r5, #30
2000062a:	d008      	beq.n	2000063e <cache_read+0xf2>
2000062c:	f025 0303 	bic.w	r3, r5, #3
20000630:	444c      	add	r4, r9
20000632:	18e2      	adds	r2, r4, r3
20000634:	7852      	ldrb	r2, [r2, #1]
20000636:	54f2      	strb	r2, [r6, r3]
20000638:	1c5a      	adds	r2, r3, #1
2000063a:	4295      	cmp	r5, r2
2000063c:	dc0e      	bgt.n	2000065c <cache_read+0x110>
2000063e:	b002      	add	sp, #8
20000640:	e8bd 87f0 	ldmia.w	sp!, {r4, r5, r6, r7, r8, r9, sl, pc}
20000644:	eb03 040c 	add.w	r4, r3, ip
20000648:	f00a 0afb 	and.w	sl, sl, #251	@ 0xfb
2000064c:	f04e 0e04 	orr.w	lr, lr, #4
20000650:	e7b6      	b.n	200005c0 <cache_read+0x74>
20000652:	444c      	add	r4, r9
20000654:	7963      	ldrb	r3, [r4, #5]
20000656:	2205      	movs	r2, #5
20000658:	7133      	strb	r3, [r6, #4]
2000065a:	2304      	movs	r3, #4
2000065c:	18a1      	adds	r1, r4, r2
2000065e:	7849      	ldrb	r1, [r1, #1]
20000660:	3302      	adds	r3, #2
20000662:	429d      	cmp	r5, r3
20000664:	54b1      	strb	r1, [r6, r2]
20000666:	ddea      	ble.n	2000063e <cache_read+0xf2>
20000668:	441c      	add	r4, r3
2000066a:	7862      	ldrb	r2, [r4, #1]
2000066c:	54f2      	strb	r2, [r6, r3]
2000066e:	b002      	add	sp, #8
20000670:	e8bd 87f0 	ldmia.w	sp!, {r4, r5, r6, r7, r8, r9, sl, pc}
20000674:	7c60      	ldrb	r0, [r4, #17]
20000676:	f010 0f01 	tst.w	r0, #1
2000067a:	d080      	beq.n	2000057e <cache_read+0x32>
2000067c:	4a43      	ldr	r2, [pc, #268]	@ (2000078c <cache_read+0x240>)
2000067e:	f020 0004 	bic.w	r0, r0, #4
20000682:	6813      	ldr	r3, [r2, #0]
20000684:	7460      	strb	r0, [r4, #17]
20000686:	3301      	adds	r3, #1
20000688:	6013      	str	r3, [r2, #0]
2000068a:	6853      	ldr	r3, [r2, #4]
2000068c:	f143 0300 	adc.w	r3, r3, #0
20000690:	6053      	str	r3, [r2, #4]
20000692:	f894 3023 	ldrb.w	r3, [r4, #35]	@ 0x23
20000696:	f043 0304 	orr.w	r3, r3, #4
2000069a:	f884 3023 	strb.w	r3, [r4, #35]	@ 0x23
2000069e:	e7a6      	b.n	200005ee <cache_read+0xa2>
200006a0:	f01e 0f01 	tst.w	lr, #1
200006a4:	f43f af74 	beq.w	20000590 <cache_read+0x44>
200006a8:	f10c 0c12 	add.w	ip, ip, #18
200006ac:	eb03 040c 	add.w	r4, r3, ip
200006b0:	7c43      	ldrb	r3, [r0, #17]
200006b2:	4a36      	ldr	r2, [pc, #216]	@ (2000078c <cache_read+0x240>)
200006b4:	f043 0304 	orr.w	r3, r3, #4
200006b8:	7443      	strb	r3, [r0, #17]
200006ba:	6813      	ldr	r3, [r2, #0]
200006bc:	f02e 0e04 	bic.w	lr, lr, #4
200006c0:	3301      	adds	r3, #1
200006c2:	6013      	str	r3, [r2, #0]
200006c4:	6853      	ldr	r3, [r2, #4]
200006c6:	f880 e023 	strb.w	lr, [r0, #35]	@ 0x23
200006ca:	f143 0300 	adc.w	r3, r3, #0
200006ce:	6053      	str	r3, [r2, #4]
200006d0:	e78d      	b.n	200005ee <cache_read+0xa2>
200006d2:	4623      	mov	r3, r4
200006d4:	f813 cb01 	ldrb.w	ip, [r3], #1
200006d8:	0110      	lsls	r0, r2, #4
200006da:	2110      	movs	r1, #16
200006dc:	2201      	movs	r2, #1
200006de:	ea40 404c 	orr.w	r0, r0, ip, lsl #17
200006e2:	9301      	str	r3, [sp, #4]
200006e4:	f7ff fe7a 	bl	200003dc <psram_access>
200006e8:	9b01      	ldr	r3, [sp, #4]
200006ea:	e776      	b.n	200005da <cache_read+0x8e>
200006ec:	444c      	add	r4, r9
200006ee:	7863      	ldrb	r3, [r4, #1]
200006f0:	2d01      	cmp	r5, #1
200006f2:	7033      	strb	r3, [r6, #0]
200006f4:	d0a3      	beq.n	2000063e <cache_read+0xf2>
200006f6:	78a3      	ldrb	r3, [r4, #2]
200006f8:	2d02      	cmp	r5, #2
200006fa:	7073      	strb	r3, [r6, #1]
200006fc:	d09f      	beq.n	2000063e <cache_read+0xf2>
200006fe:	78e3      	ldrb	r3, [r4, #3]
20000700:	2d03      	cmp	r5, #3
20000702:	70b3      	strb	r3, [r6, #2]
20000704:	d09b      	beq.n	2000063e <cache_read+0xf2>
20000706:	7923      	ldrb	r3, [r4, #4]
20000708:	2d04      	cmp	r5, #4
2000070a:	70f3      	strb	r3, [r6, #3]
2000070c:	d097      	beq.n	2000063e <cache_read+0xf2>
2000070e:	7963      	ldrb	r3, [r4, #5]
20000710:	2d05      	cmp	r5, #5
20000712:	7133      	strb	r3, [r6, #4]
20000714:	d093      	beq.n	2000063e <cache_read+0xf2>
20000716:	79a3      	ldrb	r3, [r4, #6]
20000718:	2d06      	cmp	r5, #6
2000071a:	7173      	strb	r3, [r6, #5]
2000071c:	d08f      	beq.n	2000063e <cache_read+0xf2>
2000071e:	79e3      	ldrb	r3, [r4, #7]
20000720:	2d07      	cmp	r5, #7
20000722:	71b3      	strb	r3, [r6, #6]
20000724:	d08b      	beq.n	2000063e <cache_read+0xf2>
20000726:	7a23      	ldrb	r3, [r4, #8]
20000728:	2d08      	cmp	r5, #8
2000072a:	71f3      	strb	r3, [r6, #7]
2000072c:	d087      	beq.n	2000063e <cache_read+0xf2>
2000072e:	7a63      	ldrb	r3, [r4, #9]
20000730:	2d09      	cmp	r5, #9
20000732:	7233      	strb	r3, [r6, #8]
20000734:	d083      	beq.n	2000063e <cache_read+0xf2>
20000736:	7aa3      	ldrb	r3, [r4, #10]
20000738:	2d0a      	cmp	r5, #10
2000073a:	7273      	strb	r3, [r6, #9]
2000073c:	f43f af7f 	beq.w	2000063e <cache_read+0xf2>
20000740:	7ae3      	ldrb	r3, [r4, #11]
20000742:	2d0b      	cmp	r5, #11
20000744:	72b3      	strb	r3, [r6, #10]
20000746:	f43f af7a 	beq.w	2000063e <cache_read+0xf2>
2000074a:	7b23      	ldrb	r3, [r4, #12]
2000074c:	2d0c      	cmp	r5, #12
2000074e:	72f3      	strb	r3, [r6, #11]
20000750:	f43f af75 	beq.w	2000063e <cache_read+0xf2>
20000754:	7b63      	ldrb	r3, [r4, #13]
20000756:	2d0d      	cmp	r5, #13
20000758:	7333      	strb	r3, [r6, #12]
2000075a:	f43f af70 	beq.w	2000063e <cache_read+0xf2>
2000075e:	7ba3      	ldrb	r3, [r4, #14]
20000760:	2d0e      	cmp	r5, #14
20000762:	7373      	strb	r3, [r6, #13]
20000764:	f43f af6b 	beq.w	2000063e <cache_read+0xf2>
20000768:	7be3      	ldrb	r3, [r4, #15]
2000076a:	2d0f      	cmp	r5, #15
2000076c:	73b3      	strb	r3, [r6, #14]
2000076e:	f43f af66 	beq.w	2000063e <cache_read+0xf2>
20000772:	7c23      	ldrb	r3, [r4, #16]
20000774:	73f3      	strb	r3, [r6, #15]
20000776:	e762      	b.n	2000063e <cache_read+0xf2>
20000778:	444c      	add	r4, r9
2000077a:	7863      	ldrb	r3, [r4, #1]
2000077c:	7033      	strb	r3, [r6, #0]
2000077e:	78a3      	ldrb	r3, [r4, #2]
20000780:	7073      	strb	r3, [r6, #1]
20000782:	e7bc      	b.n	200006fe <cache_read+0x1b2>
20000784:	20011c00 	.word	0x20011c00
20000788:	200107d8 	.word	0x200107d8
2000078c:	200107d0 	.word	0x200107d0

20000790 <cache_write>:
20000790:	e92d 47f0 	stmdb	sp!, {r4, r5, r6, r7, r8, r9, sl, lr}
20000794:	4607      	mov	r7, r0
20000796:	4b9e      	ldr	r3, [pc, #632]	@ (20000a10 <cache_write+0x280>)
20000798:	4615      	mov	r5, r2
2000079a:	f3c0 120c 	ubfx	r2, r0, #4, #13
2000079e:	eb02 04c2 	add.w	r4, r2, r2, lsl #3
200007a2:	f813 0024 	ldrb.w	r0, [r3, r4, lsl #2]
200007a6:	f3c7 4947 	ubfx	r9, r7, #17, #8
200007aa:	4548      	cmp	r0, r9
200007ac:	460e      	mov	r6, r1
200007ae:	ea4f 0c84 	mov.w	ip, r4, lsl #2
200007b2:	b082      	sub	sp, #8
200007b4:	f007 080f 	and.w	r8, r7, #15
200007b8:	ea4f 01c2 	mov.w	r1, r2, lsl #3
200007bc:	eb03 0484 	add.w	r4, r3, r4, lsl #2
200007c0:	f000 8082 	beq.w	200008c8 <cache_write+0x138>
200007c4:	1888      	adds	r0, r1, r2
200007c6:	eb03 0080 	add.w	r0, r3, r0, lsl #2
200007ca:	7c84      	ldrb	r4, [r0, #18]
200007cc:	f890 e023 	ldrb.w	lr, [r0, #35]	@ 0x23
200007d0:	454c      	cmp	r4, r9
200007d2:	f000 8092 	beq.w	200008fa <cache_write+0x16a>
200007d6:	4c8f      	ldr	r4, [pc, #572]	@ (20000a14 <cache_write+0x284>)
200007d8:	1888      	adds	r0, r1, r2
200007da:	eb03 0080 	add.w	r0, r3, r0, lsl #2
200007de:	f890 a011 	ldrb.w	sl, [r0, #17]
200007e2:	6820      	ldr	r0, [r4, #0]
200007e4:	3001      	adds	r0, #1
200007e6:	6020      	str	r0, [r4, #0]
200007e8:	6860      	ldr	r0, [r4, #4]
200007ea:	f140 0000 	adc.w	r0, r0, #0
200007ee:	f01a 0f04 	tst.w	sl, #4
200007f2:	6060      	str	r0, [r4, #4]
200007f4:	d14b      	bne.n	2000088e <cache_write+0xfe>
200007f6:	f10c 0c12 	add.w	ip, ip, #18
200007fa:	eb03 040c 	add.w	r4, r3, ip
200007fe:	f00e 0efb 	and.w	lr, lr, #251	@ 0xfb
20000802:	f04a 0a04 	orr.w	sl, sl, #4
20000806:	4411      	add	r1, r2
20000808:	eb03 0381 	add.w	r3, r3, r1, lsl #2
2000080c:	f883 e023 	strb.w	lr, [r3, #35]	@ 0x23
20000810:	f883 a011 	strb.w	sl, [r3, #17]
20000814:	7c63      	ldrb	r3, [r4, #17]
20000816:	f003 0303 	and.w	r3, r3, #3
2000081a:	2b03      	cmp	r3, #3
2000081c:	f000 8089 	beq.w	20000932 <cache_write+0x1a2>
20000820:	1c63      	adds	r3, r4, #1
20000822:	2110      	movs	r1, #16
20000824:	2200      	movs	r2, #0
20000826:	f027 000f 	bic.w	r0, r7, #15
2000082a:	f7ff fdd7 	bl	200003dc <psram_access>
2000082e:	2301      	movs	r3, #1
20000830:	2103      	movs	r1, #3
20000832:	7463      	strb	r3, [r4, #17]
20000834:	f884 9000 	strb.w	r9, [r4]
20000838:	b32d      	cbz	r5, 20000886 <cache_write+0xf6>
2000083a:	1e6b      	subs	r3, r5, #1
2000083c:	2b05      	cmp	r3, #5
2000083e:	f240 8085 	bls.w	2000094c <cache_write+0x1bc>
20000842:	f108 0001 	add.w	r0, r8, #1
20000846:	1822      	adds	r2, r4, r0
20000848:	1c73      	adds	r3, r6, #1
2000084a:	1ad3      	subs	r3, r2, r3
2000084c:	2b02      	cmp	r3, #2
2000084e:	f240 80d7 	bls.w	20000a00 <cache_write+0x270>
20000852:	6833      	ldr	r3, [r6, #0]
20000854:	5023      	str	r3, [r4, r0]
20000856:	08ab      	lsrs	r3, r5, #2
20000858:	2b01      	cmp	r3, #1
2000085a:	d01f      	beq.n	2000089c <cache_write+0x10c>
2000085c:	6870      	ldr	r0, [r6, #4]
2000085e:	2b02      	cmp	r3, #2
20000860:	6050      	str	r0, [r2, #4]
20000862:	d005      	beq.n	20000870 <cache_write+0xe0>
20000864:	68b0      	ldr	r0, [r6, #8]
20000866:	2b03      	cmp	r3, #3
20000868:	6090      	str	r0, [r2, #8]
2000086a:	bf1c      	itt	ne
2000086c:	68f3      	ldrne	r3, [r6, #12]
2000086e:	60d3      	strne	r3, [r2, #12]
20000870:	07ab      	lsls	r3, r5, #30
20000872:	d008      	beq.n	20000886 <cache_write+0xf6>
20000874:	f025 0303 	bic.w	r3, r5, #3
20000878:	5cf0      	ldrb	r0, [r6, r3]
2000087a:	18e2      	adds	r2, r4, r3
2000087c:	4442      	add	r2, r8
2000087e:	7050      	strb	r0, [r2, #1]
20000880:	1c5a      	adds	r2, r3, #1
20000882:	4295      	cmp	r5, r2
20000884:	dc10      	bgt.n	200008a8 <cache_write+0x118>
20000886:	7461      	strb	r1, [r4, #17]
20000888:	b002      	add	sp, #8
2000088a:	e8bd 87f0 	ldmia.w	sp!, {r4, r5, r6, r7, r8, r9, sl, pc}
2000088e:	eb03 040c 	add.w	r4, r3, ip
20000892:	f00a 0afb 	and.w	sl, sl, #251	@ 0xfb
20000896:	f04e 0e04 	orr.w	lr, lr, #4
2000089a:	e7b4      	b.n	20000806 <cache_write+0x76>
2000089c:	7932      	ldrb	r2, [r6, #4]
2000089e:	eb04 0308 	add.w	r3, r4, r8
200008a2:	715a      	strb	r2, [r3, #5]
200008a4:	2304      	movs	r3, #4
200008a6:	2205      	movs	r2, #5
200008a8:	5cb0      	ldrb	r0, [r6, r2]
200008aa:	3302      	adds	r3, #2
200008ac:	4422      	add	r2, r4
200008ae:	4442      	add	r2, r8
200008b0:	429d      	cmp	r5, r3
200008b2:	7050      	strb	r0, [r2, #1]
200008b4:	dde7      	ble.n	20000886 <cache_write+0xf6>
200008b6:	5cf2      	ldrb	r2, [r6, r3]
200008b8:	44a0      	add	r8, r4
200008ba:	4498      	add	r8, r3
200008bc:	f888 2001 	strb.w	r2, [r8, #1]
200008c0:	7461      	strb	r1, [r4, #17]
200008c2:	b002      	add	sp, #8
200008c4:	e8bd 87f0 	ldmia.w	sp!, {r4, r5, r6, r7, r8, r9, sl, pc}
200008c8:	7c60      	ldrb	r0, [r4, #17]
200008ca:	f010 0f01 	tst.w	r0, #1
200008ce:	f43f af79 	beq.w	200007c4 <cache_write+0x34>
200008d2:	4a51      	ldr	r2, [pc, #324]	@ (20000a18 <cache_write+0x288>)
200008d4:	f020 0004 	bic.w	r0, r0, #4
200008d8:	6813      	ldr	r3, [r2, #0]
200008da:	f040 0102 	orr.w	r1, r0, #2
200008de:	3301      	adds	r3, #1
200008e0:	6013      	str	r3, [r2, #0]
200008e2:	6853      	ldr	r3, [r2, #4]
200008e4:	7460      	strb	r0, [r4, #17]
200008e6:	f143 0300 	adc.w	r3, r3, #0
200008ea:	6053      	str	r3, [r2, #4]
200008ec:	f894 3023 	ldrb.w	r3, [r4, #35]	@ 0x23
200008f0:	f043 0304 	orr.w	r3, r3, #4
200008f4:	f884 3023 	strb.w	r3, [r4, #35]	@ 0x23
200008f8:	e79e      	b.n	20000838 <cache_write+0xa8>
200008fa:	f01e 0f01 	tst.w	lr, #1
200008fe:	f43f af6a 	beq.w	200007d6 <cache_write+0x46>
20000902:	f10c 0c12 	add.w	ip, ip, #18
20000906:	eb03 040c 	add.w	r4, r3, ip
2000090a:	7c43      	ldrb	r3, [r0, #17]
2000090c:	4a42      	ldr	r2, [pc, #264]	@ (20000a18 <cache_write+0x288>)
2000090e:	f043 0304 	orr.w	r3, r3, #4
20000912:	7443      	strb	r3, [r0, #17]
20000914:	6813      	ldr	r3, [r2, #0]
20000916:	f02e 0e04 	bic.w	lr, lr, #4
2000091a:	3301      	adds	r3, #1
2000091c:	f880 e023 	strb.w	lr, [r0, #35]	@ 0x23
20000920:	6013      	str	r3, [r2, #0]
20000922:	6853      	ldr	r3, [r2, #4]
20000924:	7c61      	ldrb	r1, [r4, #17]
20000926:	f143 0300 	adc.w	r3, r3, #0
2000092a:	6053      	str	r3, [r2, #4]
2000092c:	f041 0102 	orr.w	r1, r1, #2
20000930:	e782      	b.n	20000838 <cache_write+0xa8>
20000932:	4623      	mov	r3, r4
20000934:	f813 cb01 	ldrb.w	ip, [r3], #1
20000938:	0110      	lsls	r0, r2, #4
2000093a:	2110      	movs	r1, #16
2000093c:	2201      	movs	r2, #1
2000093e:	ea40 404c 	orr.w	r0, r0, ip, lsl #17
20000942:	9301      	str	r3, [sp, #4]
20000944:	f7ff fd4a 	bl	200003dc <psram_access>
20000948:	9b01      	ldr	r3, [sp, #4]
2000094a:	e76a      	b.n	20000822 <cache_write+0x92>
2000094c:	7833      	ldrb	r3, [r6, #0]
2000094e:	44a0      	add	r8, r4
20000950:	2d01      	cmp	r5, #1
20000952:	f888 3001 	strb.w	r3, [r8, #1]
20000956:	d096      	beq.n	20000886 <cache_write+0xf6>
20000958:	7873      	ldrb	r3, [r6, #1]
2000095a:	2d02      	cmp	r5, #2
2000095c:	f888 3002 	strb.w	r3, [r8, #2]
20000960:	d091      	beq.n	20000886 <cache_write+0xf6>
20000962:	78b3      	ldrb	r3, [r6, #2]
20000964:	2d03      	cmp	r5, #3
20000966:	f888 3003 	strb.w	r3, [r8, #3]
2000096a:	d08c      	beq.n	20000886 <cache_write+0xf6>
2000096c:	78f3      	ldrb	r3, [r6, #3]
2000096e:	2d04      	cmp	r5, #4
20000970:	f888 3004 	strb.w	r3, [r8, #4]
20000974:	d087      	beq.n	20000886 <cache_write+0xf6>
20000976:	7933      	ldrb	r3, [r6, #4]
20000978:	2d05      	cmp	r5, #5
2000097a:	f888 3005 	strb.w	r3, [r8, #5]
2000097e:	d082      	beq.n	20000886 <cache_write+0xf6>
20000980:	7973      	ldrb	r3, [r6, #5]
20000982:	2d06      	cmp	r5, #6
20000984:	f888 3006 	strb.w	r3, [r8, #6]
20000988:	f43f af7d 	beq.w	20000886 <cache_write+0xf6>
2000098c:	79b3      	ldrb	r3, [r6, #6]
2000098e:	2d07      	cmp	r5, #7
20000990:	f888 3007 	strb.w	r3, [r8, #7]
20000994:	f43f af77 	beq.w	20000886 <cache_write+0xf6>
20000998:	79f3      	ldrb	r3, [r6, #7]
2000099a:	2d08      	cmp	r5, #8
2000099c:	f888 3008 	strb.w	r3, [r8, #8]
200009a0:	f43f af71 	beq.w	20000886 <cache_write+0xf6>
200009a4:	7a33      	ldrb	r3, [r6, #8]
200009a6:	2d09      	cmp	r5, #9
200009a8:	f888 3009 	strb.w	r3, [r8, #9]
200009ac:	f43f af6b 	beq.w	20000886 <cache_write+0xf6>
200009b0:	7a73      	ldrb	r3, [r6, #9]
200009b2:	2d0a      	cmp	r5, #10
200009b4:	f888 300a 	strb.w	r3, [r8, #10]
200009b8:	f43f af65 	beq.w	20000886 <cache_write+0xf6>
200009bc:	7ab3      	ldrb	r3, [r6, #10]
200009be:	2d0b      	cmp	r5, #11
200009c0:	f888 300b 	strb.w	r3, [r8, #11]
200009c4:	f43f af5f 	beq.w	20000886 <cache_write+0xf6>
200009c8:	7af3      	ldrb	r3, [r6, #11]
200009ca:	2d0c      	cmp	r5, #12
200009cc:	f888 300c 	strb.w	r3, [r8, #12]
200009d0:	f43f af59 	beq.w	20000886 <cache_write+0xf6>
200009d4:	7b33      	ldrb	r3, [r6, #12]
200009d6:	2d0d      	cmp	r5, #13
200009d8:	f888 300d 	strb.w	r3, [r8, #13]
200009dc:	f43f af53 	beq.w	20000886 <cache_write+0xf6>
200009e0:	7b73      	ldrb	r3, [r6, #13]
200009e2:	2d0e      	cmp	r5, #14
200009e4:	f888 300e 	strb.w	r3, [r8, #14]
200009e8:	f43f af4d 	beq.w	20000886 <cache_write+0xf6>
200009ec:	7bb3      	ldrb	r3, [r6, #14]
200009ee:	2d0f      	cmp	r5, #15
200009f0:	f888 300f 	strb.w	r3, [r8, #15]
200009f4:	f43f af47 	beq.w	20000886 <cache_write+0xf6>
200009f8:	7bf3      	ldrb	r3, [r6, #15]
200009fa:	f888 3010 	strb.w	r3, [r8, #16]
200009fe:	e742      	b.n	20000886 <cache_write+0xf6>
20000a00:	7833      	ldrb	r3, [r6, #0]
20000a02:	44a0      	add	r8, r4
20000a04:	f888 3001 	strb.w	r3, [r8, #1]
20000a08:	7873      	ldrb	r3, [r6, #1]
20000a0a:	f888 3002 	strb.w	r3, [r8, #2]
20000a0e:	e7a8      	b.n	20000962 <cache_write+0x1d2>
20000a10:	20011c00 	.word	0x20011c00
20000a14:	200107d8 	.word	0x200107d8
20000a18:	200107d0 	.word	0x200107d0

20000a1c <console_init>:
20000a1c:	b510      	push	{r4, lr}
20000a1e:	f000 f901 	bl	20000c24 <terminal_init>
20000a22:	2100      	movs	r1, #0
20000a24:	4608      	mov	r0, r1
20000a26:	f005 fa8f 	bl	20005f48 <tusb_rhport_init>
20000a2a:	f001 ff03 	bl	20002834 <next_striped_spin_lock_num>
20000a2e:	2240      	movs	r2, #64	@ 0x40
20000a30:	4603      	mov	r3, r0
20000a32:	2101      	movs	r1, #1
20000a34:	4806      	ldr	r0, [pc, #24]	@ (20000a50 <console_init+0x34>)
20000a36:	f002 fe6d 	bl	20003714 <queue_init_with_spinlock>
20000a3a:	f001 fefb 	bl	20002834 <next_striped_spin_lock_num>
20000a3e:	e8bd 4010 	ldmia.w	sp!, {r4, lr}
20000a42:	4603      	mov	r3, r0
20000a44:	2240      	movs	r2, #64	@ 0x40
20000a46:	2101      	movs	r1, #1
20000a48:	4802      	ldr	r0, [pc, #8]	@ (20000a54 <console_init+0x38>)
20000a4a:	f002 be63 	b.w	20003714 <queue_init_with_spinlock>
20000a4e:	bf00      	nop
20000a50:	2005a798 	.word	0x2005a798
20000a54:	2005a70c 	.word	0x2005a70c

20000a58 <ser_console_task>:
20000a58:	b570      	push	{r4, r5, r6, lr}
20000a5a:	2600      	movs	r6, #0
20000a5c:	4d2c      	ldr	r5, [pc, #176]	@ (20000b10 <ser_console_task+0xb8>)
20000a5e:	b082      	sub	sp, #8
20000a60:	682b      	ldr	r3, [r5, #0]
20000a62:	f3ef 8110 	mrs	r1, PRIMASK
20000a66:	b672      	cpsid	i
20000a68:	e8d3 0fcf 	ldaexb	r0, [r3]
20000a6c:	2201      	movs	r2, #1
20000a6e:	2800      	cmp	r0, #0
20000a70:	d1fa      	bne.n	20000a68 <ser_console_task+0x10>
20000a72:	e8c3 2f40 	strexb	r0, r2, [r3]
20000a76:	2800      	cmp	r0, #0
20000a78:	d1f6      	bne.n	20000a68 <ser_console_task+0x10>
20000a7a:	f3bf 8f5f 	dmb	sy
20000a7e:	892b      	ldrh	r3, [r5, #8]
20000a80:	896a      	ldrh	r2, [r5, #10]
20000a82:	6828      	ldr	r0, [r5, #0]
20000a84:	1a9c      	subs	r4, r3, r2
20000a86:	d502      	bpl.n	20000a8e <ser_console_task+0x36>
20000a88:	89eb      	ldrh	r3, [r5, #14]
20000a8a:	3301      	adds	r3, #1
20000a8c:	441c      	add	r4, r3
20000a8e:	e8c0 6f8f 	stlb	r6, [r0]
20000a92:	f381 8810 	msr	PRIMASK, r1
20000a96:	b1a4      	cbz	r4, 20000ac2 <ser_console_task+0x6a>
20000a98:	4628      	mov	r0, r5
20000a9a:	f10d 0106 	add.w	r1, sp, #6
20000a9e:	f002 ff03 	bl	200038a8 <queue_remove_blocking>
20000aa2:	2000      	movs	r0, #0
20000aa4:	f004 ffc4 	bl	20005a30 <tud_cdc_n_connected>
20000aa8:	2800      	cmp	r0, #0
20000aaa:	d0d9      	beq.n	20000a60 <ser_console_task+0x8>
20000aac:	f89d 3006 	ldrb.w	r3, [sp, #6]
20000ab0:	2201      	movs	r2, #1
20000ab2:	f10d 0107 	add.w	r1, sp, #7
20000ab6:	2000      	movs	r0, #0
20000ab8:	f88d 3007 	strb.w	r3, [sp, #7]
20000abc:	f005 f86e 	bl	20005b9c <tud_cdc_n_write>
20000ac0:	e7ce      	b.n	20000a60 <ser_console_task+0x8>
20000ac2:	4620      	mov	r0, r4
20000ac4:	f004 ffb4 	bl	20005a30 <tud_cdc_n_connected>
20000ac8:	b928      	cbnz	r0, 20000ad6 <ser_console_task+0x7e>
20000aca:	2000      	movs	r0, #0
20000acc:	f004 ffb0 	bl	20005a30 <tud_cdc_n_connected>
20000ad0:	b9b8      	cbnz	r0, 20000b02 <ser_console_task+0xaa>
20000ad2:	b002      	add	sp, #8
20000ad4:	bd70      	pop	{r4, r5, r6, pc}
20000ad6:	4620      	mov	r0, r4
20000ad8:	f004 ffc0 	bl	20005a5c <tud_cdc_n_available>
20000adc:	2800      	cmp	r0, #0
20000ade:	d0f4      	beq.n	20000aca <ser_console_task+0x72>
20000ae0:	2240      	movs	r2, #64	@ 0x40
20000ae2:	4620      	mov	r0, r4
20000ae4:	490b      	ldr	r1, [pc, #44]	@ (20000b14 <ser_console_task+0xbc>)
20000ae6:	f004 ffc5 	bl	20005a74 <tud_cdc_n_read>
20000aea:	2800      	cmp	r0, #0
20000aec:	d0ed      	beq.n	20000aca <ser_console_task+0x72>
20000aee:	4c09      	ldr	r4, [pc, #36]	@ (20000b14 <ser_console_task+0xbc>)
20000af0:	1825      	adds	r5, r4, r0
20000af2:	4621      	mov	r1, r4
20000af4:	4808      	ldr	r0, [pc, #32]	@ (20000b18 <ser_console_task+0xc0>)
20000af6:	3401      	adds	r4, #1
20000af8:	f002 fe1e 	bl	20003738 <queue_try_add>
20000afc:	42ac      	cmp	r4, r5
20000afe:	d1f8      	bne.n	20000af2 <ser_console_task+0x9a>
20000b00:	e7e3      	b.n	20000aca <ser_console_task+0x72>
20000b02:	2000      	movs	r0, #0
20000b04:	b002      	add	sp, #8
20000b06:	e8bd 4070 	ldmia.w	sp!, {r4, r5, r6, lr}
20000b0a:	f004 bfff 	b.w	20005b0c <tud_cdc_n_write_flush>
20000b0e:	bf00      	nop
20000b10:	2005a798 	.word	0x2005a798
20000b14:	20059c08 	.word	0x20059c08
20000b18:	2005a70c 	.word	0x2005a70c

20000b1c <console_task>:
20000b1c:	b508      	push	{r3, lr}
20000b1e:	2100      	movs	r1, #0
20000b20:	f04f 30ff 	mov.w	r0, #4294967295
20000b24:	f004 f9ba 	bl	20004e9c <tud_task_ext>
20000b28:	f7ff ff96 	bl	20000a58 <ser_console_task>
20000b2c:	e8bd 4008 	ldmia.w	sp!, {r3, lr}
20000b30:	f000 ba1a 	b.w	20000f68 <terminal_task>

20000b34 <console_putc>:
20000b34:	4603      	mov	r3, r0
20000b36:	b500      	push	{lr}
20000b38:	b083      	sub	sp, #12
20000b3a:	f10d 0107 	add.w	r1, sp, #7
20000b3e:	4806      	ldr	r0, [pc, #24]	@ (20000b58 <console_putc+0x24>)
20000b40:	f88d 3007 	strb.w	r3, [sp, #7]
20000b44:	f002 fe72 	bl	2000382c <queue_add_blocking>
20000b48:	4804      	ldr	r0, [pc, #16]	@ (20000b5c <console_putc+0x28>)
20000b4a:	f10d 0107 	add.w	r1, sp, #7
20000b4e:	f002 fe6d 	bl	2000382c <queue_add_blocking>
20000b52:	b003      	add	sp, #12
20000b54:	f85d fb04 	ldr.w	pc, [sp], #4
20000b58:	2005a798 	.word	0x2005a798
20000b5c:	2005ae50 	.word	0x2005ae50

20000b60 <console_puts>:
20000b60:	b530      	push	{r4, r5, lr}
20000b62:	b083      	sub	sp, #12
20000b64:	4604      	mov	r4, r0
20000b66:	f008 fe31 	bl	200097cc <strlen>
20000b6a:	f010 00ff 	ands.w	r0, r0, #255	@ 0xff
20000b6e:	d011      	beq.n	20000b94 <console_puts+0x34>
20000b70:	3c01      	subs	r4, #1
20000b72:	1825      	adds	r5, r4, r0
20000b74:	f814 3f01 	ldrb.w	r3, [r4, #1]!
20000b78:	4807      	ldr	r0, [pc, #28]	@ (20000b98 <console_puts+0x38>)
20000b7a:	f10d 0107 	add.w	r1, sp, #7
20000b7e:	f88d 3007 	strb.w	r3, [sp, #7]
20000b82:	f002 fe53 	bl	2000382c <queue_add_blocking>
20000b86:	4805      	ldr	r0, [pc, #20]	@ (20000b9c <console_puts+0x3c>)
20000b88:	f10d 0107 	add.w	r1, sp, #7
20000b8c:	f002 fe4e 	bl	2000382c <queue_add_blocking>
20000b90:	42ac      	cmp	r4, r5
20000b92:	d1ef      	bne.n	20000b74 <console_puts+0x14>
20000b94:	b003      	add	sp, #12
20000b96:	bd30      	pop	{r4, r5, pc}
20000b98:	2005a798 	.word	0x2005a798
20000b9c:	2005ae50 	.word	0x2005ae50

20000ba0 <console_printf>:
20000ba0:	b40f      	push	{r0, r1, r2, r3}
20000ba2:	b530      	push	{r4, r5, lr}
20000ba4:	b083      	sub	sp, #12
20000ba6:	aa06      	add	r2, sp, #24
20000ba8:	f852 1b04 	ldr.w	r1, [r2], #4
20000bac:	480f      	ldr	r0, [pc, #60]	@ (20000bec <console_printf+0x4c>)
20000bae:	9201      	str	r2, [sp, #4]
20000bb0:	f008 fc4a 	bl	20009448 <vsprintf>
20000bb4:	480d      	ldr	r0, [pc, #52]	@ (20000bec <console_printf+0x4c>)
20000bb6:	f008 fe09 	bl	200097cc <strlen>
20000bba:	b188      	cbz	r0, 20000be0 <console_printf+0x40>
20000bbc:	4c0b      	ldr	r4, [pc, #44]	@ (20000bec <console_printf+0x4c>)
20000bbe:	1825      	adds	r5, r4, r0
20000bc0:	f814 3b01 	ldrb.w	r3, [r4], #1
20000bc4:	480a      	ldr	r0, [pc, #40]	@ (20000bf0 <console_printf+0x50>)
20000bc6:	f10d 0103 	add.w	r1, sp, #3
20000bca:	f88d 3003 	strb.w	r3, [sp, #3]
20000bce:	f002 fe2d 	bl	2000382c <queue_add_blocking>
20000bd2:	4808      	ldr	r0, [pc, #32]	@ (20000bf4 <console_printf+0x54>)
20000bd4:	f10d 0103 	add.w	r1, sp, #3
20000bd8:	f002 fe28 	bl	2000382c <queue_add_blocking>
20000bdc:	42ac      	cmp	r4, r5
20000bde:	d1ef      	bne.n	20000bc0 <console_printf+0x20>
20000be0:	b003      	add	sp, #12
20000be2:	e8bd 4030 	ldmia.w	sp!, {r4, r5, lr}
20000be6:	b004      	add	sp, #16
20000be8:	4770      	bx	lr
20000bea:	bf00      	nop
20000bec:	2005ade8 	.word	0x2005ade8
20000bf0:	2005a798 	.word	0x2005a798
20000bf4:	2005ae50 	.word	0x2005ae50

20000bf8 <console_panic>:
20000bf8:	b40f      	push	{r0, r1, r2, r3}
20000bfa:	b500      	push	{lr}
20000bfc:	b083      	sub	sp, #12
20000bfe:	aa04      	add	r2, sp, #16
20000c00:	f852 1b04 	ldr.w	r1, [r2], #4
20000c04:	4805      	ldr	r0, [pc, #20]	@ (20000c1c <console_panic+0x24>)
20000c06:	9201      	str	r2, [sp, #4]
20000c08:	f008 fc1e 	bl	20009448 <vsprintf>
20000c0c:	4804      	ldr	r0, [pc, #16]	@ (20000c20 <console_panic+0x28>)
20000c0e:	f7ff ffa7 	bl	20000b60 <console_puts>
20000c12:	4802      	ldr	r0, [pc, #8]	@ (20000c1c <console_panic+0x24>)
20000c14:	f7ff ffa4 	bl	20000b60 <console_puts>
20000c18:	e7fe      	b.n	20000c18 <console_panic+0x20>
20000c1a:	bf00      	nop
20000c1c:	2005ade8 	.word	0x2005ade8
20000c20:	2000e858 	.word	0x2000e858

20000c24 <terminal_init>:
20000c24:	b510      	push	{r4, lr}
20000c26:	211b      	movs	r1, #27
20000c28:	201a      	movs	r0, #26
20000c2a:	f007 faa7 	bl	2000817c <PS2_init>
20000c2e:	2212      	movs	r2, #18
20000c30:	2111      	movs	r1, #17
20000c32:	2010      	movs	r0, #16
20000c34:	f006 fec4 	bl	200079c0 <VGA_initDisplay>
20000c38:	4807      	ldr	r0, [pc, #28]	@ (20000c58 <terminal_init+0x34>)
20000c3a:	f006 fe51 	bl	200078e0 <VGA_puts>
20000c3e:	4807      	ldr	r0, [pc, #28]	@ (20000c5c <terminal_init+0x38>)
20000c40:	f006 fe4e 	bl	200078e0 <VGA_puts>
20000c44:	f001 fdf6 	bl	20002834 <next_striped_spin_lock_num>
20000c48:	e8bd 4010 	ldmia.w	sp!, {r4, lr}
20000c4c:	4603      	mov	r3, r0
20000c4e:	2240      	movs	r2, #64	@ 0x40
20000c50:	2101      	movs	r1, #1
20000c52:	4803      	ldr	r0, [pc, #12]	@ (20000c60 <terminal_init+0x3c>)
20000c54:	f002 bd5e 	b.w	20003714 <queue_init_with_spinlock>
20000c58:	2000e860 	.word	0x2000e860
20000c5c:	2000e87c 	.word	0x2000e87c
20000c60:	2005ae50 	.word	0x2005ae50

20000c64 <runCSI>:
20000c64:	284b      	cmp	r0, #75	@ 0x4b
20000c66:	b5f8      	push	{r3, r4, r5, r6, r7, lr}
20000c68:	d04f      	beq.n	20000d0a <runCSI+0xa6>
20000c6a:	d833      	bhi.n	20000cd4 <runCSI+0x70>
20000c6c:	2848      	cmp	r0, #72	@ 0x48
20000c6e:	d061      	beq.n	20000d34 <runCSI+0xd0>
20000c70:	284a      	cmp	r0, #74	@ 0x4a
20000c72:	d12e      	bne.n	20000cd2 <runCSI+0x6e>
20000c74:	2a00      	cmp	r2, #0
20000c76:	d166      	bne.n	20000d46 <runCSI+0xe2>
20000c78:	4b3c      	ldr	r3, [pc, #240]	@ (20000d6c <runCSI+0x108>)
20000c7a:	493d      	ldr	r1, [pc, #244]	@ (20000d70 <runCSI+0x10c>)
20000c7c:	681b      	ldr	r3, [r3, #0]
20000c7e:	680f      	ldr	r7, [r1, #0]
20000c80:	2b34      	cmp	r3, #52	@ 0x34
20000c82:	dc0b      	bgt.n	20000c9c <runCSI+0x38>
20000c84:	2435      	movs	r4, #53	@ 0x35
20000c86:	fb07 f404 	mul.w	r4, r7, r4
20000c8a:	483a      	ldr	r0, [pc, #232]	@ (20000d74 <runCSI+0x110>)
20000c8c:	493a      	ldr	r1, [pc, #232]	@ (20000d78 <runCSI+0x114>)
20000c8e:	4420      	add	r0, r4
20000c90:	4421      	add	r1, r4
20000c92:	54c2      	strb	r2, [r0, r3]
20000c94:	54ca      	strb	r2, [r1, r3]
20000c96:	3301      	adds	r3, #1
20000c98:	2b35      	cmp	r3, #53	@ 0x35
20000c9a:	d1fa      	bne.n	20000c92 <runCSI+0x2e>
20000c9c:	2f1c      	cmp	r7, #28
20000c9e:	d818      	bhi.n	20000cd2 <runCSI+0x6e>
20000ca0:	2435      	movs	r4, #53	@ 0x35
20000ca2:	fb07 4404 	mla	r4, r7, r4, r4
20000ca6:	4d33      	ldr	r5, [pc, #204]	@ (20000d74 <runCSI+0x110>)
20000ca8:	4b33      	ldr	r3, [pc, #204]	@ (20000d78 <runCSI+0x114>)
20000caa:	4425      	add	r5, r4
20000cac:	1c7e      	adds	r6, r7, #1
20000cae:	441c      	add	r4, r3
20000cb0:	4628      	mov	r0, r5
20000cb2:	2235      	movs	r2, #53	@ 0x35
20000cb4:	2100      	movs	r1, #0
20000cb6:	f007 f813 	bl	20007ce0 <dma_memset>
20000cba:	3601      	adds	r6, #1
20000cbc:	4620      	mov	r0, r4
20000cbe:	2235      	movs	r2, #53	@ 0x35
20000cc0:	2100      	movs	r1, #0
20000cc2:	f007 f80d 	bl	20007ce0 <dma_memset>
20000cc6:	2e1e      	cmp	r6, #30
20000cc8:	f105 0535 	add.w	r5, r5, #53	@ 0x35
20000ccc:	f104 0435 	add.w	r4, r4, #53	@ 0x35
20000cd0:	d1ee      	bne.n	20000cb0 <runCSI+0x4c>
20000cd2:	bdf8      	pop	{r3, r4, r5, r6, r7, pc}
20000cd4:	286d      	cmp	r0, #109	@ 0x6d
20000cd6:	d1fc      	bne.n	20000cd2 <runCSI+0x6e>
20000cd8:	2a00      	cmp	r2, #0
20000cda:	d03b      	beq.n	20000d54 <runCSI+0xf0>
20000cdc:	3904      	subs	r1, #4
20000cde:	4c27      	ldr	r4, [pc, #156]	@ (20000d7c <runCSI+0x118>)
20000ce0:	4e27      	ldr	r6, [pc, #156]	@ (20000d80 <runCSI+0x11c>)
20000ce2:	4d28      	ldr	r5, [pc, #160]	@ (20000d84 <runCSI+0x120>)
20000ce4:	eb01 0282 	add.w	r2, r1, r2, lsl #2
20000ce8:	e003      	b.n	20000cf2 <runCSI+0x8e>
20000cea:	5ce3      	ldrb	r3, [r4, r3]
20000cec:	702b      	strb	r3, [r5, #0]
20000cee:	4291      	cmp	r1, r2
20000cf0:	d0ef      	beq.n	20000cd2 <runCSI+0x6e>
20000cf2:	f851 3f04 	ldr.w	r3, [r1, #4]!
20000cf6:	f1a3 0028 	sub.w	r0, r3, #40	@ 0x28
20000cfa:	3b1e      	subs	r3, #30
20000cfc:	2b07      	cmp	r3, #7
20000cfe:	d9f4      	bls.n	20000cea <runCSI+0x86>
20000d00:	2807      	cmp	r0, #7
20000d02:	bf9c      	itt	ls
20000d04:	5c23      	ldrbls	r3, [r4, r0]
20000d06:	7033      	strbls	r3, [r6, #0]
20000d08:	e7f1      	b.n	20000cee <runCSI+0x8a>
20000d0a:	2a00      	cmp	r2, #0
20000d0c:	d1e1      	bne.n	20000cd2 <runCSI+0x6e>
20000d0e:	4b17      	ldr	r3, [pc, #92]	@ (20000d6c <runCSI+0x108>)
20000d10:	681b      	ldr	r3, [r3, #0]
20000d12:	2b34      	cmp	r3, #52	@ 0x34
20000d14:	dcdd      	bgt.n	20000cd2 <runCSI+0x6e>
20000d16:	2535      	movs	r5, #53	@ 0x35
20000d18:	4915      	ldr	r1, [pc, #84]	@ (20000d70 <runCSI+0x10c>)
20000d1a:	4816      	ldr	r0, [pc, #88]	@ (20000d74 <runCSI+0x110>)
20000d1c:	680c      	ldr	r4, [r1, #0]
20000d1e:	4916      	ldr	r1, [pc, #88]	@ (20000d78 <runCSI+0x114>)
20000d20:	fb05 f404 	mul.w	r4, r5, r4
20000d24:	4420      	add	r0, r4
20000d26:	4421      	add	r1, r4
20000d28:	54c2      	strb	r2, [r0, r3]
20000d2a:	54ca      	strb	r2, [r1, r3]
20000d2c:	3301      	adds	r3, #1
20000d2e:	2b35      	cmp	r3, #53	@ 0x35
20000d30:	d1fa      	bne.n	20000d28 <runCSI+0xc4>
20000d32:	bdf8      	pop	{r3, r4, r5, r6, r7, pc}
20000d34:	b1a2      	cbz	r2, 20000d60 <runCSI+0xfc>
20000d36:	2a02      	cmp	r2, #2
20000d38:	d1cb      	bne.n	20000cd2 <runCSI+0x6e>
20000d3a:	e9d1 1000 	ldrd	r1, r0, [r1]
20000d3e:	e8bd 40f8 	ldmia.w	sp!, {r3, r4, r5, r6, r7, lr}
20000d42:	f006 bcaf 	b.w	200076a4 <VGA_cursor>
20000d46:	680b      	ldr	r3, [r1, #0]
20000d48:	2b02      	cmp	r3, #2
20000d4a:	d1c2      	bne.n	20000cd2 <runCSI+0x6e>
20000d4c:	e8bd 40f8 	ldmia.w	sp!, {r3, r4, r5, r6, r7, lr}
20000d50:	f006 bcb2 	b.w	200076b8 <VGA_clear>
20000d54:	2007      	movs	r0, #7
20000d56:	490b      	ldr	r1, [pc, #44]	@ (20000d84 <runCSI+0x120>)
20000d58:	4b09      	ldr	r3, [pc, #36]	@ (20000d80 <runCSI+0x11c>)
20000d5a:	7008      	strb	r0, [r1, #0]
20000d5c:	701a      	strb	r2, [r3, #0]
20000d5e:	bdf8      	pop	{r3, r4, r5, r6, r7, pc}
20000d60:	4611      	mov	r1, r2
20000d62:	e8bd 40f8 	ldmia.w	sp!, {r3, r4, r5, r6, r7, lr}
20000d66:	4610      	mov	r0, r2
20000d68:	f006 bc9c 	b.w	200076a4 <VGA_cursor>
20000d6c:	20059c80 	.word	0x20059c80
20000d70:	20059c84 	.word	0x20059c84
20000d74:	2005a7b0 	.word	0x2005a7b0
20000d78:	2001138c 	.word	0x2001138c
20000d7c:	2000ecfc 	.word	0x2000ecfc
20000d80:	2005afc9 	.word	0x2005afc9
20000d84:	2000f949 	.word	0x2000f949

20000d88 <parseCSI>:
20000d88:	b5f0      	push	{r4, r5, r6, r7, lr}
20000d8a:	b09b      	sub	sp, #108	@ 0x6c
20000d8c:	4604      	mov	r4, r0
20000d8e:	f008 fd1d 	bl	200097cc <strlen>
20000d92:	1823      	adds	r3, r4, r0
20000d94:	2801      	cmp	r0, #1
20000d96:	f813 6c01 	ldrb.w	r6, [r3, #-1]
20000d9a:	d808      	bhi.n	20000dae <parseCSI+0x26>
20000d9c:	2400      	movs	r4, #0
20000d9e:	af01      	add	r7, sp, #4
20000da0:	4622      	mov	r2, r4
20000da2:	4639      	mov	r1, r7
20000da4:	4630      	mov	r0, r6
20000da6:	f7ff ff5d 	bl	20000c64 <runCSI>
20000daa:	b01b      	add	sp, #108	@ 0x6c
20000dac:	bdf0      	pop	{r4, r5, r6, r7, pc}
20000dae:	4620      	mov	r0, r4
20000db0:	4914      	ldr	r1, [pc, #80]	@ (20000e04 <parseCSI+0x7c>)
20000db2:	f008 fc31 	bl	20009618 <strtok>
20000db6:	2800      	cmp	r0, #0
20000db8:	d0f0      	beq.n	20000d9c <parseCSI+0x14>
20000dba:	af01      	add	r7, sp, #4
20000dbc:	463d      	mov	r5, r7
20000dbe:	2400      	movs	r4, #0
20000dc0:	7803      	ldrb	r3, [r0, #0]
20000dc2:	3401      	adds	r4, #1
20000dc4:	b95b      	cbnz	r3, 20000dde <parseCSI+0x56>
20000dc6:	4618      	mov	r0, r3
20000dc8:	490e      	ldr	r1, [pc, #56]	@ (20000e04 <parseCSI+0x7c>)
20000dca:	f845 3b04 	str.w	r3, [r5], #4
20000dce:	f008 fc23 	bl	20009618 <strtok>
20000dd2:	2800      	cmp	r0, #0
20000dd4:	d0e4      	beq.n	20000da0 <parseCSI+0x18>
20000dd6:	7803      	ldrb	r3, [r0, #0]
20000dd8:	3401      	adds	r4, #1
20000dda:	2b00      	cmp	r3, #0
20000ddc:	d0f3      	beq.n	20000dc6 <parseCSI+0x3e>
20000dde:	f007 fd73 	bl	200088c8 <atoi>
20000de2:	4603      	mov	r3, r0
20000de4:	4907      	ldr	r1, [pc, #28]	@ (20000e04 <parseCSI+0x7c>)
20000de6:	2000      	movs	r0, #0
20000de8:	f845 3b04 	str.w	r3, [r5], #4
20000dec:	f008 fc14 	bl	20009618 <strtok>
20000df0:	2800      	cmp	r0, #0
20000df2:	d1e5      	bne.n	20000dc0 <parseCSI+0x38>
20000df4:	4622      	mov	r2, r4
20000df6:	4639      	mov	r1, r7
20000df8:	4630      	mov	r0, r6
20000dfa:	f7ff ff33 	bl	20000c64 <runCSI>
20000dfe:	b01b      	add	sp, #108	@ 0x6c
20000e00:	bdf0      	pop	{r4, r5, r6, r7, pc}
20000e02:	bf00      	nop
20000e04:	2000e888 	.word	0x2000e888

20000e08 <vt100Emu>:
20000e08:	e92d 41f0 	stmdb	sp!, {r4, r5, r6, r7, r8, lr}
20000e0c:	4a30      	ldr	r2, [pc, #192]	@ (20000ed0 <vt100Emu+0xc8>)
20000e0e:	b09a      	sub	sp, #104	@ 0x68
20000e10:	6813      	ldr	r3, [r2, #0]
20000e12:	f3ef 8010 	mrs	r0, PRIMASK
20000e16:	b672      	cpsid	i
20000e18:	e8d3 4fcf 	ldaexb	r4, [r3]
20000e1c:	2101      	movs	r1, #1
20000e1e:	2c00      	cmp	r4, #0
20000e20:	d1fa      	bne.n	20000e18 <vt100Emu+0x10>
20000e22:	e8c3 1f44 	strexb	r4, r1, [r3]
20000e26:	2c00      	cmp	r4, #0
20000e28:	d1f6      	bne.n	20000e18 <vt100Emu+0x10>
20000e2a:	f3bf 8f5f 	dmb	sy
20000e2e:	8913      	ldrh	r3, [r2, #8]
20000e30:	8951      	ldrh	r1, [r2, #10]
20000e32:	1a5b      	subs	r3, r3, r1
20000e34:	d502      	bpl.n	20000e3c <vt100Emu+0x34>
20000e36:	89d1      	ldrh	r1, [r2, #14]
20000e38:	3101      	adds	r1, #1
20000e3a:	440b      	add	r3, r1
20000e3c:	2400      	movs	r4, #0
20000e3e:	6812      	ldr	r2, [r2, #0]
20000e40:	e8c2 4f8f 	stlb	r4, [r2]
20000e44:	f380 8810 	msr	PRIMASK, r0
20000e48:	b913      	cbnz	r3, 20000e50 <vt100Emu+0x48>
20000e4a:	b01a      	add	sp, #104	@ 0x68
20000e4c:	e8bd 81f0 	ldmia.w	sp!, {r4, r5, r6, r7, r8, pc}
20000e50:	481f      	ldr	r0, [pc, #124]	@ (20000ed0 <vt100Emu+0xc8>)
20000e52:	a901      	add	r1, sp, #4
20000e54:	f002 fd28 	bl	200038a8 <queue_remove_blocking>
20000e58:	f89d 0004 	ldrb.w	r0, [sp, #4]
20000e5c:	281b      	cmp	r0, #27
20000e5e:	d004      	beq.n	20000e6a <vt100Emu+0x62>
20000e60:	b01a      	add	sp, #104	@ 0x68
20000e62:	e8bd 41f0 	ldmia.w	sp!, {r4, r5, r6, r7, r8, lr}
20000e66:	f006 bcdd 	b.w	20007824 <VGA_putc>
20000e6a:	4819      	ldr	r0, [pc, #100]	@ (20000ed0 <vt100Emu+0xc8>)
20000e6c:	a901      	add	r1, sp, #4
20000e6e:	f002 fd1b 	bl	200038a8 <queue_remove_blocking>
20000e72:	f89d 3004 	ldrb.w	r3, [sp, #4]
20000e76:	2b5b      	cmp	r3, #91	@ 0x5b
20000e78:	d1e7      	bne.n	20000e4a <vt100Emu+0x42>
20000e7a:	f8df 8058 	ldr.w	r8, [pc, #88]	@ 20000ed4 <vt100Emu+0xcc>
20000e7e:	af01      	add	r7, sp, #4
20000e80:	4813      	ldr	r0, [pc, #76]	@ (20000ed0 <vt100Emu+0xc8>)
20000e82:	f10d 0103 	add.w	r1, sp, #3
20000e86:	f002 fd55 	bl	20003934 <queue_peek_blocking>
20000e8a:	f89d 5003 	ldrb.w	r5, [sp, #3]
20000e8e:	1c6e      	adds	r6, r5, #1
20000e90:	f818 3006 	ldrb.w	r3, [r8, r6]
20000e94:	079a      	lsls	r2, r3, #30
20000e96:	d013      	beq.n	20000ec0 <vt100Emu+0xb8>
20000e98:	f013 0304 	ands.w	r3, r3, #4
20000e9c:	f807 5b01 	strb.w	r5, [r7], #1
20000ea0:	f104 0401 	add.w	r4, r4, #1
20000ea4:	d1ec      	bne.n	20000e80 <vt100Emu+0x78>
20000ea6:	2d3b      	cmp	r5, #59	@ 0x3b
20000ea8:	d0ea      	beq.n	20000e80 <vt100Emu+0x78>
20000eaa:	446c      	add	r4, sp
20000eac:	4808      	ldr	r0, [pc, #32]	@ (20000ed0 <vt100Emu+0xc8>)
20000eae:	f10d 0103 	add.w	r1, sp, #3
20000eb2:	7123      	strb	r3, [r4, #4]
20000eb4:	f002 fcf8 	bl	200038a8 <queue_remove_blocking>
20000eb8:	a801      	add	r0, sp, #4
20000eba:	f7ff ff65 	bl	20000d88 <parseCSI>
20000ebe:	e7c4      	b.n	20000e4a <vt100Emu+0x42>
20000ec0:	4803      	ldr	r0, [pc, #12]	@ (20000ed0 <vt100Emu+0xc8>)
20000ec2:	f10d 0103 	add.w	r1, sp, #3
20000ec6:	f002 fcef 	bl	200038a8 <queue_remove_blocking>
20000eca:	f818 3006 	ldrb.w	r3, [r8, r6]
20000ece:	e7e3      	b.n	20000e98 <vt100Emu+0x90>
20000ed0:	2005ae50 	.word	0x2005ae50
20000ed4:	2000f684 	.word	0x2000f684

20000ed8 <handlePs2Keyboard>:
20000ed8:	b500      	push	{lr}
20000eda:	b083      	sub	sp, #12
20000edc:	f007 f90c 	bl	200080f8 <PS2_keyAvailable>
20000ee0:	b308      	cbz	r0, 20000f26 <handlePs2Keyboard+0x4e>
20000ee2:	f007 f91f 	bl	20008124 <PS2_readKey>
20000ee6:	f1a0 0208 	sub.w	r2, r0, #8
20000eea:	4603      	mov	r3, r0
20000eec:	f8ad 0006 	strh.w	r0, [sp, #6]
20000ef0:	2a0d      	cmp	r2, #13
20000ef2:	d808      	bhi.n	20000f06 <handlePs2Keyboard+0x2e>
20000ef4:	e8df f002 	tbb	[pc, r2]
20000ef8:	2b2d072f 	.word	0x2b2d072f
20000efc:	07070707 	.word	0x07070707
20000f00:	07070707 	.word	0x07070707
20000f04:	1a07      	.short	0x1a07
20000f06:	f410 7f80 	tst.w	r0, #256	@ 0x100
20000f0a:	f10d 0106 	add.w	r1, sp, #6
20000f0e:	4813      	ldr	r0, [pc, #76]	@ (20000f5c <handlePs2Keyboard+0x84>)
20000f10:	d003      	beq.n	20000f1a <handlePs2Keyboard+0x42>
20000f12:	b2db      	uxtb	r3, r3
20000f14:	3b60      	subs	r3, #96	@ 0x60
20000f16:	f8ad 3006 	strh.w	r3, [sp, #6]
20000f1a:	f002 fc0d 	bl	20003738 <queue_try_add>
20000f1e:	f007 f8eb 	bl	200080f8 <PS2_keyAvailable>
20000f22:	2800      	cmp	r0, #0
20000f24:	d1dd      	bne.n	20000ee2 <handlePs2Keyboard+0xa>
20000f26:	b003      	add	sp, #12
20000f28:	f85d fb04 	ldr.w	pc, [sp], #4
20000f2c:	2343      	movs	r3, #67	@ 0x43
20000f2e:	490c      	ldr	r1, [pc, #48]	@ (20000f60 <handlePs2Keyboard+0x88>)
20000f30:	480a      	ldr	r0, [pc, #40]	@ (20000f5c <handlePs2Keyboard+0x84>)
20000f32:	f88d 3005 	strb.w	r3, [sp, #5]
20000f36:	f002 fbff 	bl	20003738 <queue_try_add>
20000f3a:	490a      	ldr	r1, [pc, #40]	@ (20000f64 <handlePs2Keyboard+0x8c>)
20000f3c:	4807      	ldr	r0, [pc, #28]	@ (20000f5c <handlePs2Keyboard+0x84>)
20000f3e:	f002 fbfb 	bl	20003738 <queue_try_add>
20000f42:	f10d 0105 	add.w	r1, sp, #5
20000f46:	4805      	ldr	r0, [pc, #20]	@ (20000f5c <handlePs2Keyboard+0x84>)
20000f48:	f002 fbf6 	bl	20003738 <queue_try_add>
20000f4c:	e7c6      	b.n	20000edc <handlePs2Keyboard+0x4>
20000f4e:	2341      	movs	r3, #65	@ 0x41
20000f50:	e7ed      	b.n	20000f2e <handlePs2Keyboard+0x56>
20000f52:	2342      	movs	r3, #66	@ 0x42
20000f54:	e7eb      	b.n	20000f2e <handlePs2Keyboard+0x56>
20000f56:	2344      	movs	r3, #68	@ 0x44
20000f58:	e7e9      	b.n	20000f2e <handlePs2Keyboard+0x56>
20000f5a:	bf00      	nop
20000f5c:	2005a70c 	.word	0x2005a70c
20000f60:	2000ecf8 	.word	0x2000ecf8
20000f64:	2000ecf9 	.word	0x2000ecf9

20000f68 <terminal_task>:
20000f68:	e92d 43f8 	stmdb	sp!, {r3, r4, r5, r6, r7, r8, r9, lr}
20000f6c:	f7ff ff4c 	bl	20000e08 <vt100Emu>
20000f70:	f7ff ffb2 	bl	20000ed8 <handlePs2Keyboard>
20000f74:	f002 fbb2 	bl	200036dc <time_us_64>
20000f78:	b391      	cbz	r1, 20000fe0 <terminal_task+0x78>
20000f7a:	f44f 727a 	mov.w	r2, #1000	@ 0x3e8
20000f7e:	2300      	movs	r3, #0
20000f80:	f007 fae2 	bl	20008548 <__aeabi_uldivmod>
20000f84:	4a22      	ldr	r2, [pc, #136]	@ (20001010 <terminal_task+0xa8>)
20000f86:	6813      	ldr	r3, [r2, #0]
20000f88:	3396      	adds	r3, #150	@ 0x96
20000f8a:	4283      	cmp	r3, r0
20000f8c:	d226      	bcs.n	20000fdc <terminal_task+0x74>
20000f8e:	4b21      	ldr	r3, [pc, #132]	@ (20001014 <terminal_task+0xac>)
20000f90:	4e21      	ldr	r6, [pc, #132]	@ (20001018 <terminal_task+0xb0>)
20000f92:	6819      	ldr	r1, [r3, #0]
20000f94:	f8d6 c000 	ldr.w	ip, [r6]
20000f98:	4b20      	ldr	r3, [pc, #128]	@ (2000101c <terminal_task+0xb4>)
20000f9a:	f8df 908c 	ldr.w	r9, [pc, #140]	@ 20001028 <terminal_task+0xc0>
20000f9e:	4561      	cmp	r1, ip
20000fa0:	681c      	ldr	r4, [r3, #0]
20000fa2:	4f1f      	ldr	r7, [pc, #124]	@ (20001020 <terminal_task+0xb8>)
20000fa4:	f899 3000 	ldrb.w	r3, [r9]
20000fa8:	d01f      	beq.n	20000fea <terminal_task+0x82>
20000faa:	bb13      	cbnz	r3, 20000ff2 <terminal_task+0x8a>
20000fac:	f04f 0835 	mov.w	r8, #53	@ 0x35
20000fb0:	f8df e078 	ldr.w	lr, [pc, #120]	@ 2000102c <terminal_task+0xc4>
20000fb4:	683d      	ldr	r5, [r7, #0]
20000fb6:	fb08 e805 	mla	r8, r8, r5, lr
20000fba:	f808 300c 	strb.w	r3, [r8, ip]
20000fbe:	f04f 0c35 	mov.w	ip, #53	@ 0x35
20000fc2:	fb0c ee04 	mla	lr, ip, r4, lr
20000fc6:	f04f 0c00 	mov.w	ip, #0
20000fca:	f80e c001 	strb.w	ip, [lr, r1]
20000fce:	f083 0301 	eor.w	r3, r3, #1
20000fd2:	6031      	str	r1, [r6, #0]
20000fd4:	603c      	str	r4, [r7, #0]
20000fd6:	f889 3000 	strb.w	r3, [r9]
20000fda:	6010      	str	r0, [r2, #0]
20000fdc:	e8bd 83f8 	ldmia.w	sp!, {r3, r4, r5, r6, r7, r8, r9, pc}
20000fe0:	4a10      	ldr	r2, [pc, #64]	@ (20001024 <terminal_task+0xbc>)
20000fe2:	fba2 2000 	umull	r2, r0, r2, r0
20000fe6:	0980      	lsrs	r0, r0, #6
20000fe8:	e7cc      	b.n	20000f84 <terminal_task+0x1c>
20000fea:	683d      	ldr	r5, [r7, #0]
20000fec:	42a5      	cmp	r5, r4
20000fee:	d1dc      	bne.n	20000faa <terminal_task+0x42>
20000ff0:	b153      	cbz	r3, 20001008 <terminal_task+0xa0>
20000ff2:	f04f 0835 	mov.w	r8, #53	@ 0x35
20000ff6:	f04f 0e02 	mov.w	lr, #2
20000ffa:	f8df c030 	ldr.w	ip, [pc, #48]	@ 2000102c <terminal_task+0xc4>
20000ffe:	fb08 cc04 	mla	ip, r8, r4, ip
20001002:	f80c e001 	strb.w	lr, [ip, r1]
20001006:	e7e2      	b.n	20000fce <terminal_task+0x66>
20001008:	f8df e020 	ldr.w	lr, [pc, #32]	@ 2000102c <terminal_task+0xc4>
2000100c:	e7d7      	b.n	20000fbe <terminal_task+0x56>
2000100e:	bf00      	nop
20001010:	2005a76c 	.word	0x2005a76c
20001014:	20059c80 	.word	0x20059c80
20001018:	2005a77c 	.word	0x2005a77c
2000101c:	20059c84 	.word	0x20059c84
20001020:	2005a780 	.word	0x2005a780
20001024:	10624dd3 	.word	0x10624dd3
20001028:	2005afce 	.word	0x2005afce
2000102c:	2001138c 	.word	0x2001138c

20001030 <riscv_emu>:
20001030:	e92d 4ff0 	stmdb	sp!, {r4, r5, r6, r7, r8, r9, sl, fp, lr}
20001034:	48a9      	ldr	r0, [pc, #676]	@ (200012dc <riscv_emu+0x2ac>)
20001036:	b093      	sub	sp, #76	@ 0x4c
20001038:	f005 fca6 	bl	20006988 <pf_open>
2000103c:	2800      	cmp	r0, #0
2000103e:	f040 8466 	bne.w	2000190e <riscv_emu+0x8de>
20001042:	49a6      	ldr	r1, [pc, #664]	@ (200012dc <riscv_emu+0x2ac>)
20001044:	48a6      	ldr	r0, [pc, #664]	@ (200012e0 <riscv_emu+0x2b0>)
20001046:	f7ff fdab 	bl	20000ba0 <console_printf>
2000104a:	2300      	movs	r3, #0
2000104c:	461d      	mov	r5, r3
2000104e:	461c      	mov	r4, r3
20001050:	4aa4      	ldr	r2, [pc, #656]	@ (200012e4 <riscv_emu+0x2b4>)
20001052:	f88d 3044 	strb.w	r3, [sp, #68]	@ 0x44
20001056:	9210      	str	r2, [sp, #64]	@ 0x40
20001058:	f44f 7100 	mov.w	r1, #512	@ 0x200
2000105c:	48a2      	ldr	r0, [pc, #648]	@ (200012e8 <riscv_emu+0x2b8>)
2000105e:	aa0d      	add	r2, sp, #52	@ 0x34
20001060:	f005 fdd8 	bl	20006c14 <pf_read>
20001064:	b9e8      	cbnz	r0, 200010a2 <riscv_emu+0x72>
20001066:	990d      	ldr	r1, [sp, #52]	@ 0x34
20001068:	b1f1      	cbz	r1, 200010a8 <riscv_emu+0x78>
2000106a:	4620      	mov	r0, r4
2000106c:	4b9e      	ldr	r3, [pc, #632]	@ (200012e8 <riscv_emu+0x2b8>)
2000106e:	2201      	movs	r2, #1
20001070:	f7ff f9b4 	bl	200003dc <psram_access>
20001074:	9b0d      	ldr	r3, [sp, #52]	@ 0x34
20001076:	441c      	add	r4, r3
20001078:	f3c4 030d 	ubfx	r3, r4, #0, #14
2000107c:	2b00      	cmp	r3, #0
2000107e:	d1eb      	bne.n	20001058 <riscv_emu+0x28>
20001080:	3501      	adds	r5, #1
20001082:	0aa1      	lsrs	r1, r4, #10
20001084:	4899      	ldr	r0, [pc, #612]	@ (200012ec <riscv_emu+0x2bc>)
20001086:	b2ed      	uxtb	r5, r5
20001088:	f7ff fd8a 	bl	20000ba0 <console_printf>
2000108c:	f005 0303 	and.w	r3, r5, #3
20001090:	446b      	add	r3, sp
20001092:	f893 0040 	ldrb.w	r0, [r3, #64]	@ 0x40
20001096:	f7ff fd4d 	bl	20000b34 <console_putc>
2000109a:	200d      	movs	r0, #13
2000109c:	f7ff fd4a 	bl	20000b34 <console_putc>
200010a0:	e7da      	b.n	20001058 <riscv_emu+0x28>
200010a2:	4893      	ldr	r0, [pc, #588]	@ (200012f0 <riscv_emu+0x2c0>)
200010a4:	f7ff fda8 	bl	20000bf8 <console_panic>
200010a8:	0aa1      	lsrs	r1, r4, #10
200010aa:	4892      	ldr	r0, [pc, #584]	@ (200012f4 <riscv_emu+0x2c4>)
200010ac:	f7ff fd78 	bl	20000ba0 <console_printf>
200010b0:	4891      	ldr	r0, [pc, #580]	@ (200012f8 <riscv_emu+0x2c8>)
200010b2:	f005 fc69 	bl	20006988 <pf_open>
200010b6:	4990      	ldr	r1, [pc, #576]	@ (200012f8 <riscv_emu+0x2c8>)
200010b8:	2800      	cmp	r0, #0
200010ba:	f000 83b5 	beq.w	20001828 <riscv_emu+0x7f8>
200010be:	488f      	ldr	r0, [pc, #572]	@ (200012fc <riscv_emu+0x2cc>)
200010c0:	f7ff fd9a 	bl	20000bf8 <console_panic>
200010c4:	f8df 9260 	ldr.w	r9, [pc, #608]	@ 20001328 <riscv_emu+0x2f8>
200010c8:	f44f 62c0 	mov.w	r2, #1536	@ 0x600
200010cc:	f8d9 7000 	ldr.w	r7, [r9]
200010d0:	488b      	ldr	r0, [pc, #556]	@ (20001300 <riscv_emu+0x2d0>)
200010d2:	f5a7 66c0 	sub.w	r6, r7, #1536	@ 0x600
200010d6:	4631      	mov	r1, r6
200010d8:	f7ff f9b6 	bl	20000448 <psram_load_data>
200010dc:	f7ff fa18 	bl	20000510 <cache_reset>
200010e0:	4888      	ldr	r0, [pc, #544]	@ (20001304 <riscv_emu+0x2d4>)
200010e2:	f7ff fd5d 	bl	20000ba0 <console_printf>
200010e6:	f2a7 44c4 	subw	r4, r7, #1220	@ 0x4c4
200010ea:	2108      	movs	r1, #8
200010ec:	4886      	ldr	r0, [pc, #536]	@ (20001308 <riscv_emu+0x2d8>)
200010ee:	f7ff fd57 	bl	20000ba0 <console_printf>
200010f2:	2204      	movs	r2, #4
200010f4:	4620      	mov	r0, r4
200010f6:	a90f      	add	r1, sp, #60	@ 0x3c
200010f8:	f7ff fa28 	bl	2000054c <cache_read>
200010fc:	4b83      	ldr	r3, [pc, #524]	@ (2000130c <riscv_emu+0x2dc>)
200010fe:	9a0f      	ldr	r2, [sp, #60]	@ 0x3c
20001100:	429a      	cmp	r2, r3
20001102:	f000 8445 	beq.w	20001990 <riscv_emu+0x960>
20001106:	4982      	ldr	r1, [pc, #520]	@ (20001310 <riscv_emu+0x2e0>)
20001108:	4882      	ldr	r0, [pc, #520]	@ (20001314 <riscv_emu+0x2e4>)
2000110a:	f7ff fd49 	bl	20000ba0 <console_printf>
2000110e:	4c80      	ldr	r4, [pc, #512]	@ (20001310 <riscv_emu+0x2e0>)
20001110:	f5a7 68a8 	sub.w	r8, r7, #1344	@ 0x540
20001114:	eba8 0804 	sub.w	r8, r8, r4
20001118:	eb04 0008 	add.w	r0, r4, r8
2000111c:	f814 3b01 	ldrb.w	r3, [r4], #1
20001120:	2201      	movs	r2, #1
20001122:	a90f      	add	r1, sp, #60	@ 0x3c
20001124:	f88d 303c 	strb.w	r3, [sp, #60]	@ 0x3c
20001128:	f7ff fb32 	bl	20000790 <cache_write>
2000112c:	f814 5c01 	ldrb.w	r5, [r4, #-1]
20001130:	2d00      	cmp	r5, #0
20001132:	d1f1      	bne.n	20001118 <riscv_emu+0xe8>
20001134:	f8df b1f4 	ldr.w	fp, [pc, #500]	@ 2000132c <riscv_emu+0x2fc>
20001138:	4877      	ldr	r0, [pc, #476]	@ (20001318 <riscv_emu+0x2e8>)
2000113a:	f7ff fd31 	bl	20000ba0 <console_printf>
2000113e:	f8cb 5028 	str.w	r5, [fp, #40]	@ 0x28
20001142:	b11e      	cbz	r6, 2000114c <riscv_emu+0x11c>
20001144:	f107 4600 	add.w	r6, r7, #2147483648	@ 0x80000000
20001148:	f5a6 66c0 	sub.w	r6, r6, #1536	@ 0x600
2000114c:	f04f 4200 	mov.w	r2, #2147483648	@ 0x80000000
20001150:	f8db 30bc 	ldr.w	r3, [fp, #188]	@ 0xbc
20001154:	f8cb 602c 	str.w	r6, [fp, #44]	@ 0x2c
20001158:	f043 0303 	orr.w	r3, r3, #3
2000115c:	f8cb 30bc 	str.w	r3, [fp, #188]	@ 0xbc
20001160:	4b6e      	ldr	r3, [pc, #440]	@ (2000131c <riscv_emu+0x2ec>)
20001162:	f8cb 2080 	str.w	r2, [fp, #128]	@ 0x80
20001166:	681b      	ldr	r3, [r3, #0]
20001168:	2b00      	cmp	r3, #0
2000116a:	f000 83d6 	beq.w	2000191a <riscv_emu+0x8ea>
2000116e:	2300      	movs	r3, #0
20001170:	9305      	str	r3, [sp, #20]
20001172:	2700      	movs	r7, #0
20001174:	f04f 3aff 	mov.w	sl, #4294967295
20001178:	4b69      	ldr	r3, [pc, #420]	@ (20001320 <riscv_emu+0x2f0>)
2000117a:	463d      	mov	r5, r7
2000117c:	681b      	ldr	r3, [r3, #0]
2000117e:	46d0      	mov	r8, sl
20001180:	42bb      	cmp	r3, r7
20001182:	bf0c      	ite	eq
20001184:	f44f 5380 	moveq.w	r3, #4096	@ 0x1000
20001188:	2301      	movne	r3, #1
2000118a:	9704      	str	r7, [sp, #16]
2000118c:	9306      	str	r3, [sp, #24]
2000118e:	f8cd a01c 	str.w	sl, [sp, #28]
20001192:	f108 0201 	add.w	r2, r8, #1
20001196:	9907      	ldr	r1, [sp, #28]
20001198:	4295      	cmp	r5, r2
2000119a:	9a04      	ldr	r2, [sp, #16]
2000119c:	eba1 0308 	sub.w	r3, r1, r8
200011a0:	eb72 0303 	sbcs.w	r3, r2, r3
200011a4:	f0c0 82d7 	bcc.w	20001756 <riscv_emu+0x726>
200011a8:	f1b1 3fff 	cmp.w	r1, #4294967295
200011ac:	bf08      	it	eq
200011ae:	f1b8 3fff 	cmpeq.w	r8, #4294967295
200011b2:	f040 82cd 	bne.w	20001750 <riscv_emu+0x720>
200011b6:	4b59      	ldr	r3, [pc, #356]	@ (2000131c <riscv_emu+0x2ec>)
200011b8:	681b      	ldr	r3, [r3, #0]
200011ba:	2b00      	cmp	r3, #0
200011bc:	f000 82d4 	beq.w	20001768 <riscv_emu+0x738>
200011c0:	e9db 0122 	ldrd	r0, r1, [fp, #136]	@ 0x88
200011c4:	4b57      	ldr	r3, [pc, #348]	@ (20001324 <riscv_emu+0x2f4>)
200011c6:	681b      	ldr	r3, [r3, #0]
200011c8:	461a      	mov	r2, r3
200011ca:	9300      	str	r3, [sp, #0]
200011cc:	17db      	asrs	r3, r3, #31
200011ce:	f007 f9bb 	bl	20008548 <__aeabi_uldivmod>
200011d2:	9b05      	ldr	r3, [sp, #20]
200011d4:	1ac6      	subs	r6, r0, r3
200011d6:	e9db 3224 	ldrd	r3, r2, [fp, #144]	@ 0x90
200011da:	f8db 109c 	ldr.w	r1, [fp, #156]	@ 0x9c
200011de:	18f3      	adds	r3, r6, r3
200011e0:	bf24      	itt	cs
200011e2:	3201      	addcs	r2, #1
200011e4:	f8cb 2094 	strcs.w	r2, [fp, #148]	@ 0x94
200011e8:	4291      	cmp	r1, r2
200011ea:	f8cb 3090 	str.w	r3, [fp, #144]	@ 0x90
200011ee:	f080 82c7 	bcs.w	20001780 <riscv_emu+0x750>
200011f2:	f8db 0098 	ldr.w	r0, [fp, #152]	@ 0x98
200011f6:	4301      	orrs	r1, r0
200011f8:	f8db 20bc 	ldr.w	r2, [fp, #188]	@ 0xbc
200011fc:	f8db 30ac 	ldr.w	r3, [fp, #172]	@ 0xac
20001200:	f040 80de 	bne.w	200013c0 <riscv_emu+0x390>
20001204:	f8db 30ac 	ldr.w	r3, [fp, #172]	@ 0xac
20001208:	f023 0380 	bic.w	r3, r3, #128	@ 0x80
2000120c:	f8cb 30ac 	str.w	r3, [fp, #172]	@ 0xac
20001210:	f8db 30bc 	ldr.w	r3, [fp, #188]	@ 0xbc
20001214:	075c      	lsls	r4, r3, #29
20001216:	f100 839c 	bmi.w	20001952 <riscv_emu+0x922>
2000121a:	f8db 7080 	ldr.w	r7, [fp, #128]	@ 0x80
2000121e:	f8db a088 	ldr.w	sl, [fp, #136]	@ 0x88
20001222:	9b06      	ldr	r3, [sp, #24]
20001224:	e9cd 5802 	strd	r5, r8, [sp, #8]
20001228:	4453      	add	r3, sl
2000122a:	e9cd 3600 	strd	r3, r6, [sp]
2000122e:	f8d9 3000 	ldr.w	r3, [r9]
20001232:	f107 4000 	add.w	r0, r7, #2147483648	@ 0x80000000
20001236:	4298      	cmp	r0, r3
20001238:	f10a 0a01 	add.w	sl, sl, #1
2000123c:	f080 839c 	bcs.w	20001978 <riscv_emu+0x948>
20001240:	f010 0503 	ands.w	r5, r0, #3
20001244:	f040 839e 	bne.w	20001984 <riscv_emu+0x954>
20001248:	2204      	movs	r2, #4
2000124a:	a90f      	add	r1, sp, #60	@ 0x3c
2000124c:	f7ff f97e 	bl	2000054c <cache_read>
20001250:	9e0f      	ldr	r6, [sp, #60]	@ 0x3c
20001252:	f006 037f 	and.w	r3, r6, #127	@ 0x7f
20001256:	2b37      	cmp	r3, #55	@ 0x37
20001258:	ea4f 12d6 	mov.w	r2, r6, lsr #7
2000125c:	f3c6 14c4 	ubfx	r4, r6, #7, #5
20001260:	f200 8173 	bhi.w	2000154a <riscv_emu+0x51a>
20001264:	2b02      	cmp	r3, #2
20001266:	d963      	bls.n	20001330 <riscv_emu+0x300>
20001268:	3b03      	subs	r3, #3
2000126a:	2b34      	cmp	r3, #52	@ 0x34
2000126c:	d860      	bhi.n	20001330 <riscv_emu+0x300>
2000126e:	e8df f013 	tbh	[pc, r3, lsl #1]
20001272:	00f3      	.short	0x00f3
20001274:	005f005f 	.word	0x005f005f
20001278:	005f005f 	.word	0x005f005f
2000127c:	005f005f 	.word	0x005f005f
20001280:	005f005f 	.word	0x005f005f
20001284:	005f005f 	.word	0x005f005f
20001288:	00c7005f 	.word	0x00c7005f
2000128c:	005f005f 	.word	0x005f005f
20001290:	007e005f 	.word	0x007e005f
20001294:	005f005f 	.word	0x005f005f
20001298:	00ea005f 	.word	0x00ea005f
2000129c:	005f005f 	.word	0x005f005f
200012a0:	005f005f 	.word	0x005f005f
200012a4:	005f005f 	.word	0x005f005f
200012a8:	005f005f 	.word	0x005f005f
200012ac:	005f005f 	.word	0x005f005f
200012b0:	0137005f 	.word	0x0137005f
200012b4:	005f005f 	.word	0x005f005f
200012b8:	005f005f 	.word	0x005f005f
200012bc:	005f005f 	.word	0x005f005f
200012c0:	005f005f 	.word	0x005f005f
200012c4:	005f005f 	.word	0x005f005f
200012c8:	0120005f 	.word	0x0120005f
200012cc:	005f005f 	.word	0x005f005f
200012d0:	007e005f 	.word	0x007e005f
200012d4:	005f005f 	.word	0x005f005f
200012d8:	011a005f 	.word	0x011a005f
200012dc:	2000e88c 	.word	0x2000e88c
200012e0:	2000e8b4 	.word	0x2000e8b4
200012e4:	7c5c2d2f 	.word	0x7c5c2d2f
200012e8:	200119c4 	.word	0x200119c4
200012ec:	2000e8d4 	.word	0x2000e8d4
200012f0:	2000e8e8 	.word	0x2000e8e8
200012f4:	2000e900 	.word	0x2000e900
200012f8:	2000e918 	.word	0x2000e918
200012fc:	2000e920 	.word	0x2000e920
20001300:	2000ed1c 	.word	0x2000ed1c
20001304:	2000e970 	.word	0x2000e970
20001308:	2000e998 	.word	0x2000e998
2000130c:	00c0ff03 	.word	0x00c0ff03
20001310:	2000ed04 	.word	0x2000ed04
20001314:	2000e9ac 	.word	0x2000e9ac
20001318:	2000e9c0 	.word	0x2000e9c0
2000131c:	2005a2fc 	.word	0x2005a2fc
20001320:	2005a7a8 	.word	0x2005a7a8
20001324:	2000f8b4 	.word	0x2000f8b4
20001328:	2000f8ac 	.word	0x2000f8ac
2000132c:	20010590 	.word	0x20010590
20001330:	2203      	movs	r2, #3
20001332:	e9dd 6501 	ldrd	r6, r5, [sp, #4]
20001336:	f8dd 800c 	ldr.w	r8, [sp, #12]
2000133a:	4639      	mov	r1, r7
2000133c:	3a01      	subs	r2, #1
2000133e:	e9cb 122d 	strd	r1, r2, [fp, #180]	@ 0xb4
20001342:	e9db 3021 	ldrd	r3, r0, [fp, #132]	@ 0x84
20001346:	f8db 20bc 	ldr.w	r2, [fp, #188]	@ 0xbc
2000134a:	02d1      	lsls	r1, r2, #11
2000134c:	011b      	lsls	r3, r3, #4
2000134e:	f003 0380 	and.w	r3, r3, #128	@ 0x80
20001352:	f401 51c0 	and.w	r1, r1, #6144	@ 0x1800
20001356:	430b      	orrs	r3, r1
20001358:	f042 0203 	orr.w	r2, r2, #3
2000135c:	f8cb 70b0 	str.w	r7, [fp, #176]	@ 0xb0
20001360:	f8cb 3084 	str.w	r3, [fp, #132]	@ 0x84
20001364:	f8db 70a4 	ldr.w	r7, [fp, #164]	@ 0xa4
20001368:	f8cb 20bc 	str.w	r2, [fp, #188]	@ 0xbc
2000136c:	e053      	b.n	20001416 <riscv_emu+0x3e6>
2000136e:	2e00      	cmp	r6, #0
20001370:	ea4f 5316 	mov.w	r3, r6, lsr #20
20001374:	bfb8      	it	lt
20001376:	ea6f 5303 	mvnlt.w	r3, r3, lsl #20
2000137a:	f3c6 32c4 	ubfx	r2, r6, #15, #5
2000137e:	bfb8      	it	lt
20001380:	ea6f 5313 	mvnlt.w	r3, r3, lsr #20
20001384:	06b0      	lsls	r0, r6, #26
20001386:	f85b 1022 	ldr.w	r1, [fp, r2, lsl #2]
2000138a:	f107 0704 	add.w	r7, r7, #4
2000138e:	f3c6 3202 	ubfx	r2, r6, #12, #3
20001392:	f140 8216 	bpl.w	200017c2 <riscv_emu+0x792>
20001396:	f003 031f 	and.w	r3, r3, #31
2000139a:	01b0      	lsls	r0, r6, #6
2000139c:	f85b 3023 	ldr.w	r3, [fp, r3, lsl #2]
200013a0:	f102 32ff 	add.w	r2, r2, #4294967295
200013a4:	f140 824a 	bpl.w	2000183c <riscv_emu+0x80c>
200013a8:	2a06      	cmp	r2, #6
200013aa:	f200 8713 	bhi.w	200021d4 <riscv_emu+0x11a4>
200013ae:	e8df f012 	tbh	[pc, r2, lsl #1]
200013b2:	0419      	.short	0x0419
200013b4:	041c0428 	.word	0x041c0428
200013b8:	0408041f 	.word	0x0408041f
200013bc:	0400040d 	.word	0x0400040d
200013c0:	f8db 10a8 	ldr.w	r1, [fp, #168]	@ 0xa8
200013c4:	f043 0380 	orr.w	r3, r3, #128	@ 0x80
200013c8:	f022 0204 	bic.w	r2, r2, #4
200013cc:	f8cb 30ac 	str.w	r3, [fp, #172]	@ 0xac
200013d0:	060b      	lsls	r3, r1, #24
200013d2:	f8db 7080 	ldr.w	r7, [fp, #128]	@ 0x80
200013d6:	f8db a088 	ldr.w	sl, [fp, #136]	@ 0x88
200013da:	f8cb 20bc 	str.w	r2, [fp, #188]	@ 0xbc
200013de:	f57f af20 	bpl.w	20001222 <riscv_emu+0x1f2>
200013e2:	f8db 1084 	ldr.w	r1, [fp, #132]	@ 0x84
200013e6:	0708      	lsls	r0, r1, #28
200013e8:	f57f af1b 	bpl.w	20001222 <riscv_emu+0x1f2>
200013ec:	460b      	mov	r3, r1
200013ee:	2100      	movs	r1, #0
200013f0:	48b1      	ldr	r0, [pc, #708]	@ (200016b8 <riscv_emu+0x688>)
200013f2:	e9cb 102d 	strd	r1, r0, [fp, #180]	@ 0xb4
200013f6:	4650      	mov	r0, sl
200013f8:	e7a7      	b.n	2000134a <riscv_emu+0x31a>
200013fa:	4288      	cmp	r0, r1
200013fc:	f000 82d4 	beq.w	200019a8 <riscv_emu+0x978>
20001400:	3704      	adds	r7, #4
20001402:	9b00      	ldr	r3, [sp, #0]
20001404:	459a      	cmp	sl, r3
20001406:	f47f af12 	bne.w	2000122e <riscv_emu+0x1fe>
2000140a:	f8dd 800c 	ldr.w	r8, [sp, #12]
2000140e:	f8db 0088 	ldr.w	r0, [fp, #136]	@ 0x88
20001412:	e9dd 6501 	ldrd	r6, r5, [sp, #4]
20001416:	4582      	cmp	sl, r0
20001418:	d204      	bcs.n	20001424 <riscv_emu+0x3f4>
2000141a:	f8db 208c 	ldr.w	r2, [fp, #140]	@ 0x8c
2000141e:	3201      	adds	r2, #1
20001420:	f8cb 208c 	str.w	r2, [fp, #140]	@ 0x8c
20001424:	9b06      	ldr	r3, [sp, #24]
20001426:	f8cb a088 	str.w	sl, [fp, #136]	@ 0x88
2000142a:	f8cb 7080 	str.w	r7, [fp, #128]	@ 0x80
2000142e:	17db      	asrs	r3, r3, #31
20001430:	9a05      	ldr	r2, [sp, #20]
20001432:	9904      	ldr	r1, [sp, #16]
20001434:	18b2      	adds	r2, r6, r2
20001436:	9205      	str	r2, [sp, #20]
20001438:	9a06      	ldr	r2, [sp, #24]
2000143a:	18aa      	adds	r2, r5, r2
2000143c:	eb41 0303 	adc.w	r3, r1, r3
20001440:	4615      	mov	r5, r2
20001442:	9304      	str	r3, [sp, #16]
20001444:	e6a5      	b.n	20001192 <riscv_emu+0x162>
20001446:	f36f 060b 	bfc	r6, #0, #12
2000144a:	19f5      	adds	r5, r6, r7
2000144c:	3704      	adds	r7, #4
2000144e:	2c00      	cmp	r4, #0
20001450:	d0d7      	beq.n	20001402 <riscv_emu+0x3d2>
20001452:	f84b 5024 	str.w	r5, [fp, r4, lsl #2]
20001456:	e7d4      	b.n	20001402 <riscv_emu+0x3d2>
20001458:	f3c6 33c4 	ubfx	r3, r6, #15, #5
2000145c:	2e00      	cmp	r6, #0
2000145e:	f85b 1023 	ldr.w	r1, [fp, r3, lsl #2]
20001462:	ea4f 5316 	mov.w	r3, r6, lsr #20
20001466:	bfbc      	itt	lt
20001468:	ea6f 5303 	mvnlt.w	r3, r3, lsl #20
2000146c:	ea6f 5313 	mvnlt.w	r3, r3, lsr #20
20001470:	4419      	add	r1, r3
20001472:	f8d9 3000 	ldr.w	r3, [r9]
20001476:	f101 4000 	add.w	r0, r1, #2147483648	@ 0x80000000
2000147a:	3b03      	subs	r3, #3
2000147c:	4298      	cmp	r0, r3
2000147e:	f0c0 81ad 	bcc.w	200017dc <riscv_emu+0x7ac>
20001482:	f101 4370 	add.w	r3, r1, #4026531840	@ 0xf0000000
20001486:	f1b3 7f00 	cmp.w	r3, #33554432	@ 0x2000000
2000148a:	f080 81d1 	bcs.w	20001830 <riscv_emu+0x800>
2000148e:	4b8b      	ldr	r3, [pc, #556]	@ (200016bc <riscv_emu+0x68c>)
20001490:	3704      	adds	r7, #4
20001492:	4299      	cmp	r1, r3
20001494:	f000 82de 	beq.w	20001a54 <riscv_emu+0xa24>
20001498:	4b89      	ldr	r3, [pc, #548]	@ (200016c0 <riscv_emu+0x690>)
2000149a:	4299      	cmp	r1, r3
2000149c:	f040 8333 	bne.w	20001b06 <riscv_emu+0xad6>
200014a0:	f8db 5090 	ldr.w	r5, [fp, #144]	@ 0x90
200014a4:	e7d3      	b.n	2000144e <riscv_emu+0x41e>
200014a6:	f426 657f 	bic.w	r5, r6, #4080	@ 0xff0
200014aa:	f025 050f 	bic.w	r5, r5, #15
200014ae:	3704      	adds	r7, #4
200014b0:	e7cd      	b.n	2000144e <riscv_emu+0x41e>
200014b2:	f3c6 33c4 	ubfx	r3, r6, #15, #5
200014b6:	f85b 1023 	ldr.w	r1, [fp, r3, lsl #2]
200014ba:	f8d9 3000 	ldr.w	r3, [r9]
200014be:	f101 4000 	add.w	r0, r1, #2147483648	@ 0x80000000
200014c2:	3b03      	subs	r3, #3
200014c4:	4298      	cmp	r0, r3
200014c6:	f0c0 81cb 	bcc.w	20001860 <riscv_emu+0x830>
200014ca:	e9dd 6501 	ldrd	r6, r5, [sp, #4]
200014ce:	2208      	movs	r2, #8
200014d0:	f8dd 800c 	ldr.w	r8, [sp, #12]
200014d4:	1f90      	subs	r0, r2, #6
200014d6:	2802      	cmp	r0, #2
200014d8:	bf88      	it	hi
200014da:	4639      	movhi	r1, r7
200014dc:	3a01      	subs	r2, #1
200014de:	e72e      	b.n	2000133e <riscv_emu+0x30e>
200014e0:	0d32      	lsrs	r2, r6, #20
200014e2:	f402 627e 	and.w	r2, r2, #4064	@ 0xfe0
200014e6:	4314      	orrs	r4, r2
200014e8:	0515      	lsls	r5, r2, #20
200014ea:	bf44      	itt	mi
200014ec:	ea6f 5404 	mvnmi.w	r4, r4, lsl #20
200014f0:	ea6f 5414 	mvnmi.w	r4, r4, lsr #20
200014f4:	f3c6 33c4 	ubfx	r3, r6, #15, #5
200014f8:	f85b 1023 	ldr.w	r1, [fp, r3, lsl #2]
200014fc:	f8d9 2000 	ldr.w	r2, [r9]
20001500:	4421      	add	r1, r4
20001502:	3a03      	subs	r2, #3
20001504:	f101 4000 	add.w	r0, r1, #2147483648	@ 0x80000000
20001508:	f3c6 5304 	ubfx	r3, r6, #20, #5
2000150c:	4290      	cmp	r0, r2
2000150e:	f85b 3023 	ldr.w	r3, [fp, r3, lsl #2]
20001512:	f0c0 8177 	bcc.w	20001804 <riscv_emu+0x7d4>
20001516:	f101 4270 	add.w	r2, r1, #4026531840	@ 0xf0000000
2000151a:	f1b2 7f00 	cmp.w	r2, #33554432	@ 0x2000000
2000151e:	d2d4      	bcs.n	200014ca <riscv_emu+0x49a>
20001520:	4a68      	ldr	r2, [pc, #416]	@ (200016c4 <riscv_emu+0x694>)
20001522:	3704      	adds	r7, #4
20001524:	4291      	cmp	r1, r2
20001526:	f000 8292 	beq.w	20001a4e <riscv_emu+0xa1e>
2000152a:	4a67      	ldr	r2, [pc, #412]	@ (200016c8 <riscv_emu+0x698>)
2000152c:	4291      	cmp	r1, r2
2000152e:	f000 831c 	beq.w	20001b6a <riscv_emu+0xb3a>
20001532:	4a66      	ldr	r2, [pc, #408]	@ (200016cc <riscv_emu+0x69c>)
20001534:	4291      	cmp	r1, r2
20001536:	f000 860d 	beq.w	20002154 <riscv_emu+0x1124>
2000153a:	f1b1 5f80 	cmp.w	r1, #268435456	@ 0x10000000
2000153e:	f47f af60 	bne.w	20001402 <riscv_emu+0x3d2>
20001542:	b2d8      	uxtb	r0, r3
20001544:	f7ff faf6 	bl	20000b34 <console_putc>
20001548:	e75b      	b.n	20001402 <riscv_emu+0x3d2>
2000154a:	3b63      	subs	r3, #99	@ 0x63
2000154c:	2b10      	cmp	r3, #16
2000154e:	f63f aeef 	bhi.w	20001330 <riscv_emu+0x300>
20001552:	2b10      	cmp	r3, #16
20001554:	f63f aeec 	bhi.w	20001330 <riscv_emu+0x300>
20001558:	a101      	add	r1, pc, #4	@ (adr r1, 20001560 <riscv_emu+0x530>)
2000155a:	f851 f023 	ldr.w	pc, [r1, r3, lsl #2]
2000155e:	bf00      	nop
20001560:	200016d1 	.word	0x200016d1
20001564:	20001331 	.word	0x20001331
20001568:	20001331 	.word	0x20001331
2000156c:	20001331 	.word	0x20001331
20001570:	20001699 	.word	0x20001699
20001574:	20001331 	.word	0x20001331
20001578:	20001331 	.word	0x20001331
2000157c:	20001331 	.word	0x20001331
20001580:	20001331 	.word	0x20001331
20001584:	20001331 	.word	0x20001331
20001588:	20001331 	.word	0x20001331
2000158c:	20001331 	.word	0x20001331
20001590:	20001669 	.word	0x20001669
20001594:	20001331 	.word	0x20001331
20001598:	20001331 	.word	0x20001331
2000159c:	20001331 	.word	0x20001331
200015a0:	200015a5 	.word	0x200015a5
200015a4:	f416 5f40 	tst.w	r6, #12288	@ 0x3000
200015a8:	ea4f 5816 	mov.w	r8, r6, lsr #20
200015ac:	f3c6 3302 	ubfx	r3, r6, #12, #3
200015b0:	f3c6 3101 	ubfx	r1, r6, #12, #2
200015b4:	f000 80ec 	beq.w	20001790 <riscv_emu+0x760>
200015b8:	f3c6 36c4 	ubfx	r6, r6, #15, #5
200015bc:	f5b8 7f51 	cmp.w	r8, #836	@ 0x344
200015c0:	f85b 2026 	ldr.w	r2, [fp, r6, lsl #2]
200015c4:	f200 8211 	bhi.w	200019ea <riscv_emu+0x9ba>
200015c8:	f5b8 7f40 	cmp.w	r8, #768	@ 0x300
200015cc:	f0c0 82db 	bcc.w	20001b86 <riscv_emu+0xb56>
200015d0:	f5a8 7140 	sub.w	r1, r8, #768	@ 0x300
200015d4:	2944      	cmp	r1, #68	@ 0x44
200015d6:	f200 82d6 	bhi.w	20001b86 <riscv_emu+0xb56>
200015da:	e8df f011 	tbh	[pc, r1, lsl #1]
200015de:	03b3      	.short	0x03b3
200015e0:	02d4043d 	.word	0x02d4043d
200015e4:	03df02d4 	.word	0x03df02d4
200015e8:	02d403c9 	.word	0x02d403c9
200015ec:	02d402d4 	.word	0x02d402d4
200015f0:	02d402d4 	.word	0x02d402d4
200015f4:	02d402d4 	.word	0x02d402d4
200015f8:	02d402d4 	.word	0x02d402d4
200015fc:	02d402d4 	.word	0x02d402d4
20001600:	02d402d4 	.word	0x02d402d4
20001604:	02d402d4 	.word	0x02d402d4
20001608:	02d402d4 	.word	0x02d402d4
2000160c:	02d402d4 	.word	0x02d402d4
20001610:	02d402d4 	.word	0x02d402d4
20001614:	02d402d4 	.word	0x02d402d4
20001618:	02d402d4 	.word	0x02d402d4
2000161c:	02d402d4 	.word	0x02d402d4
20001620:	02d402d4 	.word	0x02d402d4
20001624:	02d402d4 	.word	0x02d402d4
20001628:	02d402d4 	.word	0x02d402d4
2000162c:	02d402d4 	.word	0x02d402d4
20001630:	02d402d4 	.word	0x02d402d4
20001634:	02d402d4 	.word	0x02d402d4
20001638:	02d402d4 	.word	0x02d402d4
2000163c:	02d402d4 	.word	0x02d402d4
20001640:	02d402d4 	.word	0x02d402d4
20001644:	02d402d4 	.word	0x02d402d4
20001648:	02d402d4 	.word	0x02d402d4
2000164c:	02d402d4 	.word	0x02d402d4
20001650:	02d402d4 	.word	0x02d402d4
20001654:	02d402d4 	.word	0x02d402d4
20001658:	02d402d4 	.word	0x02d402d4
2000165c:	041102d4 	.word	0x041102d4
20001660:	042703f5 	.word	0x042703f5
20001664:	039f038a 	.word	0x039f038a
20001668:	f240 72fe 	movw	r2, #2046	@ 0x7fe
2000166c:	0af3      	lsrs	r3, r6, #11
2000166e:	ea02 5216 	and.w	r2, r2, r6, lsr #20
20001672:	f403 1380 	and.w	r3, r3, #1048576	@ 0x100000
20001676:	4313      	orrs	r3, r2
20001678:	f406 227f 	and.w	r2, r6, #1044480	@ 0xff000
2000167c:	0a76      	lsrs	r6, r6, #9
2000167e:	4313      	orrs	r3, r2
20001680:	f406 6600 	and.w	r6, r6, #2048	@ 0x800
20001684:	431e      	orrs	r6, r3
20001686:	02db      	lsls	r3, r3, #11
20001688:	bf44      	itt	mi
2000168a:	ea6f 26c6 	mvnmi.w	r6, r6, lsl #11
2000168e:	ea6f 26d6 	mvnmi.w	r6, r6, lsr #11
20001692:	1d3d      	adds	r5, r7, #4
20001694:	4437      	add	r7, r6
20001696:	e6da      	b.n	2000144e <riscv_emu+0x41e>
20001698:	0d33      	lsrs	r3, r6, #20
2000169a:	2e00      	cmp	r6, #0
2000169c:	bfbc      	itt	lt
2000169e:	ea6f 5303 	mvnlt.w	r3, r3, lsl #20
200016a2:	ea6f 5313 	mvnlt.w	r3, r3, lsr #20
200016a6:	f3c6 36c4 	ubfx	r6, r6, #15, #5
200016aa:	f85b 2026 	ldr.w	r2, [fp, r6, lsl #2]
200016ae:	1d3d      	adds	r5, r7, #4
200016b0:	4413      	add	r3, r2
200016b2:	f023 0701 	bic.w	r7, r3, #1
200016b6:	e6ca      	b.n	2000144e <riscv_emu+0x41e>
200016b8:	80000007 	.word	0x80000007
200016bc:	1100bffc 	.word	0x1100bffc
200016c0:	1100bff8 	.word	0x1100bff8
200016c4:	11004004 	.word	0x11004004
200016c8:	11004000 	.word	0x11004000
200016cc:	11100000 	.word	0x11100000
200016d0:	f002 031e 	and.w	r3, r2, #30
200016d4:	0d32      	lsrs	r2, r6, #20
200016d6:	f402 61fc 	and.w	r1, r2, #2016	@ 0x7e0
200016da:	430b      	orrs	r3, r1
200016dc:	0131      	lsls	r1, r6, #4
200016de:	f401 6100 	and.w	r1, r1, #2048	@ 0x800
200016e2:	430b      	orrs	r3, r1
200016e4:	0ff1      	lsrs	r1, r6, #31
200016e6:	ea43 3301 	orr.w	r3, r3, r1, lsl #12
200016ea:	b119      	cbz	r1, 200016f4 <riscv_emu+0x6c4>
200016ec:	ea6f 43c3 	mvn.w	r3, r3, lsl #19
200016f0:	ea6f 43d3 	mvn.w	r3, r3, lsr #19
200016f4:	f002 021f 	and.w	r2, r2, #31
200016f8:	f85b 1022 	ldr.w	r1, [fp, r2, lsl #2]
200016fc:	f3c6 32c4 	ubfx	r2, r6, #15, #5
20001700:	f85b 0022 	ldr.w	r0, [fp, r2, lsl #2]
20001704:	f3c6 3602 	ubfx	r6, r6, #12, #3
20001708:	1f3a      	subs	r2, r7, #4
2000170a:	441a      	add	r2, r3
2000170c:	2e07      	cmp	r6, #7
2000170e:	f63f ae0f 	bhi.w	20001330 <riscv_emu+0x300>
20001712:	a301      	add	r3, pc, #4	@ (adr r3, 20001718 <riscv_emu+0x6e8>)
20001714:	f853 f026 	ldr.w	pc, [r3, r6, lsl #2]
20001718:	200013fb 	.word	0x200013fb
2000171c:	200019bd 	.word	0x200019bd
20001720:	20001331 	.word	0x20001331
20001724:	20001331 	.word	0x20001331
20001728:	200019c3 	.word	0x200019c3
2000172c:	200019a3 	.word	0x200019a3
20001730:	200019ad 	.word	0x200019ad
20001734:	200019b5 	.word	0x200019b5
20001738:	4619      	mov	r1, r3
2000173a:	f247 7377 	movw	r3, #30583	@ 0x7777
2000173e:	4299      	cmp	r1, r3
20001740:	f040 8537 	bne.w	200021b2 <riscv_emu+0x1182>
20001744:	e9db 2122 	ldrd	r2, r1, [fp, #136]	@ 0x88
20001748:	48c4      	ldr	r0, [pc, #784]	@ (20001a5c <riscv_emu+0xa2c>)
2000174a:	f7ff fa29 	bl	20000ba0 <console_printf>
2000174e:	2001      	movs	r0, #1
20001750:	b013      	add	sp, #76	@ 0x4c
20001752:	e8bd 8ff0 	ldmia.w	sp!, {r4, r5, r6, r7, r8, r9, sl, fp, pc}
20001756:	f04f 0800 	mov.w	r8, #0
2000175a:	4bc1      	ldr	r3, [pc, #772]	@ (20001a60 <riscv_emu+0xa30>)
2000175c:	f8cd 801c 	str.w	r8, [sp, #28]
20001760:	681b      	ldr	r3, [r3, #0]
20001762:	2b00      	cmp	r3, #0
20001764:	f47f ad2c 	bne.w	200011c0 <riscv_emu+0x190>
20001768:	f001 ffb8 	bl	200036dc <time_us_64>
2000176c:	4bbd      	ldr	r3, [pc, #756]	@ (20001a64 <riscv_emu+0xa34>)
2000176e:	681b      	ldr	r3, [r3, #0]
20001770:	461a      	mov	r2, r3
20001772:	9300      	str	r3, [sp, #0]
20001774:	17db      	asrs	r3, r3, #31
20001776:	f006 fee7 	bl	20008548 <__aeabi_uldivmod>
2000177a:	9b05      	ldr	r3, [sp, #20]
2000177c:	1ac6      	subs	r6, r0, r3
2000177e:	e52a      	b.n	200011d6 <riscv_emu+0x1a6>
20001780:	f47f ad40 	bne.w	20001204 <riscv_emu+0x1d4>
20001784:	f8db 0098 	ldr.w	r0, [fp, #152]	@ 0x98
20001788:	4283      	cmp	r3, r0
2000178a:	f67f ad3b 	bls.w	20001204 <riscv_emu+0x1d4>
2000178e:	e532      	b.n	200011f6 <riscv_emu+0x1c6>
20001790:	2b00      	cmp	r3, #0
20001792:	d15f      	bne.n	20001854 <riscv_emu+0x824>
20001794:	f240 1305 	movw	r3, #261	@ 0x105
20001798:	4598      	cmp	r8, r3
2000179a:	f000 80c7 	beq.w	2000192c <riscv_emu+0x8fc>
2000179e:	fa5f f388 	uxtb.w	r3, r8
200017a2:	2b02      	cmp	r3, #2
200017a4:	f000 816a 	beq.w	20001a7c <riscv_emu+0xa4c>
200017a8:	4643      	mov	r3, r8
200017aa:	e9dd 5802 	ldrd	r5, r8, [sp, #8]
200017ae:	9e01      	ldr	r6, [sp, #4]
200017b0:	2b00      	cmp	r3, #0
200017b2:	f000 81e0 	beq.w	20001b76 <riscv_emu+0xb46>
200017b6:	2b01      	cmp	r3, #1
200017b8:	f000 81da 	beq.w	20001b70 <riscv_emu+0xb40>
200017bc:	4639      	mov	r1, r7
200017be:	2202      	movs	r2, #2
200017c0:	e5bd      	b.n	2000133e <riscv_emu+0x30e>
200017c2:	3a01      	subs	r2, #1
200017c4:	2a06      	cmp	r2, #6
200017c6:	f200 8509 	bhi.w	200021dc <riscv_emu+0x11ac>
200017ca:	e8df f012 	tbh	[pc, r2, lsl #1]
200017ce:	018c      	.short	0x018c
200017d0:	017b0176 	.word	0x017b0176
200017d4:	01830180 	.word	0x01830180
200017d8:	01730170 	.word	0x01730170
200017dc:	f3c6 3602 	ubfx	r6, r6, #12, #3
200017e0:	2e05      	cmp	r6, #5
200017e2:	f63f ada5 	bhi.w	20001330 <riscv_emu+0x300>
200017e6:	a301      	add	r3, pc, #4	@ (adr r3, 200017ec <riscv_emu+0x7bc>)
200017e8:	f853 f026 	ldr.w	pc, [r3, r6, lsl #2]
200017ec:	20001a3f 	.word	0x20001a3f
200017f0:	20001a01 	.word	0x20001a01
200017f4:	20001a11 	.word	0x20001a11
200017f8:	20001331 	.word	0x20001331
200017fc:	20001a1f 	.word	0x20001a1f
20001800:	20001a2f 	.word	0x20001a2f
20001804:	f3c6 3602 	ubfx	r6, r6, #12, #3
20001808:	2e01      	cmp	r6, #1
2000180a:	f000 80de 	beq.w	200019ca <riscv_emu+0x99a>
2000180e:	2e02      	cmp	r6, #2
20001810:	f000 816e 	beq.w	20001af0 <riscv_emu+0xac0>
20001814:	2e00      	cmp	r6, #0
20001816:	f000 80e0 	beq.w	200019da <riscv_emu+0x9aa>
2000181a:	e9dd 6501 	ldrd	r6, r5, [sp, #4]
2000181e:	2100      	movs	r1, #0
20001820:	2203      	movs	r2, #3
20001822:	f8dd 800c 	ldr.w	r8, [sp, #12]
20001826:	e655      	b.n	200014d4 <riscv_emu+0x4a4>
20001828:	488f      	ldr	r0, [pc, #572]	@ (20001a68 <riscv_emu+0xa38>)
2000182a:	f7ff f9b9 	bl	20000ba0 <console_printf>
2000182e:	e449      	b.n	200010c4 <riscv_emu+0x94>
20001830:	2206      	movs	r2, #6
20001832:	e9dd 6501 	ldrd	r6, r5, [sp, #4]
20001836:	f8dd 800c 	ldr.w	r8, [sp, #12]
2000183a:	e64b      	b.n	200014d4 <riscv_emu+0x4a4>
2000183c:	2a06      	cmp	r2, #6
2000183e:	f200 84c3 	bhi.w	200021c8 <riscv_emu+0x1198>
20001842:	e8df f012 	tbh	[pc, r2, lsl #1]
20001846:	0150      	.short	0x0150
20001848:	013f013a 	.word	0x013f013a
2000184c:	01470144 	.word	0x01470144
20001850:	01370134 	.word	0x01370134
20001854:	2203      	movs	r2, #3
20001856:	e9dd 6501 	ldrd	r6, r5, [sp, #4]
2000185a:	f8dd 800c 	ldr.w	r8, [sp, #12]
2000185e:	e639      	b.n	200014d4 <riscv_emu+0x4a4>
20001860:	f3c6 5304 	ubfx	r3, r6, #20, #5
20001864:	2204      	movs	r2, #4
20001866:	a90f      	add	r1, sp, #60	@ 0x3c
20001868:	0ef6      	lsrs	r6, r6, #27
2000186a:	9008      	str	r0, [sp, #32]
2000186c:	f85b 8023 	ldr.w	r8, [fp, r3, lsl #2]
20001870:	f7fe fe6c 	bl	2000054c <cache_read>
20001874:	9d0f      	ldr	r5, [sp, #60]	@ 0x3c
20001876:	9808      	ldr	r0, [sp, #32]
20001878:	2e1c      	cmp	r6, #28
2000187a:	f63f ad59 	bhi.w	20001330 <riscv_emu+0x300>
2000187e:	a301      	add	r3, pc, #4	@ (adr r3, 20001884 <riscv_emu+0x854>)
20001880:	f853 f026 	ldr.w	pc, [r3, r6, lsl #2]
20001884:	20001c55 	.word	0x20001c55
20001888:	200018ff 	.word	0x200018ff
2000188c:	20001c59 	.word	0x20001c59
20001890:	20001c0f 	.word	0x20001c0f
20001894:	20001c6f 	.word	0x20001c6f
20001898:	20001331 	.word	0x20001331
2000189c:	20001331 	.word	0x20001331
200018a0:	20001331 	.word	0x20001331
200018a4:	20001c47 	.word	0x20001c47
200018a8:	20001331 	.word	0x20001331
200018ac:	20001331 	.word	0x20001331
200018b0:	20001331 	.word	0x20001331
200018b4:	20001c85 	.word	0x20001c85
200018b8:	20001331 	.word	0x20001331
200018bc:	20001331 	.word	0x20001331
200018c0:	20001331 	.word	0x20001331
200018c4:	20001c75 	.word	0x20001c75
200018c8:	20001331 	.word	0x20001331
200018cc:	20001331 	.word	0x20001331
200018d0:	20001331 	.word	0x20001331
200018d4:	20001c7d 	.word	0x20001c7d
200018d8:	20001331 	.word	0x20001331
200018dc:	20001331 	.word	0x20001331
200018e0:	20001331 	.word	0x20001331
200018e4:	200018f9 	.word	0x200018f9
200018e8:	20001331 	.word	0x20001331
200018ec:	20001331 	.word	0x20001331
200018f0:	20001331 	.word	0x20001331
200018f4:	20001c4d 	.word	0x20001c4d
200018f8:	45a8      	cmp	r8, r5
200018fa:	bf28      	it	cs
200018fc:	46a8      	movcs	r8, r5
200018fe:	2204      	movs	r2, #4
20001900:	a90f      	add	r1, sp, #60	@ 0x3c
20001902:	f8cd 803c 	str.w	r8, [sp, #60]	@ 0x3c
20001906:	3704      	adds	r7, #4
20001908:	f7fe ff42 	bl	20000790 <cache_write>
2000190c:	e59f      	b.n	2000144e <riscv_emu+0x41e>
2000190e:	4957      	ldr	r1, [pc, #348]	@ (20001a6c <riscv_emu+0xa3c>)
20001910:	4857      	ldr	r0, [pc, #348]	@ (20001a70 <riscv_emu+0xa40>)
20001912:	f7ff f971 	bl	20000bf8 <console_panic>
20001916:	f7ff bb94 	b.w	20001042 <riscv_emu+0x12>
2000191a:	f001 fedf 	bl	200036dc <time_us_64>
2000191e:	4b51      	ldr	r3, [pc, #324]	@ (20001a64 <riscv_emu+0xa34>)
20001920:	681a      	ldr	r2, [r3, #0]
20001922:	17d3      	asrs	r3, r2, #31
20001924:	f006 fe10 	bl	20008548 <__aeabi_uldivmod>
20001928:	9005      	str	r0, [sp, #20]
2000192a:	e422      	b.n	20001172 <riscv_emu+0x142>
2000192c:	f8db 3084 	ldr.w	r3, [fp, #132]	@ 0x84
20001930:	3704      	adds	r7, #4
20001932:	f043 0308 	orr.w	r3, r3, #8
20001936:	f8cb 3084 	str.w	r3, [fp, #132]	@ 0x84
2000193a:	f8db 30bc 	ldr.w	r3, [fp, #188]	@ 0xbc
2000193e:	f8dd 800c 	ldr.w	r8, [sp, #12]
20001942:	f043 0304 	orr.w	r3, r3, #4
20001946:	f8cb 7080 	str.w	r7, [fp, #128]	@ 0x80
2000194a:	f8cb 30bc 	str.w	r3, [fp, #188]	@ 0xbc
2000194e:	e9dd 6501 	ldrd	r6, r5, [sp, #4]
20001952:	4b48      	ldr	r3, [pc, #288]	@ (20001a74 <riscv_emu+0xa44>)
20001954:	681b      	ldr	r3, [r3, #0]
20001956:	2b00      	cmp	r3, #0
20001958:	f040 80d1 	bne.w	20001afe <riscv_emu+0xace>
2000195c:	f8db 3088 	ldr.w	r3, [fp, #136]	@ 0x88
20001960:	9a06      	ldr	r2, [sp, #24]
20001962:	189b      	adds	r3, r3, r2
20001964:	f8cb 3088 	str.w	r3, [fp, #136]	@ 0x88
20001968:	f8db 308c 	ldr.w	r3, [fp, #140]	@ 0x8c
2000196c:	f143 0300 	adc.w	r3, r3, #0
20001970:	f8cb 308c 	str.w	r3, [fp, #140]	@ 0x8c
20001974:	17d3      	asrs	r3, r2, #31
20001976:	e55b      	b.n	20001430 <riscv_emu+0x400>
20001978:	2202      	movs	r2, #2
2000197a:	e9dd 6501 	ldrd	r6, r5, [sp, #4]
2000197e:	f8dd 800c 	ldr.w	r8, [sp, #12]
20001982:	e4da      	b.n	2000133a <riscv_emu+0x30a>
20001984:	2201      	movs	r2, #1
20001986:	e9dd 6501 	ldrd	r6, r5, [sp, #4]
2000198a:	f8dd 800c 	ldr.w	r8, [sp, #12]
2000198e:	e4d4      	b.n	2000133a <riscv_emu+0x30a>
20001990:	ba33      	rev	r3, r6
20001992:	4620      	mov	r0, r4
20001994:	2204      	movs	r2, #4
20001996:	a90f      	add	r1, sp, #60	@ 0x3c
20001998:	930f      	str	r3, [sp, #60]	@ 0x3c
2000199a:	f7fe fef9 	bl	20000790 <cache_write>
2000199e:	f7ff bbb2 	b.w	20001106 <riscv_emu+0xd6>
200019a2:	4288      	cmp	r0, r1
200019a4:	f6ff ad2c 	blt.w	20001400 <riscv_emu+0x3d0>
200019a8:	1d17      	adds	r7, r2, #4
200019aa:	e52a      	b.n	20001402 <riscv_emu+0x3d2>
200019ac:	4288      	cmp	r0, r1
200019ae:	f4bf ad27 	bcs.w	20001400 <riscv_emu+0x3d0>
200019b2:	e7f9      	b.n	200019a8 <riscv_emu+0x978>
200019b4:	4288      	cmp	r0, r1
200019b6:	f4ff ad23 	bcc.w	20001400 <riscv_emu+0x3d0>
200019ba:	e7f5      	b.n	200019a8 <riscv_emu+0x978>
200019bc:	4288      	cmp	r0, r1
200019be:	d1f3      	bne.n	200019a8 <riscv_emu+0x978>
200019c0:	e51e      	b.n	20001400 <riscv_emu+0x3d0>
200019c2:	4288      	cmp	r0, r1
200019c4:	f6bf ad1c 	bge.w	20001400 <riscv_emu+0x3d0>
200019c8:	e7ee      	b.n	200019a8 <riscv_emu+0x978>
200019ca:	2202      	movs	r2, #2
200019cc:	a90f      	add	r1, sp, #60	@ 0x3c
200019ce:	f8ad 303c 	strh.w	r3, [sp, #60]	@ 0x3c
200019d2:	3704      	adds	r7, #4
200019d4:	f7fe fedc 	bl	20000790 <cache_write>
200019d8:	e513      	b.n	20001402 <riscv_emu+0x3d2>
200019da:	2201      	movs	r2, #1
200019dc:	a90f      	add	r1, sp, #60	@ 0x3c
200019de:	f88d 303c 	strb.w	r3, [sp, #60]	@ 0x3c
200019e2:	3704      	adds	r7, #4
200019e4:	f7fe fed4 	bl	20000790 <cache_write>
200019e8:	e50b      	b.n	20001402 <riscv_emu+0x3d2>
200019ea:	f5b8 6f40 	cmp.w	r8, #3072	@ 0xc00
200019ee:	f000 8301 	beq.w	20001ff4 <riscv_emu+0xfc4>
200019f2:	f640 7111 	movw	r1, #3857	@ 0xf11
200019f6:	4588      	cmp	r8, r1
200019f8:	f040 8119 	bne.w	20001c2e <riscv_emu+0xbfe>
200019fc:	4d1e      	ldr	r5, [pc, #120]	@ (20001a78 <riscv_emu+0xa48>)
200019fe:	e0d0      	b.n	20001ba2 <riscv_emu+0xb72>
20001a00:	2202      	movs	r2, #2
20001a02:	a90f      	add	r1, sp, #60	@ 0x3c
20001a04:	f7fe fda2 	bl	2000054c <cache_read>
20001a08:	3704      	adds	r7, #4
20001a0a:	f9bd 503c 	ldrsh.w	r5, [sp, #60]	@ 0x3c
20001a0e:	e51e      	b.n	2000144e <riscv_emu+0x41e>
20001a10:	2204      	movs	r2, #4
20001a12:	a90f      	add	r1, sp, #60	@ 0x3c
20001a14:	f7fe fd9a 	bl	2000054c <cache_read>
20001a18:	3704      	adds	r7, #4
20001a1a:	9d0f      	ldr	r5, [sp, #60]	@ 0x3c
20001a1c:	e517      	b.n	2000144e <riscv_emu+0x41e>
20001a1e:	2201      	movs	r2, #1
20001a20:	a90f      	add	r1, sp, #60	@ 0x3c
20001a22:	f7fe fd93 	bl	2000054c <cache_read>
20001a26:	3704      	adds	r7, #4
20001a28:	f89d 503c 	ldrb.w	r5, [sp, #60]	@ 0x3c
20001a2c:	e50f      	b.n	2000144e <riscv_emu+0x41e>
20001a2e:	2202      	movs	r2, #2
20001a30:	a90f      	add	r1, sp, #60	@ 0x3c
20001a32:	f7fe fd8b 	bl	2000054c <cache_read>
20001a36:	3704      	adds	r7, #4
20001a38:	f8bd 503c 	ldrh.w	r5, [sp, #60]	@ 0x3c
20001a3c:	e507      	b.n	2000144e <riscv_emu+0x41e>
20001a3e:	2201      	movs	r2, #1
20001a40:	a90f      	add	r1, sp, #60	@ 0x3c
20001a42:	f7fe fd83 	bl	2000054c <cache_read>
20001a46:	3704      	adds	r7, #4
20001a48:	f99d 503c 	ldrsb.w	r5, [sp, #60]	@ 0x3c
20001a4c:	e4ff      	b.n	2000144e <riscv_emu+0x41e>
20001a4e:	f8cb 309c 	str.w	r3, [fp, #156]	@ 0x9c
20001a52:	e4d6      	b.n	20001402 <riscv_emu+0x3d2>
20001a54:	f8db 5094 	ldr.w	r5, [fp, #148]	@ 0x94
20001a58:	e4f9      	b.n	2000144e <riscv_emu+0x41e>
20001a5a:	bf00      	nop
20001a5c:	2000e9d8 	.word	0x2000e9d8
20001a60:	2005a2fc 	.word	0x2005a2fc
20001a64:	2000f8b4 	.word	0x2000f8b4
20001a68:	2000e94c 	.word	0x2000e94c
20001a6c:	2000e88c 	.word	0x2000e88c
20001a70:	2000e894 	.word	0x2000e894
20001a74:	2000f8b0 	.word	0x2000f8b0
20001a78:	ff0ff0ff 	.word	0xff0ff0ff
20001a7c:	f8db 2084 	ldr.w	r2, [fp, #132]	@ 0x84
20001a80:	f8db 10bc 	ldr.w	r1, [fp, #188]	@ 0xbc
20001a84:	0913      	lsrs	r3, r2, #4
20001a86:	02c8      	lsls	r0, r1, #11
20001a88:	f003 0308 	and.w	r3, r3, #8
20001a8c:	f400 50c0 	and.w	r0, r0, #6144	@ 0x1800
20001a90:	f3c2 22c1 	ubfx	r2, r2, #11, #2
20001a94:	4303      	orrs	r3, r0
20001a96:	f021 0103 	bic.w	r1, r1, #3
20001a9a:	430a      	orrs	r2, r1
20001a9c:	f043 0380 	orr.w	r3, r3, #128	@ 0x80
20001aa0:	f8db 70b0 	ldr.w	r7, [fp, #176]	@ 0xb0
20001aa4:	f8cb 20bc 	str.w	r2, [fp, #188]	@ 0xbc
20001aa8:	f8cb 3084 	str.w	r3, [fp, #132]	@ 0x84
20001aac:	e4a9      	b.n	20001402 <riscv_emu+0x3d2>
20001aae:	ea41 0503 	orr.w	r5, r1, r3
20001ab2:	e4cc      	b.n	2000144e <riscv_emu+0x41e>
20001ab4:	ea01 0503 	and.w	r5, r1, r3
20001ab8:	e4c9      	b.n	2000144e <riscv_emu+0x41e>
20001aba:	4299      	cmp	r1, r3
20001abc:	bfac      	ite	ge
20001abe:	2500      	movge	r5, #0
20001ac0:	2501      	movlt	r5, #1
20001ac2:	e4c4      	b.n	2000144e <riscv_emu+0x41e>
20001ac4:	4299      	cmp	r1, r3
20001ac6:	bf2c      	ite	cs
20001ac8:	2500      	movcs	r5, #0
20001aca:	2501      	movcc	r5, #1
20001acc:	e4bf      	b.n	2000144e <riscv_emu+0x41e>
20001ace:	ea81 0503 	eor.w	r5, r1, r3
20001ad2:	e4bc      	b.n	2000144e <riscv_emu+0x41e>
20001ad4:	f003 031f 	and.w	r3, r3, #31
20001ad8:	0070      	lsls	r0, r6, #1
20001ada:	bf4c      	ite	mi
20001adc:	fa41 f503 	asrmi.w	r5, r1, r3
20001ae0:	fa21 f503 	lsrpl.w	r5, r1, r3
20001ae4:	e4b3      	b.n	2000144e <riscv_emu+0x41e>
20001ae6:	f003 031f 	and.w	r3, r3, #31
20001aea:	fa01 f503 	lsl.w	r5, r1, r3
20001aee:	e4ae      	b.n	2000144e <riscv_emu+0x41e>
20001af0:	2204      	movs	r2, #4
20001af2:	a90f      	add	r1, sp, #60	@ 0x3c
20001af4:	930f      	str	r3, [sp, #60]	@ 0x3c
20001af6:	3704      	adds	r7, #4
20001af8:	f7fe fe4a 	bl	20000790 <cache_write>
20001afc:	e481      	b.n	20001402 <riscv_emu+0x3d2>
20001afe:	2001      	movs	r0, #1
20001b00:	f001 fcfa 	bl	200034f8 <sleep_ms>
20001b04:	e72a      	b.n	2000195c <riscv_emu+0x92c>
20001b06:	4bbb      	ldr	r3, [pc, #748]	@ (20001df4 <riscv_emu+0xdc4>)
20001b08:	4299      	cmp	r1, r3
20001b0a:	f000 828d 	beq.w	20002028 <riscv_emu+0xff8>
20001b0e:	f1b1 5f80 	cmp.w	r1, #268435456	@ 0x10000000
20001b12:	f47f ac9c 	bne.w	2000144e <riscv_emu+0x41e>
20001b16:	49b8      	ldr	r1, [pc, #736]	@ (20001df8 <riscv_emu+0xdc8>)
20001b18:	680b      	ldr	r3, [r1, #0]
20001b1a:	f3ef 8210 	mrs	r2, PRIMASK
20001b1e:	b672      	cpsid	i
20001b20:	e8d3 6fcf 	ldaexb	r6, [r3]
20001b24:	2001      	movs	r0, #1
20001b26:	2e00      	cmp	r6, #0
20001b28:	d1fa      	bne.n	20001b20 <riscv_emu+0xaf0>
20001b2a:	e8c3 0f46 	strexb	r6, r0, [r3]
20001b2e:	2e00      	cmp	r6, #0
20001b30:	d1f6      	bne.n	20001b20 <riscv_emu+0xaf0>
20001b32:	f3bf 8f5f 	dmb	sy
20001b36:	8908      	ldrh	r0, [r1, #8]
20001b38:	894b      	ldrh	r3, [r1, #10]
20001b3a:	1ac0      	subs	r0, r0, r3
20001b3c:	d502      	bpl.n	20001b44 <riscv_emu+0xb14>
20001b3e:	89cb      	ldrh	r3, [r1, #14]
20001b40:	3301      	adds	r3, #1
20001b42:	4418      	add	r0, r3
20001b44:	2300      	movs	r3, #0
20001b46:	6809      	ldr	r1, [r1, #0]
20001b48:	e8c1 3f8f 	stlb	r3, [r1]
20001b4c:	f382 8810 	msr	PRIMASK, r2
20001b50:	2800      	cmp	r0, #0
20001b52:	f43f ac7c 	beq.w	2000144e <riscv_emu+0x41e>
20001b56:	48a8      	ldr	r0, [pc, #672]	@ (20001df8 <riscv_emu+0xdc8>)
20001b58:	a90f      	add	r1, sp, #60	@ 0x3c
20001b5a:	f001 fe27 	bl	200037ac <queue_try_remove>
20001b5e:	2800      	cmp	r0, #0
20001b60:	f47f af62 	bne.w	20001a28 <riscv_emu+0x9f8>
20001b64:	f04f 35ff 	mov.w	r5, #4294967295
20001b68:	e471      	b.n	2000144e <riscv_emu+0x41e>
20001b6a:	f8cb 3098 	str.w	r3, [fp, #152]	@ 0x98
20001b6e:	e448      	b.n	20001402 <riscv_emu+0x3d2>
20001b70:	2204      	movs	r2, #4
20001b72:	f7ff bbe2 	b.w	2000133a <riscv_emu+0x30a>
20001b76:	f8db 20bc 	ldr.w	r2, [fp, #188]	@ 0xbc
20001b7a:	4639      	mov	r1, r7
20001b7c:	0793      	lsls	r3, r2, #30
20001b7e:	d053      	beq.n	20001c28 <riscv_emu+0xbf8>
20001b80:	220b      	movs	r2, #11
20001b82:	f7ff bbdc 	b.w	2000133e <riscv_emu+0x30e>
20001b86:	f5b8 7fa0 	cmp.w	r8, #320	@ 0x140
20001b8a:	f000 8271 	beq.w	20002070 <riscv_emu+0x1040>
20001b8e:	f5b8 7fa8 	cmp.w	r8, #336	@ 0x150
20001b92:	f000 8299 	beq.w	200020c8 <riscv_emu+0x1098>
20001b96:	f240 1155 	movw	r1, #341	@ 0x155
20001b9a:	4588      	cmp	r8, r1
20001b9c:	d147      	bne.n	20001c2e <riscv_emu+0xbfe>
20001b9e:	4997      	ldr	r1, [pc, #604]	@ (20001dfc <riscv_emu+0xdcc>)
20001ba0:	780d      	ldrb	r5, [r1, #0]
20001ba2:	3b02      	subs	r3, #2
20001ba4:	2b05      	cmp	r3, #5
20001ba6:	d83d      	bhi.n	20001c24 <riscv_emu+0xbf4>
20001ba8:	e8df f003 	tbb	[pc, r3]
20001bac:	703c9aa0 	.word	0x703c9aa0
20001bb0:	9d6f      	.short	0x9d6f
20001bb2:	2b00      	cmp	r3, #0
20001bb4:	f000 8235 	beq.w	20002022 <riscv_emu+0xff2>
20001bb8:	fbb1 f5f3 	udiv	r5, r1, r3
20001bbc:	fb03 1515 	mls	r5, r3, r5, r1
20001bc0:	e445      	b.n	2000144e <riscv_emu+0x41e>
20001bc2:	2b00      	cmp	r3, #0
20001bc4:	d0ce      	beq.n	20001b64 <riscv_emu+0xb34>
20001bc6:	fbb1 f5f3 	udiv	r5, r1, r3
20001bca:	e440      	b.n	2000144e <riscv_emu+0x41e>
20001bcc:	2b00      	cmp	r3, #0
20001bce:	f000 8228 	beq.w	20002022 <riscv_emu+0xff2>
20001bd2:	f1b1 4f00 	cmp.w	r1, #2147483648	@ 0x80000000
20001bd6:	f000 827a 	beq.w	200020ce <riscv_emu+0x109e>
20001bda:	fb91 f5f3 	sdiv	r5, r1, r3
20001bde:	fb03 1515 	mls	r5, r3, r5, r1
20001be2:	e434      	b.n	2000144e <riscv_emu+0x41e>
20001be4:	fb83 1501 	smull	r1, r5, r3, r1
20001be8:	e431      	b.n	2000144e <riscv_emu+0x41e>
20001bea:	fba3 1501 	umull	r1, r5, r3, r1
20001bee:	e42e      	b.n	2000144e <riscv_emu+0x41e>
20001bf0:	2b00      	cmp	r3, #0
20001bf2:	d0b7      	beq.n	20001b64 <riscv_emu+0xb34>
20001bf4:	f1b1 4f00 	cmp.w	r1, #2147483648	@ 0x80000000
20001bf8:	f000 8210 	beq.w	2000201c <riscv_emu+0xfec>
20001bfc:	fb91 f5f3 	sdiv	r5, r1, r3
20001c00:	e425      	b.n	2000144e <riscv_emu+0x41e>
20001c02:	fba1 2503 	umull	r2, r5, r1, r3
20001c06:	17c9      	asrs	r1, r1, #31
20001c08:	fb03 5501 	mla	r5, r3, r1, r5
20001c0c:	e41f      	b.n	2000144e <riscv_emu+0x41e>
20001c0e:	f8db 30bc 	ldr.w	r3, [fp, #188]	@ 0xbc
20001c12:	f020 4260 	bic.w	r2, r0, #3758096384	@ 0xe0000000
20001c16:	08db      	lsrs	r3, r3, #3
20001c18:	4293      	cmp	r3, r2
20001c1a:	bf14      	ite	ne
20001c1c:	2501      	movne	r5, #1
20001c1e:	2500      	moveq	r5, #0
20001c20:	f43f ae6d 	beq.w	200018fe <riscv_emu+0x8ce>
20001c24:	3704      	adds	r7, #4
20001c26:	e412      	b.n	2000144e <riscv_emu+0x41e>
20001c28:	2208      	movs	r2, #8
20001c2a:	f7ff bb88 	b.w	2000133e <riscv_emu+0x30e>
20001c2e:	3b02      	subs	r3, #2
20001c30:	2b05      	cmp	r3, #5
20001c32:	f200 81ce 	bhi.w	20001fd2 <riscv_emu+0xfa2>
20001c36:	e8df f013 	tbh	[pc, r3, lsl #1]
20001c3a:	0059      	.short	0x0059
20001c3c:	01cc0053 	.word	0x01cc0053
20001c40:	00280029 	.word	0x00280029
20001c44:	0056      	.short	0x0056
20001c46:	ea48 0805 	orr.w	r8, r8, r5
20001c4a:	e658      	b.n	200018fe <riscv_emu+0x8ce>
20001c4c:	45a8      	cmp	r8, r5
20001c4e:	bf38      	it	cc
20001c50:	46a8      	movcc	r8, r5
20001c52:	e654      	b.n	200018fe <riscv_emu+0x8ce>
20001c54:	44a8      	add	r8, r5
20001c56:	e652      	b.n	200018fe <riscv_emu+0x8ce>
20001c58:	f8db 30bc 	ldr.w	r3, [fp, #188]	@ 0xbc
20001c5c:	3704      	adds	r7, #4
20001c5e:	f003 0307 	and.w	r3, r3, #7
20001c62:	ea43 03c0 	orr.w	r3, r3, r0, lsl #3
20001c66:	f8cb 30bc 	str.w	r3, [fp, #188]	@ 0xbc
20001c6a:	f7ff bbf0 	b.w	2000144e <riscv_emu+0x41e>
20001c6e:	ea88 0805 	eor.w	r8, r8, r5
20001c72:	e644      	b.n	200018fe <riscv_emu+0x8ce>
20001c74:	45a8      	cmp	r8, r5
20001c76:	bfa8      	it	ge
20001c78:	46a8      	movge	r8, r5
20001c7a:	e640      	b.n	200018fe <riscv_emu+0x8ce>
20001c7c:	45a8      	cmp	r8, r5
20001c7e:	bfb8      	it	lt
20001c80:	46a8      	movlt	r8, r5
20001c82:	e63c      	b.n	200018fe <riscv_emu+0x8ce>
20001c84:	ea08 0805 	and.w	r8, r8, r5
20001c88:	e639      	b.n	200018fe <riscv_emu+0x8ce>
20001c8a:	432e      	orrs	r6, r5
20001c8c:	f5b8 7f51 	cmp.w	r8, #836	@ 0x344
20001c90:	d8c8      	bhi.n	20001c24 <riscv_emu+0xbf4>
20001c92:	f5b8 7f50 	cmp.w	r8, #832	@ 0x340
20001c96:	f0c0 81a5 	bcc.w	20001fe4 <riscv_emu+0xfb4>
20001c9a:	f46f 7150 	mvn.w	r1, #832	@ 0x340
20001c9e:	eb08 0301 	add.w	r3, r8, r1
20001ca2:	2b03      	cmp	r3, #3
20001ca4:	f200 813d 	bhi.w	20001f22 <riscv_emu+0xef2>
20001ca8:	e8df f003 	tbb	[pc, r3]
20001cac:	1503090f 	.word	0x1503090f
20001cb0:	4616      	mov	r6, r2
20001cb2:	f8cb 60b4 	str.w	r6, [fp, #180]	@ 0xb4
20001cb6:	3704      	adds	r7, #4
20001cb8:	f7ff bbc9 	b.w	2000144e <riscv_emu+0x41e>
20001cbc:	4616      	mov	r6, r2
20001cbe:	f8cb 60b8 	str.w	r6, [fp, #184]	@ 0xb8
20001cc2:	3704      	adds	r7, #4
20001cc4:	f7ff bbc3 	b.w	2000144e <riscv_emu+0x41e>
20001cc8:	4616      	mov	r6, r2
20001cca:	f8cb 60b0 	str.w	r6, [fp, #176]	@ 0xb0
20001cce:	3704      	adds	r7, #4
20001cd0:	f7ff bbbd 	b.w	2000144e <riscv_emu+0x41e>
20001cd4:	4616      	mov	r6, r2
20001cd6:	f8cb 60ac 	str.w	r6, [fp, #172]	@ 0xac
20001cda:	3704      	adds	r7, #4
20001cdc:	f7ff bbb7 	b.w	2000144e <riscv_emu+0x41e>
20001ce0:	ea25 0602 	bic.w	r6, r5, r2
20001ce4:	e7d2      	b.n	20001c8c <riscv_emu+0xc5c>
20001ce6:	ea25 0606 	bic.w	r6, r5, r6
20001cea:	e7cf      	b.n	20001c8c <riscv_emu+0xc5c>
20001cec:	ea42 0605 	orr.w	r6, r2, r5
20001cf0:	e7cc      	b.n	20001c8c <riscv_emu+0xc5c>
20001cf2:	3b02      	subs	r3, #2
20001cf4:	f8db 50b4 	ldr.w	r5, [fp, #180]	@ 0xb4
20001cf8:	2b05      	cmp	r3, #5
20001cfa:	d8d9      	bhi.n	20001cb0 <riscv_emu+0xc80>
20001cfc:	a101      	add	r1, pc, #4	@ (adr r1, 20001d04 <riscv_emu+0xcd4>)
20001cfe:	f851 f023 	ldr.w	pc, [r1, r3, lsl #2]
20001d02:	bf00      	nop
20001d04:	20001ced 	.word	0x20001ced
20001d08:	20001ce1 	.word	0x20001ce1
20001d0c:	20001cb1 	.word	0x20001cb1
20001d10:	20001c8d 	.word	0x20001c8d
20001d14:	20001c8b 	.word	0x20001c8b
20001d18:	20001ce7 	.word	0x20001ce7
20001d1c:	3b02      	subs	r3, #2
20001d1e:	f8db 50ac 	ldr.w	r5, [fp, #172]	@ 0xac
20001d22:	2b05      	cmp	r3, #5
20001d24:	d8d6      	bhi.n	20001cd4 <riscv_emu+0xca4>
20001d26:	a101      	add	r1, pc, #4	@ (adr r1, 20001d2c <riscv_emu+0xcfc>)
20001d28:	f851 f023 	ldr.w	pc, [r1, r3, lsl #2]
20001d2c:	20001ced 	.word	0x20001ced
20001d30:	20001ce1 	.word	0x20001ce1
20001d34:	20001cd5 	.word	0x20001cd5
20001d38:	20001c8d 	.word	0x20001c8d
20001d3c:	20001c8b 	.word	0x20001c8b
20001d40:	20001ce7 	.word	0x20001ce7
20001d44:	3b02      	subs	r3, #2
20001d46:	f8db 5084 	ldr.w	r5, [fp, #132]	@ 0x84
20001d4a:	2b05      	cmp	r3, #5
20001d4c:	f200 80dc 	bhi.w	20001f08 <riscv_emu+0xed8>
20001d50:	a101      	add	r1, pc, #4	@ (adr r1, 20001d58 <riscv_emu+0xd28>)
20001d52:	f851 f023 	ldr.w	pc, [r1, r3, lsl #2]
20001d56:	bf00      	nop
20001d58:	20001ced 	.word	0x20001ced
20001d5c:	20001ce1 	.word	0x20001ce1
20001d60:	20001f09 	.word	0x20001f09
20001d64:	20001c8d 	.word	0x20001c8d
20001d68:	20001c8b 	.word	0x20001c8b
20001d6c:	20001ce7 	.word	0x20001ce7
20001d70:	3b02      	subs	r3, #2
20001d72:	f8db 50a4 	ldr.w	r5, [fp, #164]	@ 0xa4
20001d76:	2b05      	cmp	r3, #5
20001d78:	f200 80d8 	bhi.w	20001f2c <riscv_emu+0xefc>
20001d7c:	a101      	add	r1, pc, #4	@ (adr r1, 20001d84 <riscv_emu+0xd54>)
20001d7e:	f851 f023 	ldr.w	pc, [r1, r3, lsl #2]
20001d82:	bf00      	nop
20001d84:	20001ced 	.word	0x20001ced
20001d88:	20001ce1 	.word	0x20001ce1
20001d8c:	20001f2d 	.word	0x20001f2d
20001d90:	20001c8d 	.word	0x20001c8d
20001d94:	20001c8b 	.word	0x20001c8b
20001d98:	20001ce7 	.word	0x20001ce7
20001d9c:	3b02      	subs	r3, #2
20001d9e:	f8db 50a8 	ldr.w	r5, [fp, #168]	@ 0xa8
20001da2:	2b05      	cmp	r3, #5
20001da4:	f200 80b6 	bhi.w	20001f14 <riscv_emu+0xee4>
20001da8:	a101      	add	r1, pc, #4	@ (adr r1, 20001db0 <riscv_emu+0xd80>)
20001daa:	f851 f023 	ldr.w	pc, [r1, r3, lsl #2]
20001dae:	bf00      	nop
20001db0:	20001ced 	.word	0x20001ced
20001db4:	20001ce1 	.word	0x20001ce1
20001db8:	20001f15 	.word	0x20001f15
20001dbc:	20001c8d 	.word	0x20001c8d
20001dc0:	20001c8b 	.word	0x20001c8b
20001dc4:	20001ce7 	.word	0x20001ce7
20001dc8:	3b02      	subs	r3, #2
20001dca:	f8db 50b0 	ldr.w	r5, [fp, #176]	@ 0xb0
20001dce:	2b05      	cmp	r3, #5
20001dd0:	f63f af7a 	bhi.w	20001cc8 <riscv_emu+0xc98>
20001dd4:	a101      	add	r1, pc, #4	@ (adr r1, 20001ddc <riscv_emu+0xdac>)
20001dd6:	f851 f023 	ldr.w	pc, [r1, r3, lsl #2]
20001dda:	bf00      	nop
20001ddc:	20001ced 	.word	0x20001ced
20001de0:	20001ce1 	.word	0x20001ce1
20001de4:	20001cc9 	.word	0x20001cc9
20001de8:	20001c8d 	.word	0x20001c8d
20001dec:	20001c8b 	.word	0x20001c8b
20001df0:	20001ce7 	.word	0x20001ce7
20001df4:	10000005 	.word	0x10000005
20001df8:	2005a70c 	.word	0x2005a70c
20001dfc:	2005afcb 	.word	0x2005afcb
20001e00:	3b02      	subs	r3, #2
20001e02:	f8db 50a0 	ldr.w	r5, [fp, #160]	@ 0xa0
20001e06:	2b05      	cmp	r3, #5
20001e08:	f200 808a 	bhi.w	20001f20 <riscv_emu+0xef0>
20001e0c:	a101      	add	r1, pc, #4	@ (adr r1, 20001e14 <riscv_emu+0xde4>)
20001e0e:	f851 f023 	ldr.w	pc, [r1, r3, lsl #2]
20001e12:	bf00      	nop
20001e14:	20001ced 	.word	0x20001ced
20001e18:	20001ce1 	.word	0x20001ce1
20001e1c:	20001f21 	.word	0x20001f21
20001e20:	20001c8d 	.word	0x20001c8d
20001e24:	20001c8b 	.word	0x20001c8b
20001e28:	20001ce7 	.word	0x20001ce7
20001e2c:	3b02      	subs	r3, #2
20001e2e:	f8db 50b8 	ldr.w	r5, [fp, #184]	@ 0xb8
20001e32:	2b05      	cmp	r3, #5
20001e34:	f63f af42 	bhi.w	20001cbc <riscv_emu+0xc8c>
20001e38:	a101      	add	r1, pc, #4	@ (adr r1, 20001e40 <riscv_emu+0xe10>)
20001e3a:	f851 f023 	ldr.w	pc, [r1, r3, lsl #2]
20001e3e:	bf00      	nop
20001e40:	20001ced 	.word	0x20001ced
20001e44:	20001ce1 	.word	0x20001ce1
20001e48:	20001cbd 	.word	0x20001cbd
20001e4c:	20001c8d 	.word	0x20001c8d
20001e50:	20001c8b 	.word	0x20001c8b
20001e54:	20001ce7 	.word	0x20001ce7
20001e58:	4db4      	ldr	r5, [pc, #720]	@ (2000212c <riscv_emu+0x10fc>)
20001e5a:	3b02      	subs	r3, #2
20001e5c:	2b05      	cmp	r3, #5
20001e5e:	d80f      	bhi.n	20001e80 <riscv_emu+0xe50>
20001e60:	a101      	add	r1, pc, #4	@ (adr r1, 20001e68 <riscv_emu+0xe38>)
20001e62:	f851 f023 	ldr.w	pc, [r1, r3, lsl #2]
20001e66:	bf00      	nop
20001e68:	20001ced 	.word	0x20001ced
20001e6c:	20001ce1 	.word	0x20001ce1
20001e70:	20001e81 	.word	0x20001e81
20001e74:	20001c8d 	.word	0x20001c8d
20001e78:	20001c8b 	.word	0x20001c8b
20001e7c:	20001ce7 	.word	0x20001ce7
20001e80:	4616      	mov	r6, r2
20001e82:	f46f 729c 	mvn.w	r2, #312	@ 0x138
20001e86:	eb08 0302 	add.w	r3, r8, r2
20001e8a:	2b1b      	cmp	r3, #27
20001e8c:	f63f aeca 	bhi.w	20001c24 <riscv_emu+0xbf4>
20001e90:	a201      	add	r2, pc, #4	@ (adr r2, 20001e98 <riscv_emu+0xe68>)
20001e92:	f852 f023 	ldr.w	pc, [r2, r3, lsl #2]
20001e96:	bf00      	nop
20001e98:	20001fc7 	.word	0x20001fc7
20001e9c:	20001c25 	.word	0x20001c25
20001ea0:	20001c25 	.word	0x20001c25
20001ea4:	20001c25 	.word	0x20001c25
20001ea8:	20001c25 	.word	0x20001c25
20001eac:	20001c25 	.word	0x20001c25
20001eb0:	20001c25 	.word	0x20001c25
20001eb4:	20001c25 	.word	0x20001c25
20001eb8:	20001c25 	.word	0x20001c25
20001ebc:	20001c25 	.word	0x20001c25
20001ec0:	20001c25 	.word	0x20001c25
20001ec4:	20001c25 	.word	0x20001c25
20001ec8:	20001c25 	.word	0x20001c25
20001ecc:	20001c25 	.word	0x20001c25
20001ed0:	20001c25 	.word	0x20001c25
20001ed4:	20001c25 	.word	0x20001c25
20001ed8:	20001c25 	.word	0x20001c25
20001edc:	20001c25 	.word	0x20001c25
20001ee0:	20001c25 	.word	0x20001c25
20001ee4:	20001c25 	.word	0x20001c25
20001ee8:	20001c25 	.word	0x20001c25
20001eec:	20001c25 	.word	0x20001c25
20001ef0:	20001c25 	.word	0x20001c25
20001ef4:	20001c25 	.word	0x20001c25
20001ef8:	20001fb9 	.word	0x20001fb9
20001efc:	20001fa5 	.word	0x20001fa5
20001f00:	20001f9b 	.word	0x20001f9b
20001f04:	20001f39 	.word	0x20001f39
20001f08:	4616      	mov	r6, r2
20001f0a:	f8cb 6084 	str.w	r6, [fp, #132]	@ 0x84
20001f0e:	3704      	adds	r7, #4
20001f10:	f7ff ba9d 	b.w	2000144e <riscv_emu+0x41e>
20001f14:	4616      	mov	r6, r2
20001f16:	f8cb 60a8 	str.w	r6, [fp, #168]	@ 0xa8
20001f1a:	3704      	adds	r7, #4
20001f1c:	f7ff ba97 	b.w	2000144e <riscv_emu+0x41e>
20001f20:	4616      	mov	r6, r2
20001f22:	f8cb 60a0 	str.w	r6, [fp, #160]	@ 0xa0
20001f26:	3704      	adds	r7, #4
20001f28:	f7ff ba91 	b.w	2000144e <riscv_emu+0x41e>
20001f2c:	4616      	mov	r6, r2
20001f2e:	f8cb 60a4 	str.w	r6, [fp, #164]	@ 0xa4
20001f32:	3704      	adds	r7, #4
20001f34:	f7ff ba8b 	b.w	2000144e <riscv_emu+0x41e>
20001f38:	4b7d      	ldr	r3, [pc, #500]	@ (20002130 <riscv_emu+0x1100>)
20001f3a:	681b      	ldr	r3, [r3, #0]
20001f3c:	0a5b      	lsrs	r3, r3, #9
20001f3e:	1e5a      	subs	r2, r3, #1
20001f40:	9208      	str	r2, [sp, #32]
20001f42:	2b00      	cmp	r3, #0
20001f44:	f43f ae6e 	beq.w	20001c24 <riscv_emu+0xbf4>
20001f48:	f8df 8204 	ldr.w	r8, [pc, #516]	@ 20002150 <riscv_emu+0x1120>
20001f4c:	4979      	ldr	r1, [pc, #484]	@ (20002134 <riscv_emu+0x1104>)
20001f4e:	2e00      	cmp	r6, #0
20001f50:	f000 80c5 	beq.w	200020de <riscv_emu+0x10ae>
20001f54:	950b      	str	r5, [sp, #44]	@ 0x2c
20001f56:	460d      	mov	r5, r1
20001f58:	e9cd a409 	strd	sl, r4, [sp, #36]	@ 0x24
20001f5c:	4e76      	ldr	r6, [pc, #472]	@ (20002138 <riscv_emu+0x1108>)
20001f5e:	f8dd a020 	ldr.w	sl, [sp, #32]
20001f62:	6830      	ldr	r0, [r6, #0]
20001f64:	4c75      	ldr	r4, [pc, #468]	@ (2000213c <riscv_emu+0x110c>)
20001f66:	2204      	movs	r2, #4
20001f68:	a90f      	add	r1, sp, #60	@ 0x3c
20001f6a:	f7fe faef 	bl	2000054c <cache_read>
20001f6e:	9b0f      	ldr	r3, [sp, #60]	@ 0x3c
20001f70:	6830      	ldr	r0, [r6, #0]
20001f72:	f844 3f04 	str.w	r3, [r4, #4]!
20001f76:	3004      	adds	r0, #4
20001f78:	4544      	cmp	r4, r8
20001f7a:	6030      	str	r0, [r6, #0]
20001f7c:	d1f3      	bne.n	20001f66 <riscv_emu+0xf36>
20001f7e:	f44f 7100 	mov.w	r1, #512	@ 0x200
20001f82:	486f      	ldr	r0, [pc, #444]	@ (20002140 <riscv_emu+0x1110>)
20001f84:	aa0f      	add	r2, sp, #60	@ 0x3c
20001f86:	f004 feaf 	bl	20006ce8 <pf_write>
20001f8a:	f1ba 0a01 	subs.w	sl, sl, #1
20001f8e:	7028      	strb	r0, [r5, #0]
20001f90:	d2e7      	bcs.n	20001f62 <riscv_emu+0xf32>
20001f92:	e9dd a409 	ldrd	sl, r4, [sp, #36]	@ 0x24
20001f96:	9d0b      	ldr	r5, [sp, #44]	@ 0x2c
20001f98:	e644      	b.n	20001c24 <riscv_emu+0xbf4>
20001f9a:	4b65      	ldr	r3, [pc, #404]	@ (20002130 <riscv_emu+0x1100>)
20001f9c:	3704      	adds	r7, #4
20001f9e:	601e      	str	r6, [r3, #0]
20001fa0:	f7ff ba55 	b.w	2000144e <riscv_emu+0x41e>
20001fa4:	4b67      	ldr	r3, [pc, #412]	@ (20002144 <riscv_emu+0x1114>)
20001fa6:	4630      	mov	r0, r6
20001fa8:	601e      	str	r6, [r3, #0]
20001faa:	f004 ff35 	bl	20006e18 <pf_lseek>
20001fae:	4961      	ldr	r1, [pc, #388]	@ (20002134 <riscv_emu+0x1104>)
20001fb0:	3704      	adds	r7, #4
20001fb2:	7008      	strb	r0, [r1, #0]
20001fb4:	f7ff ba4b 	b.w	2000144e <riscv_emu+0x41e>
20001fb8:	f106 4300 	add.w	r3, r6, #2147483648	@ 0x80000000
20001fbc:	4e5e      	ldr	r6, [pc, #376]	@ (20002138 <riscv_emu+0x1108>)
20001fbe:	3704      	adds	r7, #4
20001fc0:	6033      	str	r3, [r6, #0]
20001fc2:	f7ff ba44 	b.w	2000144e <riscv_emu+0x41e>
20001fc6:	b2f0      	uxtb	r0, r6
20001fc8:	f7fe fdb4 	bl	20000b34 <console_putc>
20001fcc:	3704      	adds	r7, #4
20001fce:	f7ff ba3e 	b.w	2000144e <riscv_emu+0x41e>
20001fd2:	f5b8 7f51 	cmp.w	r8, #836	@ 0x344
20001fd6:	f63f ae25 	bhi.w	20001c24 <riscv_emu+0xbf4>
20001fda:	4616      	mov	r6, r2
20001fdc:	f5b8 7f40 	cmp.w	r8, #768	@ 0x300
20001fe0:	d093      	beq.n	20001f0a <riscv_emu+0xeda>
20001fe2:	e74e      	b.n	20001e82 <riscv_emu+0xe52>
20001fe4:	f5b8 7f41 	cmp.w	r8, #772	@ 0x304
20001fe8:	d095      	beq.n	20001f16 <riscv_emu+0xee6>
20001fea:	f240 3305 	movw	r3, #773	@ 0x305
20001fee:	4598      	cmp	r8, r3
20001ff0:	d1f4      	bne.n	20001fdc <riscv_emu+0xfac>
20001ff2:	e79c      	b.n	20001f2e <riscv_emu+0xefe>
20001ff4:	3b02      	subs	r3, #2
20001ff6:	4655      	mov	r5, sl
20001ff8:	2b05      	cmp	r3, #5
20001ffa:	f63f ae13 	bhi.w	20001c24 <riscv_emu+0xbf4>
20001ffe:	a101      	add	r1, pc, #4	@ (adr r1, 20002004 <riscv_emu+0xfd4>)
20002000:	f851 f023 	ldr.w	pc, [r1, r3, lsl #2]
20002004:	20001ced 	.word	0x20001ced
20002008:	20001ce1 	.word	0x20001ce1
2000200c:	20001c25 	.word	0x20001c25
20002010:	20001c25 	.word	0x20001c25
20002014:	20001c8b 	.word	0x20001c8b
20002018:	20001ce7 	.word	0x20001ce7
2000201c:	1c5a      	adds	r2, r3, #1
2000201e:	f47f aded 	bne.w	20001bfc <riscv_emu+0xbcc>
20002022:	460d      	mov	r5, r1
20002024:	f7ff ba13 	b.w	2000144e <riscv_emu+0x41e>
20002028:	4947      	ldr	r1, [pc, #284]	@ (20002148 <riscv_emu+0x1118>)
2000202a:	680b      	ldr	r3, [r1, #0]
2000202c:	f3ef 8010 	mrs	r0, PRIMASK
20002030:	b672      	cpsid	i
20002032:	e8d3 5fcf 	ldaexb	r5, [r3]
20002036:	2201      	movs	r2, #1
20002038:	2d00      	cmp	r5, #0
2000203a:	d1fa      	bne.n	20002032 <riscv_emu+0x1002>
2000203c:	e8c3 2f45 	strexb	r5, r2, [r3]
20002040:	2d00      	cmp	r5, #0
20002042:	d1f6      	bne.n	20002032 <riscv_emu+0x1002>
20002044:	f3bf 8f5f 	dmb	sy
20002048:	890b      	ldrh	r3, [r1, #8]
2000204a:	894a      	ldrh	r2, [r1, #10]
2000204c:	1a9b      	subs	r3, r3, r2
2000204e:	d502      	bpl.n	20002056 <riscv_emu+0x1026>
20002050:	89ca      	ldrh	r2, [r1, #14]
20002052:	3201      	adds	r2, #1
20002054:	4413      	add	r3, r2
20002056:	2200      	movs	r2, #0
20002058:	6809      	ldr	r1, [r1, #0]
2000205a:	e8c1 2f8f 	stlb	r2, [r1]
2000205e:	f380 8810 	msr	PRIMASK, r0
20002062:	1a9b      	subs	r3, r3, r2
20002064:	bf18      	it	ne
20002066:	2301      	movne	r3, #1
20002068:	f043 0560 	orr.w	r5, r3, #96	@ 0x60
2000206c:	f7ff b9ef 	b.w	2000144e <riscv_emu+0x41e>
20002070:	4935      	ldr	r1, [pc, #212]	@ (20002148 <riscv_emu+0x1118>)
20002072:	6808      	ldr	r0, [r1, #0]
20002074:	f3ef 8e10 	mrs	lr, PRIMASK
20002078:	b672      	cpsid	i
2000207a:	e8d0 cfcf 	ldaexb	ip, [r0]
2000207e:	2501      	movs	r5, #1
20002080:	f1bc 0f00 	cmp.w	ip, #0
20002084:	d1f9      	bne.n	2000207a <riscv_emu+0x104a>
20002086:	e8c0 5f4c 	strexb	ip, r5, [r0]
2000208a:	f1bc 0f00 	cmp.w	ip, #0
2000208e:	d1f4      	bne.n	2000207a <riscv_emu+0x104a>
20002090:	f3bf 8f5f 	dmb	sy
20002094:	8908      	ldrh	r0, [r1, #8]
20002096:	894d      	ldrh	r5, [r1, #10]
20002098:	1b40      	subs	r0, r0, r5
2000209a:	d502      	bpl.n	200020a2 <riscv_emu+0x1072>
2000209c:	89cd      	ldrh	r5, [r1, #14]
2000209e:	3501      	adds	r5, #1
200020a0:	4428      	add	r0, r5
200020a2:	680d      	ldr	r5, [r1, #0]
200020a4:	2100      	movs	r1, #0
200020a6:	e8c5 1f8f 	stlb	r1, [r5]
200020aa:	f38e 8810 	msr	PRIMASK, lr
200020ae:	b198      	cbz	r0, 200020d8 <riscv_emu+0x10a8>
200020b0:	4825      	ldr	r0, [pc, #148]	@ (20002148 <riscv_emu+0x1118>)
200020b2:	a90f      	add	r1, sp, #60	@ 0x3c
200020b4:	e9cd 3208 	strd	r3, r2, [sp, #32]
200020b8:	f001 fb78 	bl	200037ac <queue_try_remove>
200020bc:	e9dd 3208 	ldrd	r3, r2, [sp, #32]
200020c0:	b150      	cbz	r0, 200020d8 <riscv_emu+0x10a8>
200020c2:	f89d 503c 	ldrb.w	r5, [sp, #60]	@ 0x3c
200020c6:	e6c8      	b.n	20001e5a <riscv_emu+0xe2a>
200020c8:	4920      	ldr	r1, [pc, #128]	@ (2000214c <riscv_emu+0x111c>)
200020ca:	680d      	ldr	r5, [r1, #0]
200020cc:	e569      	b.n	20001ba2 <riscv_emu+0xb72>
200020ce:	1c5e      	adds	r6, r3, #1
200020d0:	f47f ad83 	bne.w	20001bda <riscv_emu+0xbaa>
200020d4:	f7ff b9bb 	b.w	2000144e <riscv_emu+0x41e>
200020d8:	f04f 35ff 	mov.w	r5, #4294967295
200020dc:	e6bd      	b.n	20001e5a <riscv_emu+0xe2a>
200020de:	4e16      	ldr	r6, [pc, #88]	@ (20002138 <riscv_emu+0x1108>)
200020e0:	e9cd a409 	strd	sl, r4, [sp, #36]	@ 0x24
200020e4:	4633      	mov	r3, r6
200020e6:	460c      	mov	r4, r1
200020e8:	462e      	mov	r6, r5
200020ea:	461d      	mov	r5, r3
200020ec:	f44f 7100 	mov.w	r1, #512	@ 0x200
200020f0:	4813      	ldr	r0, [pc, #76]	@ (20002140 <riscv_emu+0x1110>)
200020f2:	aa0e      	add	r2, sp, #56	@ 0x38
200020f4:	f004 fd8e 	bl	20006c14 <pf_read>
200020f8:	f8df a040 	ldr.w	sl, [pc, #64]	@ 2000213c <riscv_emu+0x110c>
200020fc:	7020      	strb	r0, [r4, #0]
200020fe:	6828      	ldr	r0, [r5, #0]
20002100:	f85a 3f04 	ldr.w	r3, [sl, #4]!
20002104:	2204      	movs	r2, #4
20002106:	a90f      	add	r1, sp, #60	@ 0x3c
20002108:	930f      	str	r3, [sp, #60]	@ 0x3c
2000210a:	f7fe fb41 	bl	20000790 <cache_write>
2000210e:	6828      	ldr	r0, [r5, #0]
20002110:	45d0      	cmp	r8, sl
20002112:	f100 0004 	add.w	r0, r0, #4
20002116:	6028      	str	r0, [r5, #0]
20002118:	d1f2      	bne.n	20002100 <riscv_emu+0x10d0>
2000211a:	9b08      	ldr	r3, [sp, #32]
2000211c:	3b01      	subs	r3, #1
2000211e:	9308      	str	r3, [sp, #32]
20002120:	3301      	adds	r3, #1
20002122:	d1e3      	bne.n	200020ec <riscv_emu+0x10bc>
20002124:	e9dd a409 	ldrd	sl, r4, [sp, #36]	@ 0x24
20002128:	4635      	mov	r5, r6
2000212a:	e57b      	b.n	20001c24 <riscv_emu+0xbf4>
2000212c:	40401101 	.word	0x40401101
20002130:	20011bcc 	.word	0x20011bcc
20002134:	2005afcb 	.word	0x2005afcb
20002138:	20011bc8 	.word	0x20011bc8
2000213c:	200119c0 	.word	0x200119c0
20002140:	200119c4 	.word	0x200119c4
20002144:	20011bc4 	.word	0x20011bc4
20002148:	2005a70c 	.word	0x2005a70c
2000214c:	2000f8a8 	.word	0x2000f8a8
20002150:	20011bc0 	.word	0x20011bc0
20002154:	f245 5255 	movw	r2, #21845	@ 0x5555
20002158:	e9dd 6501 	ldrd	r6, r5, [sp, #4]
2000215c:	4293      	cmp	r3, r2
2000215e:	f8dd 800c 	ldr.w	r8, [sp, #12]
20002162:	f8cb 7080 	str.w	r7, [fp, #128]	@ 0x80
20002166:	d016      	beq.n	20002196 <riscv_emu+0x1166>
20002168:	f63f aae6 	bhi.w	20001738 <riscv_emu+0x708>
2000216c:	2b03      	cmp	r3, #3
2000216e:	d11b      	bne.n	200021a8 <riscv_emu+0x1178>
20002170:	9b05      	ldr	r3, [sp, #20]
20002172:	f04f 0800 	mov.w	r8, #0
20002176:	18f3      	adds	r3, r6, r3
20002178:	9305      	str	r3, [sp, #20]
2000217a:	9b06      	ldr	r3, [sp, #24]
2000217c:	f8cd 801c 	str.w	r8, [sp, #28]
20002180:	195b      	adds	r3, r3, r5
20002182:	461d      	mov	r5, r3
20002184:	9b04      	ldr	r3, [sp, #16]
20002186:	f143 0300 	adc.w	r3, r3, #0
2000218a:	9304      	str	r3, [sp, #16]
2000218c:	432b      	orrs	r3, r5
2000218e:	f43f a812 	beq.w	200011b6 <riscv_emu+0x186>
20002192:	f7ff badd 	b.w	20001750 <riscv_emu+0x720>
20002196:	4813      	ldr	r0, [pc, #76]	@ (200021e4 <riscv_emu+0x11b4>)
20002198:	e9db 2122 	ldrd	r2, r1, [fp, #136]	@ 0x88
2000219c:	f7fe fd00 	bl	20000ba0 <console_printf>
200021a0:	2000      	movs	r0, #0
200021a2:	b013      	add	sp, #76	@ 0x4c
200021a4:	e8bd 8ff0 	ldmia.w	sp!, {r4, r5, r6, r7, r8, r9, sl, fp, pc}
200021a8:	d803      	bhi.n	200021b2 <riscv_emu+0x1182>
200021aa:	b14b      	cbz	r3, 200021c0 <riscv_emu+0x1190>
200021ac:	2b01      	cmp	r3, #1
200021ae:	f43f abd0 	beq.w	20001952 <riscv_emu+0x922>
200021b2:	480d      	ldr	r0, [pc, #52]	@ (200021e8 <riscv_emu+0x11b8>)
200021b4:	f7fe fcf4 	bl	20000ba0 <console_printf>
200021b8:	2002      	movs	r0, #2
200021ba:	b013      	add	sp, #76	@ 0x4c
200021bc:	e8bd 8ff0 	ldmia.w	sp!, {r4, r5, r6, r7, r8, r9, sl, fp, pc}
200021c0:	9b06      	ldr	r3, [sp, #24]
200021c2:	17db      	asrs	r3, r3, #31
200021c4:	f7ff b934 	b.w	20001430 <riscv_emu+0x400>
200021c8:	4a08      	ldr	r2, [pc, #32]	@ (200021ec <riscv_emu+0x11bc>)
200021ca:	43b2      	bics	r2, r6
200021cc:	d106      	bne.n	200021dc <riscv_emu+0x11ac>
200021ce:	1acd      	subs	r5, r1, r3
200021d0:	f7ff b93d 	b.w	2000144e <riscv_emu+0x41e>
200021d4:	fb03 f501 	mul.w	r5, r3, r1
200021d8:	f7ff b939 	b.w	2000144e <riscv_emu+0x41e>
200021dc:	18cd      	adds	r5, r1, r3
200021de:	f7ff b936 	b.w	2000144e <riscv_emu+0x41e>
200021e2:	bf00      	nop
200021e4:	2000e9f0 	.word	0x2000e9f0
200021e8:	2000ea08 	.word	0x2000ea08
200021ec:	40000020 	.word	0x40000020

200021f0 <usb_serial_init>:
200021f0:	b510      	push	{r4, lr}
200021f2:	4c4d      	ldr	r4, [pc, #308]	@ (20002328 <usb_serial_init+0x138>)
200021f4:	4620      	mov	r0, r4
200021f6:	f002 fb2f 	bl	20004858 <pico_get_unique_board_id>
200021fa:	2000      	movs	r0, #0
200021fc:	7822      	ldrb	r2, [r4, #0]
200021fe:	7020      	strb	r0, [r4, #0]
20002200:	2000      	movs	r0, #0
20002202:	4b4a      	ldr	r3, [pc, #296]	@ (2000232c <usb_serial_init+0x13c>)
20002204:	0911      	lsrs	r1, r2, #4
20002206:	2a9f      	cmp	r2, #159	@ 0x9f
20002208:	f002 020f 	and.w	r2, r2, #15
2000220c:	bf8c      	ite	hi
2000220e:	3137      	addhi	r1, #55	@ 0x37
20002210:	3130      	addls	r1, #48	@ 0x30
20002212:	2a09      	cmp	r2, #9
20002214:	7019      	strb	r1, [r3, #0]
20002216:	bf8c      	ite	hi
20002218:	f102 0137 	addhi.w	r1, r2, #55	@ 0x37
2000221c:	f102 0130 	addls.w	r1, r2, #48	@ 0x30
20002220:	7862      	ldrb	r2, [r4, #1]
20002222:	7060      	strb	r0, [r4, #1]
20002224:	2000      	movs	r0, #0
20002226:	2a9f      	cmp	r2, #159	@ 0x9f
20002228:	7059      	strb	r1, [r3, #1]
2000222a:	ea4f 1112 	mov.w	r1, r2, lsr #4
2000222e:	f002 020f 	and.w	r2, r2, #15
20002232:	bf8c      	ite	hi
20002234:	3137      	addhi	r1, #55	@ 0x37
20002236:	3130      	addls	r1, #48	@ 0x30
20002238:	2a09      	cmp	r2, #9
2000223a:	7099      	strb	r1, [r3, #2]
2000223c:	bf8c      	ite	hi
2000223e:	f102 0137 	addhi.w	r1, r2, #55	@ 0x37
20002242:	f102 0130 	addls.w	r1, r2, #48	@ 0x30
20002246:	78a2      	ldrb	r2, [r4, #2]
20002248:	70a0      	strb	r0, [r4, #2]
2000224a:	2000      	movs	r0, #0
2000224c:	2a9f      	cmp	r2, #159	@ 0x9f
2000224e:	70d9      	strb	r1, [r3, #3]
20002250:	ea4f 1112 	mov.w	r1, r2, lsr #4
20002254:	f002 020f 	and.w	r2, r2, #15
20002258:	bf8c      	ite	hi
2000225a:	3137      	addhi	r1, #55	@ 0x37
2000225c:	3130      	addls	r1, #48	@ 0x30
2000225e:	2a09      	cmp	r2, #9
20002260:	7119      	strb	r1, [r3, #4]
20002262:	bf8c      	ite	hi
20002264:	f102 0137 	addhi.w	r1, r2, #55	@ 0x37
20002268:	f102 0130 	addls.w	r1, r2, #48	@ 0x30
2000226c:	78e2      	ldrb	r2, [r4, #3]
2000226e:	70e0      	strb	r0, [r4, #3]
20002270:	2000      	movs	r0, #0
20002272:	2a9f      	cmp	r2, #159	@ 0x9f
20002274:	7159      	strb	r1, [r3, #5]
20002276:	ea4f 1112 	mov.w	r1, r2, lsr #4
2000227a:	f002 020f 	and.w	r2, r2, #15
2000227e:	bf8c      	ite	hi
20002280:	3137      	addhi	r1, #55	@ 0x37
20002282:	3130      	addls	r1, #48	@ 0x30
20002284:	2a09      	cmp	r2, #9
20002286:	7199      	strb	r1, [r3, #6]
20002288:	bf8c      	ite	hi
2000228a:	f102 0137 	addhi.w	r1, r2, #55	@ 0x37
2000228e:	f102 0130 	addls.w	r1, r2, #48	@ 0x30
20002292:	7922      	ldrb	r2, [r4, #4]
20002294:	7120      	strb	r0, [r4, #4]
20002296:	2000      	movs	r0, #0
20002298:	2a9f      	cmp	r2, #159	@ 0x9f
2000229a:	71d9      	strb	r1, [r3, #7]
2000229c:	ea4f 1112 	mov.w	r1, r2, lsr #4
200022a0:	f002 020f 	and.w	r2, r2, #15
200022a4:	bf8c      	ite	hi
200022a6:	3137      	addhi	r1, #55	@ 0x37
200022a8:	3130      	addls	r1, #48	@ 0x30
200022aa:	2a09      	cmp	r2, #9
200022ac:	7219      	strb	r1, [r3, #8]
200022ae:	bf8c      	ite	hi
200022b0:	f102 0137 	addhi.w	r1, r2, #55	@ 0x37
200022b4:	f102 0130 	addls.w	r1, r2, #48	@ 0x30
200022b8:	7962      	ldrb	r2, [r4, #5]
200022ba:	7160      	strb	r0, [r4, #5]
200022bc:	2000      	movs	r0, #0
200022be:	2a9f      	cmp	r2, #159	@ 0x9f
200022c0:	7259      	strb	r1, [r3, #9]
200022c2:	ea4f 1112 	mov.w	r1, r2, lsr #4
200022c6:	f002 020f 	and.w	r2, r2, #15
200022ca:	bf8c      	ite	hi
200022cc:	3137      	addhi	r1, #55	@ 0x37
200022ce:	3130      	addls	r1, #48	@ 0x30
200022d0:	2a09      	cmp	r2, #9
200022d2:	7299      	strb	r1, [r3, #10]
200022d4:	bf8c      	ite	hi
200022d6:	f102 0137 	addhi.w	r1, r2, #55	@ 0x37
200022da:	f102 0130 	addls.w	r1, r2, #48	@ 0x30
200022de:	79a2      	ldrb	r2, [r4, #6]
200022e0:	71a0      	strb	r0, [r4, #6]
200022e2:	2000      	movs	r0, #0
200022e4:	2a9f      	cmp	r2, #159	@ 0x9f
200022e6:	72d9      	strb	r1, [r3, #11]
200022e8:	ea4f 1112 	mov.w	r1, r2, lsr #4
200022ec:	f002 020f 	and.w	r2, r2, #15
200022f0:	bf8c      	ite	hi
200022f2:	3137      	addhi	r1, #55	@ 0x37
200022f4:	3130      	addls	r1, #48	@ 0x30
200022f6:	2a09      	cmp	r2, #9
200022f8:	7319      	strb	r1, [r3, #12]
200022fa:	bf8c      	ite	hi
200022fc:	f102 0137 	addhi.w	r1, r2, #55	@ 0x37
20002300:	f102 0130 	addls.w	r1, r2, #48	@ 0x30
20002304:	79e2      	ldrb	r2, [r4, #7]
20002306:	7359      	strb	r1, [r3, #13]
20002308:	2a9f      	cmp	r2, #159	@ 0x9f
2000230a:	ea4f 1112 	mov.w	r1, r2, lsr #4
2000230e:	f002 020f 	and.w	r2, r2, #15
20002312:	bf8c      	ite	hi
20002314:	3137      	addhi	r1, #55	@ 0x37
20002316:	3130      	addls	r1, #48	@ 0x30
20002318:	2a09      	cmp	r2, #9
2000231a:	bf94      	ite	ls
2000231c:	3230      	addls	r2, #48	@ 0x30
2000231e:	3237      	addhi	r2, #55	@ 0x37
20002320:	7399      	strb	r1, [r3, #14]
20002322:	71e0      	strb	r0, [r4, #7]
20002324:	73da      	strb	r2, [r3, #15]
20002326:	bd10      	pop	{r4, pc}
20002328:	2005ae60 	.word	0x2005ae60
2000232c:	2005ae68 	.word	0x2005ae68

20002330 <tud_descriptor_device_cb>:
20002330:	4800      	ldr	r0, [pc, #0]	@ (20002334 <tud_descriptor_device_cb+0x4>)
20002332:	4770      	bx	lr
20002334:	2000f36c 	.word	0x2000f36c

20002338 <tud_descriptor_configuration_cb>:
20002338:	4800      	ldr	r0, [pc, #0]	@ (2000233c <tud_descriptor_configuration_cb+0x4>)
2000233a:	4770      	bx	lr
2000233c:	2000f320 	.word	0x2000f320

20002340 <tud_descriptor_string_cb>:
20002340:	b538      	push	{r3, r4, r5, lr}
20002342:	4604      	mov	r4, r0
20002344:	f7ff ff54 	bl	200021f0 <usb_serial_init>
20002348:	b94c      	cbnz	r4, 2000235e <tud_descriptor_string_cb+0x1e>
2000234a:	4b17      	ldr	r3, [pc, #92]	@ (200023a8 <tud_descriptor_string_cb+0x68>)
2000234c:	4d17      	ldr	r5, [pc, #92]	@ (200023ac <tud_descriptor_string_cb+0x6c>)
2000234e:	681a      	ldr	r2, [r3, #0]
20002350:	f44f 7341 	mov.w	r3, #772	@ 0x304
20002354:	8812      	ldrh	r2, [r2, #0]
20002356:	806a      	strh	r2, [r5, #2]
20002358:	4814      	ldr	r0, [pc, #80]	@ (200023ac <tud_descriptor_string_cb+0x6c>)
2000235a:	802b      	strh	r3, [r5, #0]
2000235c:	bd38      	pop	{r3, r4, r5, pc}
2000235e:	2c03      	cmp	r4, #3
20002360:	d81f      	bhi.n	200023a2 <tud_descriptor_string_cb+0x62>
20002362:	4b11      	ldr	r3, [pc, #68]	@ (200023a8 <tud_descriptor_string_cb+0x68>)
20002364:	4d11      	ldr	r5, [pc, #68]	@ (200023ac <tud_descriptor_string_cb+0x6c>)
20002366:	f853 4024 	ldr.w	r4, [r3, r4, lsl #2]
2000236a:	4620      	mov	r0, r4
2000236c:	f007 fa2e 	bl	200097cc <strlen>
20002370:	b2c0      	uxtb	r0, r0
20002372:	281f      	cmp	r0, #31
20002374:	4684      	mov	ip, r0
20002376:	bf28      	it	cs
20002378:	f04f 0c1f 	movcs.w	ip, #31
2000237c:	b150      	cbz	r0, 20002394 <tud_descriptor_string_cb+0x54>
2000237e:	2300      	movs	r3, #0
20002380:	462a      	mov	r2, r5
20002382:	1e60      	subs	r0, r4, #1
20002384:	3301      	adds	r3, #1
20002386:	f810 1f01 	ldrb.w	r1, [r0, #1]!
2000238a:	b2db      	uxtb	r3, r3
2000238c:	459c      	cmp	ip, r3
2000238e:	f822 1f02 	strh.w	r1, [r2, #2]!
20002392:	d8f7      	bhi.n	20002384 <tud_descriptor_string_cb+0x44>
20002394:	f10c 0301 	add.w	r3, ip, #1
20002398:	b2db      	uxtb	r3, r3
2000239a:	005b      	lsls	r3, r3, #1
2000239c:	f443 7340 	orr.w	r3, r3, #768	@ 0x300
200023a0:	e7da      	b.n	20002358 <tud_descriptor_string_cb+0x18>
200023a2:	2000      	movs	r0, #0
200023a4:	bd38      	pop	{r3, r4, r5, pc}
200023a6:	bf00      	nop
200023a8:	2000f8b8 	.word	0x2000f8b8
200023ac:	200111f8 	.word	0x200111f8

200023b0 <gpio_default_irq_handler>:
200023b0:	f04f 4250 	mov.w	r2, #3489660928	@ 0xd0000000
200023b4:	e92d 4ff8 	stmdb	sp!, {r3, r4, r5, r6, r7, r8, r9, sl, fp, lr}
200023b8:	4b6d      	ldr	r3, [pc, #436]	@ (20002570 <gpio_default_irq_handler+0x1c0>)
200023ba:	f8d2 a000 	ldr.w	sl, [r2]
200023be:	f853 702a 	ldr.w	r7, [r3, sl, lsl #2]
200023c2:	f1ba 0f00 	cmp.w	sl, #0
200023c6:	d02c      	beq.n	20002422 <gpio_default_irq_handler+0x72>
200023c8:	f8df 81b0 	ldr.w	r8, [pc, #432]	@ 2000257c <gpio_default_irq_handler+0x1cc>
200023cc:	b36f      	cbz	r7, 2000242a <gpio_default_irq_handler+0x7a>
200023ce:	2600      	movs	r6, #0
200023d0:	f8df b1a0 	ldr.w	fp, [pc, #416]	@ 20002574 <gpio_default_irq_handler+0x1c4>
200023d4:	f8df 91a0 	ldr.w	r9, [pc, #416]	@ 20002578 <gpio_default_irq_handler+0x1c8>
200023d8:	08f3      	lsrs	r3, r6, #3
200023da:	330c      	adds	r3, #12
200023dc:	f858 5023 	ldr.w	r5, [r8, r3, lsl #2]
200023e0:	4634      	mov	r4, r6
200023e2:	3608      	adds	r6, #8
200023e4:	b1cd      	cbz	r5, 2000241a <gpio_default_irq_handler+0x6a>
200023e6:	f005 010f 	and.w	r1, r5, #15
200023ea:	4620      	mov	r0, r4
200023ec:	092d      	lsrs	r5, r5, #4
200023ee:	3401      	adds	r4, #1
200023f0:	b189      	cbz	r1, 20002416 <gpio_default_irq_handler+0x66>
200023f2:	f85b 202a 	ldr.w	r2, [fp, sl, lsl #2]
200023f6:	f000 0307 	and.w	r3, r0, #7
200023fa:	40c2      	lsrs	r2, r0
200023fc:	ea4f 0cd0 	mov.w	ip, r0, lsr #3
20002400:	009b      	lsls	r3, r3, #2
20002402:	07d2      	lsls	r2, r2, #31
20002404:	fa01 f303 	lsl.w	r3, r1, r3
20002408:	f10c 0c8c 	add.w	ip, ip, #140	@ 0x8c
2000240c:	d402      	bmi.n	20002414 <gpio_default_irq_handler+0x64>
2000240e:	f849 302c 	str.w	r3, [r9, ip, lsl #2]
20002412:	47b8      	blx	r7
20002414:	b10d      	cbz	r5, 2000241a <gpio_default_irq_handler+0x6a>
20002416:	42b4      	cmp	r4, r6
20002418:	d3e5      	bcc.n	200023e6 <gpio_default_irq_handler+0x36>
2000241a:	2e20      	cmp	r6, #32
2000241c:	d1dc      	bne.n	200023d8 <gpio_default_irq_handler+0x28>
2000241e:	e8bd 8ff8 	ldmia.w	sp!, {r3, r4, r5, r6, r7, r8, r9, sl, fp, pc}
20002422:	f8df 815c 	ldr.w	r8, [pc, #348]	@ 20002580 <gpio_default_irq_handler+0x1d0>
20002426:	2f00      	cmp	r7, #0
20002428:	d1d1      	bne.n	200023ce <gpio_default_irq_handler+0x1e>
2000242a:	4852      	ldr	r0, [pc, #328]	@ (20002574 <gpio_default_irq_handler+0x1c4>)
2000242c:	08f9      	lsrs	r1, r7, #3
2000242e:	f101 030c 	add.w	r3, r1, #12
20002432:	f858 3023 	ldr.w	r3, [r8, r3, lsl #2]
20002436:	2b00      	cmp	r3, #0
20002438:	d07b      	beq.n	20002532 <gpio_default_irq_handler+0x182>
2000243a:	f013 050f 	ands.w	r5, r3, #15
2000243e:	ea4f 1213 	mov.w	r2, r3, lsr #4
20002442:	d00a      	beq.n	2000245a <gpio_default_irq_handler+0xaa>
20002444:	f850 402a 	ldr.w	r4, [r0, sl, lsl #2]
20002448:	40fc      	lsrs	r4, r7
2000244a:	07e6      	lsls	r6, r4, #31
2000244c:	d403      	bmi.n	20002456 <gpio_default_irq_handler+0xa6>
2000244e:	4c4a      	ldr	r4, [pc, #296]	@ (20002578 <gpio_default_irq_handler+0x1c8>)
20002450:	318c      	adds	r1, #140	@ 0x8c
20002452:	f844 5021 	str.w	r5, [r4, r1, lsl #2]
20002456:	2a00      	cmp	r2, #0
20002458:	d06b      	beq.n	20002532 <gpio_default_irq_handler+0x182>
2000245a:	f012 020f 	ands.w	r2, r2, #15
2000245e:	ea4f 2113 	mov.w	r1, r3, lsr #8
20002462:	d00d      	beq.n	20002480 <gpio_default_irq_handler+0xd0>
20002464:	f850 402a 	ldr.w	r4, [r0, sl, lsl #2]
20002468:	1c7d      	adds	r5, r7, #1
2000246a:	40ec      	lsrs	r4, r5
2000246c:	07e4      	lsls	r4, r4, #31
2000246e:	d405      	bmi.n	2000247c <gpio_default_irq_handler+0xcc>
20002470:	08ec      	lsrs	r4, r5, #3
20002472:	4d41      	ldr	r5, [pc, #260]	@ (20002578 <gpio_default_irq_handler+0x1c8>)
20002474:	0112      	lsls	r2, r2, #4
20002476:	348c      	adds	r4, #140	@ 0x8c
20002478:	f845 2024 	str.w	r2, [r5, r4, lsl #2]
2000247c:	2900      	cmp	r1, #0
2000247e:	d058      	beq.n	20002532 <gpio_default_irq_handler+0x182>
20002480:	f011 010f 	ands.w	r1, r1, #15
20002484:	ea4f 3213 	mov.w	r2, r3, lsr #12
20002488:	d007      	beq.n	2000249a <gpio_default_irq_handler+0xea>
2000248a:	f850 402a 	ldr.w	r4, [r0, sl, lsl #2]
2000248e:	1cbd      	adds	r5, r7, #2
20002490:	40ec      	lsrs	r4, r5
20002492:	07e6      	lsls	r6, r4, #31
20002494:	d557      	bpl.n	20002546 <gpio_default_irq_handler+0x196>
20002496:	2a00      	cmp	r2, #0
20002498:	d04b      	beq.n	20002532 <gpio_default_irq_handler+0x182>
2000249a:	f012 020f 	ands.w	r2, r2, #15
2000249e:	ea4f 4113 	mov.w	r1, r3, lsr #16
200024a2:	d007      	beq.n	200024b4 <gpio_default_irq_handler+0x104>
200024a4:	f850 402a 	ldr.w	r4, [r0, sl, lsl #2]
200024a8:	1cfd      	adds	r5, r7, #3
200024aa:	40ec      	lsrs	r4, r5
200024ac:	07e4      	lsls	r4, r4, #31
200024ae:	d551      	bpl.n	20002554 <gpio_default_irq_handler+0x1a4>
200024b0:	2900      	cmp	r1, #0
200024b2:	d03e      	beq.n	20002532 <gpio_default_irq_handler+0x182>
200024b4:	f011 010f 	ands.w	r1, r1, #15
200024b8:	ea4f 5213 	mov.w	r2, r3, lsr #20
200024bc:	d007      	beq.n	200024ce <gpio_default_irq_handler+0x11e>
200024be:	4c2d      	ldr	r4, [pc, #180]	@ (20002574 <gpio_default_irq_handler+0x1c4>)
200024c0:	f854 502a 	ldr.w	r5, [r4, sl, lsl #2]
200024c4:	1d3c      	adds	r4, r7, #4
200024c6:	40e5      	lsrs	r5, r4
200024c8:	07ee      	lsls	r6, r5, #31
200024ca:	d54a      	bpl.n	20002562 <gpio_default_irq_handler+0x1b2>
200024cc:	b38a      	cbz	r2, 20002532 <gpio_default_irq_handler+0x182>
200024ce:	f012 020f 	ands.w	r2, r2, #15
200024d2:	ea4f 6113 	mov.w	r1, r3, lsr #24
200024d6:	d00d      	beq.n	200024f4 <gpio_default_irq_handler+0x144>
200024d8:	4c26      	ldr	r4, [pc, #152]	@ (20002574 <gpio_default_irq_handler+0x1c4>)
200024da:	f854 502a 	ldr.w	r5, [r4, sl, lsl #2]
200024de:	1d7c      	adds	r4, r7, #5
200024e0:	40e5      	lsrs	r5, r4
200024e2:	07ed      	lsls	r5, r5, #31
200024e4:	d405      	bmi.n	200024f2 <gpio_default_irq_handler+0x142>
200024e6:	4d24      	ldr	r5, [pc, #144]	@ (20002578 <gpio_default_irq_handler+0x1c8>)
200024e8:	08e4      	lsrs	r4, r4, #3
200024ea:	0512      	lsls	r2, r2, #20
200024ec:	348c      	adds	r4, #140	@ 0x8c
200024ee:	f845 2024 	str.w	r2, [r5, r4, lsl #2]
200024f2:	b1f1      	cbz	r1, 20002532 <gpio_default_irq_handler+0x182>
200024f4:	f011 010f 	ands.w	r1, r1, #15
200024f8:	ea4f 7313 	mov.w	r3, r3, lsr #28
200024fc:	d01f      	beq.n	2000253e <gpio_default_irq_handler+0x18e>
200024fe:	4c1d      	ldr	r4, [pc, #116]	@ (20002574 <gpio_default_irq_handler+0x1c4>)
20002500:	1dbd      	adds	r5, r7, #6
20002502:	f854 202a 	ldr.w	r2, [r4, sl, lsl #2]
20002506:	40ea      	lsrs	r2, r5
20002508:	07d6      	lsls	r6, r2, #31
2000250a:	d405      	bmi.n	20002518 <gpio_default_irq_handler+0x168>
2000250c:	08ea      	lsrs	r2, r5, #3
2000250e:	4d1a      	ldr	r5, [pc, #104]	@ (20002578 <gpio_default_irq_handler+0x1c8>)
20002510:	0609      	lsls	r1, r1, #24
20002512:	328c      	adds	r2, #140	@ 0x8c
20002514:	f845 1022 	str.w	r1, [r5, r2, lsl #2]
20002518:	b15b      	cbz	r3, 20002532 <gpio_default_irq_handler+0x182>
2000251a:	f854 102a 	ldr.w	r1, [r4, sl, lsl #2]
2000251e:	1dfa      	adds	r2, r7, #7
20002520:	40d1      	lsrs	r1, r2
20002522:	07c9      	lsls	r1, r1, #31
20002524:	d405      	bmi.n	20002532 <gpio_default_irq_handler+0x182>
20002526:	4914      	ldr	r1, [pc, #80]	@ (20002578 <gpio_default_irq_handler+0x1c8>)
20002528:	08d2      	lsrs	r2, r2, #3
2000252a:	071b      	lsls	r3, r3, #28
2000252c:	328c      	adds	r2, #140	@ 0x8c
2000252e:	f841 3022 	str.w	r3, [r1, r2, lsl #2]
20002532:	3708      	adds	r7, #8
20002534:	2f20      	cmp	r7, #32
20002536:	f47f af79 	bne.w	2000242c <gpio_default_irq_handler+0x7c>
2000253a:	e8bd 8ff8 	ldmia.w	sp!, {r3, r4, r5, r6, r7, r8, r9, sl, fp, pc}
2000253e:	2b00      	cmp	r3, #0
20002540:	d0f7      	beq.n	20002532 <gpio_default_irq_handler+0x182>
20002542:	4c0c      	ldr	r4, [pc, #48]	@ (20002574 <gpio_default_irq_handler+0x1c4>)
20002544:	e7e9      	b.n	2000251a <gpio_default_irq_handler+0x16a>
20002546:	08ec      	lsrs	r4, r5, #3
20002548:	4d0b      	ldr	r5, [pc, #44]	@ (20002578 <gpio_default_irq_handler+0x1c8>)
2000254a:	0209      	lsls	r1, r1, #8
2000254c:	348c      	adds	r4, #140	@ 0x8c
2000254e:	f845 1024 	str.w	r1, [r5, r4, lsl #2]
20002552:	e7a0      	b.n	20002496 <gpio_default_irq_handler+0xe6>
20002554:	08ec      	lsrs	r4, r5, #3
20002556:	4d08      	ldr	r5, [pc, #32]	@ (20002578 <gpio_default_irq_handler+0x1c8>)
20002558:	0312      	lsls	r2, r2, #12
2000255a:	348c      	adds	r4, #140	@ 0x8c
2000255c:	f845 2024 	str.w	r2, [r5, r4, lsl #2]
20002560:	e7a6      	b.n	200024b0 <gpio_default_irq_handler+0x100>
20002562:	4d05      	ldr	r5, [pc, #20]	@ (20002578 <gpio_default_irq_handler+0x1c8>)
20002564:	08e4      	lsrs	r4, r4, #3
20002566:	0409      	lsls	r1, r1, #16
20002568:	348c      	adds	r4, #140	@ 0x8c
2000256a:	f845 1024 	str.w	r1, [r5, r4, lsl #2]
2000256e:	e7ad      	b.n	200024cc <gpio_default_irq_handler+0x11c>
20002570:	20059c00 	.word	0x20059c00
20002574:	2005a784 	.word	0x2005a784
20002578:	40028000 	.word	0x40028000
2000257c:	40028290 	.word	0x40028290
20002580:	40028248 	.word	0x40028248

20002584 <gpio_set_function>:
20002584:	b410      	push	{r4}
20002586:	f44f 7480 	mov.w	r4, #256	@ 0x100
2000258a:	4b0c      	ldr	r3, [pc, #48]	@ (200025bc <gpio_set_function+0x38>)
2000258c:	f853 2020 	ldr.w	r2, [r3, r0, lsl #2]
20002590:	eb03 0380 	add.w	r3, r3, r0, lsl #2
20002594:	00c0      	lsls	r0, r0, #3
20002596:	f082 0240 	eor.w	r2, r2, #64	@ 0x40
2000259a:	f100 4080 	add.w	r0, r0, #1073741824	@ 0x40000000
2000259e:	f503 5c80 	add.w	ip, r3, #4096	@ 0x1000
200025a2:	f002 02c0 	and.w	r2, r2, #192	@ 0xc0
200025a6:	f500 3020 	add.w	r0, r0, #163840	@ 0x28000
200025aa:	f503 5340 	add.w	r3, r3, #12288	@ 0x3000
200025ae:	f8cc 2000 	str.w	r2, [ip]
200025b2:	6041      	str	r1, [r0, #4]
200025b4:	601c      	str	r4, [r3, #0]
200025b6:	f85d 4b04 	ldr.w	r4, [sp], #4
200025ba:	4770      	bx	lr
200025bc:	40038004 	.word	0x40038004

200025c0 <gpio_set_pulls>:
200025c0:	b410      	push	{r4}
200025c2:	4c08      	ldr	r4, [pc, #32]	@ (200025e4 <gpio_set_pulls+0x24>)
200025c4:	00c9      	lsls	r1, r1, #3
200025c6:	ea41 0182 	orr.w	r1, r1, r2, lsl #2
200025ca:	f854 2020 	ldr.w	r2, [r4, r0, lsl #2]
200025ce:	eb04 0380 	add.w	r3, r4, r0, lsl #2
200025d2:	4051      	eors	r1, r2
200025d4:	f503 5380 	add.w	r3, r3, #4096	@ 0x1000
200025d8:	f001 010c 	and.w	r1, r1, #12
200025dc:	f85d 4b04 	ldr.w	r4, [sp], #4
200025e0:	6019      	str	r1, [r3, #0]
200025e2:	4770      	bx	lr
200025e4:	40038004 	.word	0x40038004

200025e8 <gpio_set_slew_rate>:
200025e8:	4b05      	ldr	r3, [pc, #20]	@ (20002600 <gpio_set_slew_rate+0x18>)
200025ea:	f853 2020 	ldr.w	r2, [r3, r0, lsl #2]
200025ee:	eb03 0380 	add.w	r3, r3, r0, lsl #2
200025f2:	4051      	eors	r1, r2
200025f4:	f001 0101 	and.w	r1, r1, #1
200025f8:	f503 5380 	add.w	r3, r3, #4096	@ 0x1000
200025fc:	6019      	str	r1, [r3, #0]
200025fe:	4770      	bx	lr
20002600:	40038004 	.word	0x40038004

20002604 <gpio_set_irq_enabled_with_callback>:
20002604:	e92d 43f0 	stmdb	sp!, {r4, r5, r6, r7, r8, r9, lr}
20002608:	f04f 4950 	mov.w	r9, #3489660928	@ 0xd0000000
2000260c:	461f      	mov	r7, r3
2000260e:	f8df 8098 	ldr.w	r8, [pc, #152]	@ 200026a8 <gpio_set_irq_enabled_with_callback+0xa4>
20002612:	f8d9 3000 	ldr.w	r3, [r9]
20002616:	4616      	mov	r6, r2
20002618:	f858 2023 	ldr.w	r2, [r8, r3, lsl #2]
2000261c:	4604      	mov	r4, r0
2000261e:	460d      	mov	r5, r1
20002620:	b083      	sub	sp, #12
20002622:	b332      	cbz	r2, 20002672 <gpio_set_irq_enabled_with_callback+0x6e>
20002624:	b387      	cbz	r7, 20002688 <gpio_set_irq_enabled_with_callback+0x84>
20002626:	f848 7023 	str.w	r7, [r8, r3, lsl #2]
2000262a:	f04f 4350 	mov.w	r3, #3489660928	@ 0xd0000000
2000262e:	681b      	ldr	r3, [r3, #0]
20002630:	b1bb      	cbz	r3, 20002662 <gpio_set_irq_enabled_with_callback+0x5e>
20002632:	4b19      	ldr	r3, [pc, #100]	@ (20002698 <gpio_set_irq_enabled_with_callback+0x94>)
20002634:	08e1      	lsrs	r1, r4, #3
20002636:	f004 0407 	and.w	r4, r4, #7
2000263a:	4a18      	ldr	r2, [pc, #96]	@ (2000269c <gpio_set_irq_enabled_with_callback+0x98>)
2000263c:	00a4      	lsls	r4, r4, #2
2000263e:	fa05 f404 	lsl.w	r4, r5, r4
20002642:	eb03 0381 	add.w	r3, r3, r1, lsl #2
20002646:	318c      	adds	r1, #140	@ 0x8c
20002648:	f842 4021 	str.w	r4, [r2, r1, lsl #2]
2000264c:	b15e      	cbz	r6, 20002666 <gpio_set_irq_enabled_with_callback+0x62>
2000264e:	2101      	movs	r1, #1
20002650:	2015      	movs	r0, #21
20002652:	f503 5300 	add.w	r3, r3, #8192	@ 0x2000
20002656:	601c      	str	r4, [r3, #0]
20002658:	b003      	add	sp, #12
2000265a:	e8bd 43f0 	ldmia.w	sp!, {r4, r5, r6, r7, r8, r9, lr}
2000265e:	f000 b939 	b.w	200028d4 <irq_set_enabled>
20002662:	4b0f      	ldr	r3, [pc, #60]	@ (200026a0 <gpio_set_irq_enabled_with_callback+0x9c>)
20002664:	e7e6      	b.n	20002634 <gpio_set_irq_enabled_with_callback+0x30>
20002666:	f503 5340 	add.w	r3, r3, #12288	@ 0x3000
2000266a:	601c      	str	r4, [r3, #0]
2000266c:	b003      	add	sp, #12
2000266e:	e8bd 83f0 	ldmia.w	sp!, {r4, r5, r6, r7, r8, r9, pc}
20002672:	2f00      	cmp	r7, #0
20002674:	d0dc      	beq.n	20002630 <gpio_set_irq_enabled_with_callback+0x2c>
20002676:	2015      	movs	r0, #21
20002678:	490a      	ldr	r1, [pc, #40]	@ (200026a4 <gpio_set_irq_enabled_with_callback+0xa0>)
2000267a:	f848 7023 	str.w	r7, [r8, r3, lsl #2]
2000267e:	f000 f97f 	bl	20002980 <irq_add_shared_handler>
20002682:	f8d9 3000 	ldr.w	r3, [r9]
20002686:	e7d3      	b.n	20002630 <gpio_set_irq_enabled_with_callback+0x2c>
20002688:	2015      	movs	r0, #21
2000268a:	4906      	ldr	r1, [pc, #24]	@ (200026a4 <gpio_set_irq_enabled_with_callback+0xa0>)
2000268c:	9301      	str	r3, [sp, #4]
2000268e:	f000 fa6b 	bl	20002b68 <irq_remove_handler>
20002692:	9b01      	ldr	r3, [sp, #4]
20002694:	e7c7      	b.n	20002626 <gpio_set_irq_enabled_with_callback+0x22>
20002696:	bf00      	nop
20002698:	40028290 	.word	0x40028290
2000269c:	40028000 	.word	0x40028000
200026a0:	40028248 	.word	0x40028248
200026a4:	200023b1 	.word	0x200023b1
200026a8:	20059c00 	.word	0x20059c00

200026ac <gpio_init>:
200026ac:	b430      	push	{r4, r5}
200026ae:	f04f 0300 	mov.w	r3, #0
200026b2:	ec43 0044 	gpioc_bit_oe_put r0, r3
200026b6:	ec43 0040 	gpioc_bit_out_put r0, r3
200026ba:	2505      	movs	r5, #5
200026bc:	f44f 7480 	mov.w	r4, #256	@ 0x100
200026c0:	4b0b      	ldr	r3, [pc, #44]	@ (200026f0 <gpio_init+0x44>)
200026c2:	00c2      	lsls	r2, r0, #3
200026c4:	f853 1020 	ldr.w	r1, [r3, r0, lsl #2]
200026c8:	eb03 0080 	add.w	r0, r3, r0, lsl #2
200026cc:	f081 0140 	eor.w	r1, r1, #64	@ 0x40
200026d0:	f102 4380 	add.w	r3, r2, #1073741824	@ 0x40000000
200026d4:	f503 3320 	add.w	r3, r3, #163840	@ 0x28000
200026d8:	f001 02c0 	and.w	r2, r1, #192	@ 0xc0
200026dc:	f500 5180 	add.w	r1, r0, #4096	@ 0x1000
200026e0:	f500 5040 	add.w	r0, r0, #12288	@ 0x3000
200026e4:	600a      	str	r2, [r1, #0]
200026e6:	605d      	str	r5, [r3, #4]
200026e8:	6004      	str	r4, [r0, #0]
200026ea:	bc30      	pop	{r4, r5}
200026ec:	4770      	bx	lr
200026ee:	bf00      	nop
200026f0:	40038004 	.word	0x40038004

200026f4 <panic>:
200026f4:	b40f      	push	{r0, r1, r2, r3}
200026f6:	b500      	push	{lr}
200026f8:	b083      	sub	sp, #12
200026fa:	9c04      	ldr	r4, [sp, #16]
200026fc:	4807      	ldr	r0, [pc, #28]	@ (2000271c <panic+0x28>)
200026fe:	f001 ffd1 	bl	200046a4 <__wrap_puts>
20002702:	b13c      	cbz	r4, 20002714 <panic+0x20>
20002704:	a905      	add	r1, sp, #20
20002706:	4620      	mov	r0, r4
20002708:	9101      	str	r1, [sp, #4]
2000270a:	f001 fe57 	bl	200043bc <weak_raw_vprintf>
2000270e:	4804      	ldr	r0, [pc, #16]	@ (20002720 <panic+0x2c>)
20002710:	f001 ffc8 	bl	200046a4 <__wrap_puts>
20002714:	2001      	movs	r0, #1
20002716:	f001 fe69 	bl	200043ec <_exit>
2000271a:	bf00      	nop
2000271c:	2000ea38 	.word	0x2000ea38
20002720:	2000ea48 	.word	0x2000ea48

20002724 <hw_claim_lock>:
20002724:	f3ef 8010 	mrs	r0, PRIMASK
20002728:	b672      	cpsid	i
2000272a:	4b06      	ldr	r3, [pc, #24]	@ (20002744 <hw_claim_lock+0x20>)
2000272c:	e8d3 1fcf 	ldaexb	r1, [r3]
20002730:	2201      	movs	r2, #1
20002732:	2900      	cmp	r1, #0
20002734:	d1fa      	bne.n	2000272c <hw_claim_lock+0x8>
20002736:	e8c3 2f41 	strexb	r1, r2, [r3]
2000273a:	2900      	cmp	r1, #0
2000273c:	d1f6      	bne.n	2000272c <hw_claim_lock+0x8>
2000273e:	f3bf 8f5f 	dmb	sy
20002742:	4770      	bx	lr
20002744:	20011243 	.word	0x20011243

20002748 <hw_claim_unlock>:
20002748:	2300      	movs	r3, #0
2000274a:	4a03      	ldr	r2, [pc, #12]	@ (20002758 <hw_claim_unlock+0x10>)
2000274c:	e8c2 3f8f 	stlb	r3, [r2]
20002750:	f380 8810 	msr	PRIMASK, r0
20002754:	4770      	bx	lr
20002756:	bf00      	nop
20002758:	20011243 	.word	0x20011243

2000275c <hw_claim_or_assert>:
2000275c:	b570      	push	{r4, r5, r6, lr}
2000275e:	4686      	mov	lr, r0
20002760:	f3ef 8510 	mrs	r5, PRIMASK
20002764:	b672      	cpsid	i
20002766:	4c12      	ldr	r4, [pc, #72]	@ (200027b0 <hw_claim_or_assert+0x54>)
20002768:	e8d4 6fcf 	ldaexb	r6, [r4]
2000276c:	2001      	movs	r0, #1
2000276e:	2e00      	cmp	r6, #0
20002770:	d1fa      	bne.n	20002768 <hw_claim_or_assert+0xc>
20002772:	e8c4 0f46 	strexb	r6, r0, [r4]
20002776:	2e00      	cmp	r6, #0
20002778:	d1f6      	bne.n	20002768 <hw_claim_or_assert+0xc>
2000277a:	f3bf 8f5f 	dmb	sy
2000277e:	f04f 0c01 	mov.w	ip, #1
20002782:	08c8      	lsrs	r0, r1, #3
20002784:	f001 0307 	and.w	r3, r1, #7
20002788:	fa0c f303 	lsl.w	r3, ip, r3
2000278c:	f81e c000 	ldrb.w	ip, [lr, r0]
20002790:	ea1c 0603 	ands.w	r6, ip, r3
20002794:	d108      	bne.n	200027a8 <hw_claim_or_assert+0x4c>
20002796:	ea4c 0c03 	orr.w	ip, ip, r3
2000279a:	f80e c000 	strb.w	ip, [lr, r0]
2000279e:	e8c4 6f8f 	stlb	r6, [r4]
200027a2:	f385 8810 	msr	PRIMASK, r5
200027a6:	bd70      	pop	{r4, r5, r6, pc}
200027a8:	4610      	mov	r0, r2
200027aa:	f7ff ffa3 	bl	200026f4 <panic>
200027ae:	bf00      	nop
200027b0:	20011243 	.word	0x20011243

200027b4 <hw_claim_unused_from_range>:
200027b4:	b5f8      	push	{r3, r4, r5, r6, r7, lr}
200027b6:	f3ef 8710 	mrs	r7, PRIMASK
200027ba:	b672      	cpsid	i
200027bc:	4e1c      	ldr	r6, [pc, #112]	@ (20002830 <hw_claim_unused_from_range+0x7c>)
200027be:	e8d6 5fcf 	ldaexb	r5, [r6]
200027c2:	2401      	movs	r4, #1
200027c4:	2d00      	cmp	r5, #0
200027c6:	d1fa      	bne.n	200027be <hw_claim_unused_from_range+0xa>
200027c8:	e8c6 4f45 	strexb	r5, r4, [r6]
200027cc:	2d00      	cmp	r5, #0
200027ce:	d1f6      	bne.n	200027be <hw_claim_unused_from_range+0xa>
200027d0:	f3bf 8f5f 	dmb	sy
200027d4:	429a      	cmp	r2, r3
200027d6:	d81b      	bhi.n	20002810 <hw_claim_unused_from_range+0x5c>
200027d8:	2501      	movs	r5, #1
200027da:	e002      	b.n	200027e2 <hw_claim_unused_from_range+0x2e>
200027dc:	3201      	adds	r2, #1
200027de:	4293      	cmp	r3, r2
200027e0:	d322      	bcc.n	20002828 <hw_claim_unused_from_range+0x74>
200027e2:	08d4      	lsrs	r4, r2, #3
200027e4:	f810 e004 	ldrb.w	lr, [r0, r4]
200027e8:	f002 0c07 	and.w	ip, r2, #7
200027ec:	fa05 fc0c 	lsl.w	ip, r5, ip
200027f0:	ea1e 0f0c 	tst.w	lr, ip
200027f4:	d1f2      	bne.n	200027dc <hw_claim_unused_from_range+0x28>
200027f6:	ea4e 0e0c 	orr.w	lr, lr, ip
200027fa:	f800 e004 	strb.w	lr, [r0, r4]
200027fe:	4610      	mov	r0, r2
20002800:	2300      	movs	r3, #0
20002802:	e8c6 3f8f 	stlb	r3, [r6]
20002806:	f387 8810 	msr	PRIMASK, r7
2000280a:	4298      	cmp	r0, r3
2000280c:	db07      	blt.n	2000281e <hw_claim_unused_from_range+0x6a>
2000280e:	bdf8      	pop	{r3, r4, r5, r6, r7, pc}
20002810:	2300      	movs	r3, #0
20002812:	e8c6 3f8f 	stlb	r3, [r6]
20002816:	f387 8810 	msr	PRIMASK, r7
2000281a:	f04f 30ff 	mov.w	r0, #4294967295
2000281e:	2900      	cmp	r1, #0
20002820:	d0f5      	beq.n	2000280e <hw_claim_unused_from_range+0x5a>
20002822:	9806      	ldr	r0, [sp, #24]
20002824:	f7ff ff66 	bl	200026f4 <panic>
20002828:	f04f 30ff 	mov.w	r0, #4294967295
2000282c:	e7e8      	b.n	20002800 <hw_claim_unused_from_range+0x4c>
2000282e:	bf00      	nop
20002830:	20011243 	.word	0x20011243

20002834 <next_striped_spin_lock_num>:
20002834:	4a04      	ldr	r2, [pc, #16]	@ (20002848 <next_striped_spin_lock_num+0x14>)
20002836:	7810      	ldrb	r0, [r2, #0]
20002838:	1c43      	adds	r3, r0, #1
2000283a:	b2db      	uxtb	r3, r3
2000283c:	2b18      	cmp	r3, #24
2000283e:	bf28      	it	cs
20002840:	2310      	movcs	r3, #16
20002842:	7013      	strb	r3, [r2, #0]
20002844:	4770      	bx	lr
20002846:	bf00      	nop
20002848:	2000f8c8 	.word	0x2000f8c8

2000284c <spin_lock_claim_unused>:
2000284c:	b510      	push	{r4, lr}
2000284e:	4c05      	ldr	r4, [pc, #20]	@ (20002864 <spin_lock_claim_unused+0x18>)
20002850:	b082      	sub	sp, #8
20002852:	4601      	mov	r1, r0
20002854:	231f      	movs	r3, #31
20002856:	2218      	movs	r2, #24
20002858:	9400      	str	r4, [sp, #0]
2000285a:	4803      	ldr	r0, [pc, #12]	@ (20002868 <spin_lock_claim_unused+0x1c>)
2000285c:	f7ff ffaa 	bl	200027b4 <hw_claim_unused_from_range>
20002860:	b002      	add	sp, #8
20002862:	bd10      	pop	{r4, pc}
20002864:	2000ea4c 	.word	0x2000ea4c
20002868:	20059c48 	.word	0x20059c48

2000286c <spinlock_set_extexclall>:
2000286c:	f04f 22e0 	mov.w	r2, #3758153728	@ 0xe000e000
20002870:	6893      	ldr	r3, [r2, #8]
20002872:	f043 5300 	orr.w	r3, r3, #536870912	@ 0x20000000
20002876:	6093      	str	r3, [r2, #8]
20002878:	4770      	bx	lr
2000287a:	bf00      	nop

2000287c <spin_locks_reset>:
2000287c:	2100      	movs	r1, #0
2000287e:	4b04      	ldr	r3, [pc, #16]	@ (20002890 <spin_locks_reset+0x14>)
20002880:	f103 0220 	add.w	r2, r3, #32
20002884:	e8c3 1f8f 	stlb	r1, [r3]
20002888:	3301      	adds	r3, #1
2000288a:	4293      	cmp	r3, r2
2000288c:	d1fa      	bne.n	20002884 <spin_locks_reset+0x8>
2000288e:	4770      	bx	lr
20002890:	20011238 	.word	0x20011238

20002894 <runtime_init_per_core_irq_priorities>:
20002894:	f04f 23e0 	mov.w	r3, #3758153728	@ 0xe000e000
20002898:	f04f 3280 	mov.w	r2, #2155905152	@ 0x80808080
2000289c:	f8c3 2400 	str.w	r2, [r3, #1024]	@ 0x400
200028a0:	f8c3 2404 	str.w	r2, [r3, #1028]	@ 0x404
200028a4:	f8c3 2408 	str.w	r2, [r3, #1032]	@ 0x408
200028a8:	f8c3 240c 	str.w	r2, [r3, #1036]	@ 0x40c
200028ac:	f8c3 2410 	str.w	r2, [r3, #1040]	@ 0x410
200028b0:	f8c3 2414 	str.w	r2, [r3, #1044]	@ 0x414
200028b4:	f8c3 2418 	str.w	r2, [r3, #1048]	@ 0x418
200028b8:	f8c3 241c 	str.w	r2, [r3, #1052]	@ 0x41c
200028bc:	f8c3 2420 	str.w	r2, [r3, #1056]	@ 0x420
200028c0:	f8c3 2424 	str.w	r2, [r3, #1060]	@ 0x424
200028c4:	f8c3 2428 	str.w	r2, [r3, #1064]	@ 0x428
200028c8:	f8c3 242c 	str.w	r2, [r3, #1068]	@ 0x42c
200028cc:	f8c3 2430 	str.w	r2, [r3, #1072]	@ 0x430
200028d0:	4770      	bx	lr
200028d2:	bf00      	nop

200028d4 <irq_set_enabled>:
200028d4:	2301      	movs	r3, #1
200028d6:	f000 021f 	and.w	r2, r0, #31
200028da:	4093      	lsls	r3, r2
200028dc:	0940      	lsrs	r0, r0, #5
200028de:	b141      	cbz	r1, 200028f2 <irq_set_enabled+0x1e>
200028e0:	0080      	lsls	r0, r0, #2
200028e2:	f100 4060 	add.w	r0, r0, #3758096384	@ 0xe0000000
200028e6:	f500 4061 	add.w	r0, r0, #57600	@ 0xe100
200028ea:	f8c0 3180 	str.w	r3, [r0, #384]	@ 0x180
200028ee:	6003      	str	r3, [r0, #0]
200028f0:	4770      	bx	lr
200028f2:	4a02      	ldr	r2, [pc, #8]	@ (200028fc <irq_set_enabled+0x28>)
200028f4:	3020      	adds	r0, #32
200028f6:	f842 3020 	str.w	r3, [r2, r0, lsl #2]
200028fa:	4770      	bx	lr
200028fc:	e000e100 	.word	0xe000e100

20002900 <irq_is_enabled>:
20002900:	2301      	movs	r3, #1
20002902:	4a06      	ldr	r2, [pc, #24]	@ (2000291c <irq_is_enabled+0x1c>)
20002904:	0941      	lsrs	r1, r0, #5
20002906:	f852 2021 	ldr.w	r2, [r2, r1, lsl #2]
2000290a:	f000 001f 	and.w	r0, r0, #31
2000290e:	fa03 f000 	lsl.w	r0, r3, r0
20002912:	4010      	ands	r0, r2
20002914:	3800      	subs	r0, #0
20002916:	bf18      	it	ne
20002918:	2001      	movne	r0, #1
2000291a:	4770      	bx	lr
2000291c:	e000e100 	.word	0xe000e100

20002920 <irq_set_exclusive_handler>:
20002920:	b5f8      	push	{r3, r4, r5, r6, r7, lr}
20002922:	460d      	mov	r5, r1
20002924:	f3ef 8710 	mrs	r7, PRIMASK
20002928:	b672      	cpsid	i
2000292a:	4e12      	ldr	r6, [pc, #72]	@ (20002974 <irq_set_exclusive_handler+0x54>)
2000292c:	e8d6 2fcf 	ldaexb	r2, [r6]
20002930:	2301      	movs	r3, #1
20002932:	2a00      	cmp	r2, #0
20002934:	d1fa      	bne.n	2000292c <irq_set_exclusive_handler+0xc>
20002936:	e8c6 3f42 	strexb	r2, r3, [r6]
2000293a:	2a00      	cmp	r2, #0
2000293c:	d1f6      	bne.n	2000292c <irq_set_exclusive_handler+0xc>
2000293e:	f3bf 8f5f 	dmb	sy
20002942:	4b0d      	ldr	r3, [pc, #52]	@ (20002978 <irq_set_exclusive_handler+0x58>)
20002944:	f100 0410 	add.w	r4, r0, #16
20002948:	689b      	ldr	r3, [r3, #8]
2000294a:	4a0c      	ldr	r2, [pc, #48]	@ (2000297c <irq_set_exclusive_handler+0x5c>)
2000294c:	f853 3024 	ldr.w	r3, [r3, r4, lsl #2]
20002950:	4293      	cmp	r3, r2
20002952:	d003      	beq.n	2000295c <irq_set_exclusive_handler+0x3c>
20002954:	4299      	cmp	r1, r3
20002956:	d001      	beq.n	2000295c <irq_set_exclusive_handler+0x3c>
20002958:	f001 fa98 	bl	20003e8c <hard_assertion_failure>
2000295c:	4b06      	ldr	r3, [pc, #24]	@ (20002978 <irq_set_exclusive_handler+0x58>)
2000295e:	689b      	ldr	r3, [r3, #8]
20002960:	f843 5024 	str.w	r5, [r3, r4, lsl #2]
20002964:	f3bf 8f5f 	dmb	sy
20002968:	2300      	movs	r3, #0
2000296a:	e8c6 3f8f 	stlb	r3, [r6]
2000296e:	f387 8810 	msr	PRIMASK, r7
20002972:	bdf8      	pop	{r3, r4, r5, r6, r7, pc}
20002974:	20011241 	.word	0x20011241
20002978:	e000ed00 	.word	0xe000ed00
2000297c:	1000011d 	.word	0x1000011d

20002980 <irq_add_shared_handler>:
20002980:	e92d 4ff0 	stmdb	sp!, {r4, r5, r6, r7, r8, r9, sl, fp, lr}
20002984:	4681      	mov	r9, r0
20002986:	468b      	mov	fp, r1
20002988:	4616      	mov	r6, r2
2000298a:	b083      	sub	sp, #12
2000298c:	f3ef 8310 	mrs	r3, PRIMASK
20002990:	b672      	cpsid	i
20002992:	f8df a1d0 	ldr.w	sl, [pc, #464]	@ 20002b64 <irq_add_shared_handler+0x1e4>
20002996:	9300      	str	r3, [sp, #0]
20002998:	e8da 1fcf 	ldaexb	r1, [sl]
2000299c:	2301      	movs	r3, #1
2000299e:	2900      	cmp	r1, #0
200029a0:	d1fa      	bne.n	20002998 <irq_add_shared_handler+0x18>
200029a2:	e8ca 3f41 	strexb	r1, r3, [sl]
200029a6:	2900      	cmp	r1, #0
200029a8:	d1f6      	bne.n	20002998 <irq_add_shared_handler+0x18>
200029aa:	f3bf 8f5f 	dmb	sy
200029ae:	4b66      	ldr	r3, [pc, #408]	@ (20002b48 <irq_add_shared_handler+0x1c8>)
200029b0:	f993 4000 	ldrsb.w	r4, [r3]
200029b4:	2c00      	cmp	r4, #0
200029b6:	f2c0 80a0 	blt.w	20002afa <irq_add_shared_handler+0x17a>
200029ba:	4d64      	ldr	r5, [pc, #400]	@ (20002b4c <irq_add_shared_handler+0x1cc>)
200029bc:	eb04 0744 	add.w	r7, r4, r4, lsl #1
200029c0:	eb05 0887 	add.w	r8, r5, r7, lsl #2
200029c4:	f898 1006 	ldrb.w	r1, [r8, #6]
200029c8:	f109 0910 	add.w	r9, r9, #16
200029cc:	7019      	strb	r1, [r3, #0]
200029ce:	4b60      	ldr	r3, [pc, #384]	@ (20002b50 <irq_add_shared_handler+0x1d0>)
200029d0:	00bf      	lsls	r7, r7, #2
200029d2:	689b      	ldr	r3, [r3, #8]
200029d4:	f853 0029 	ldr.w	r0, [r3, r9, lsl #2]
200029d8:	0063      	lsls	r3, r4, #1
200029da:	1b41      	subs	r1, r0, r5
200029dc:	292f      	cmp	r1, #47	@ 0x2f
200029de:	d92f      	bls.n	20002a40 <irq_add_shared_handler+0xc0>
200029e0:	495c      	ldr	r1, [pc, #368]	@ (20002b54 <irq_add_shared_handler+0x1d4>)
200029e2:	4288      	cmp	r0, r1
200029e4:	f040 80a4 	bne.w	20002b30 <irq_add_shared_handler+0x1b0>
200029e8:	441c      	add	r4, r3
200029ea:	4b5b      	ldr	r3, [pc, #364]	@ (20002b58 <irq_add_shared_handler+0x1d8>)
200029ec:	3702      	adds	r7, #2
200029ee:	442f      	add	r7, r5
200029f0:	3b04      	subs	r3, #4
200029f2:	1bdb      	subs	r3, r3, r7
200029f4:	f3c3 034a 	ubfx	r3, r3, #1, #11
200029f8:	ea6f 43c3 	mvn.w	r3, r3, lsl #19
200029fc:	f44f 4121 	mov.w	r1, #41216	@ 0xa100
20002a00:	ea6f 43d3 	mvn.w	r3, r3, lsr #19
20002a04:	f825 1024 	strh.w	r1, [r5, r4, lsl #2]
20002a08:	eb05 0484 	add.w	r4, r5, r4, lsl #2
20002a0c:	8063      	strh	r3, [r4, #2]
20002a0e:	f64b 5301 	movw	r3, #48385	@ 0xbd01
20002a12:	80a3      	strh	r3, [r4, #4]
20002a14:	23ff      	movs	r3, #255	@ 0xff
20002a16:	f048 0001 	orr.w	r0, r8, #1
20002a1a:	71e6      	strb	r6, [r4, #7]
20002a1c:	f8c4 b008 	str.w	fp, [r4, #8]
20002a20:	71a3      	strb	r3, [r4, #6]
20002a22:	4b4b      	ldr	r3, [pc, #300]	@ (20002b50 <irq_add_shared_handler+0x1d0>)
20002a24:	689b      	ldr	r3, [r3, #8]
20002a26:	f843 0029 	str.w	r0, [r3, r9, lsl #2]
20002a2a:	f3bf 8f5f 	dmb	sy
20002a2e:	2300      	movs	r3, #0
20002a30:	e8ca 3f8f 	stlb	r3, [sl]
20002a34:	9b00      	ldr	r3, [sp, #0]
20002a36:	f383 8810 	msr	PRIMASK, r3
20002a3a:	b003      	add	sp, #12
20002a3c:	e8bd 8ff0 	ldmia.w	sp!, {r4, r5, r6, r7, r8, r9, sl, fp, pc}
20002a40:	f020 0e01 	bic.w	lr, r0, #1
20002a44:	f89e 1007 	ldrb.w	r1, [lr, #7]
20002a48:	42b1      	cmp	r1, r6
20002a4a:	d82e      	bhi.n	20002aaa <irq_add_shared_handler+0x12a>
20002a4c:	f44f 4321 	mov.w	r3, #41216	@ 0xa100
20002a50:	53eb      	strh	r3, [r5, r7]
20002a52:	4b41      	ldr	r3, [pc, #260]	@ (20002b58 <irq_add_shared_handler+0x1d8>)
20002a54:	1cb9      	adds	r1, r7, #2
20002a56:	4429      	add	r1, r5
20002a58:	3b04      	subs	r3, #4
20002a5a:	3704      	adds	r7, #4
20002a5c:	1a5b      	subs	r3, r3, r1
20002a5e:	442f      	add	r7, r5
20002a60:	f1ae 0104 	sub.w	r1, lr, #4
20002a64:	1bc9      	subs	r1, r1, r7
20002a66:	f3c1 044a 	ubfx	r4, r1, #1, #11
20002a6a:	493c      	ldr	r1, [pc, #240]	@ (20002b5c <irq_add_shared_handler+0x1dc>)
20002a6c:	f3c3 034a 	ubfx	r3, r3, #1, #11
20002a70:	430b      	orrs	r3, r1
20002a72:	4321      	orrs	r1, r4
20002a74:	f8a8 1004 	strh.w	r1, [r8, #4]
20002a78:	4939      	ldr	r1, [pc, #228]	@ (20002b60 <irq_add_shared_handler+0x1e0>)
20002a7a:	f8a8 3002 	strh.w	r3, [r8, #2]
20002a7e:	f64a 20aa 	movw	r0, #43690	@ 0xaaaa
20002a82:	4673      	mov	r3, lr
20002a84:	1b5b      	subs	r3, r3, r5
20002a86:	415b      	adcs	r3, r3
20002a88:	4358      	muls	r0, r3
20002a8a:	0d00      	lsrs	r0, r0, #20
20002a8c:	f888 6007 	strb.w	r6, [r8, #7]
20002a90:	f888 0006 	strb.w	r0, [r8, #6]
20002a94:	f8c8 b008 	str.w	fp, [r8, #8]
20002a98:	f048 0001 	orr.w	r0, r8, #1
20002a9c:	f8ce 1000 	str.w	r1, [lr]
20002aa0:	e7bf      	b.n	20002a22 <irq_add_shared_handler+0xa2>
20002aa2:	79d1      	ldrb	r1, [r2, #7]
20002aa4:	42b1      	cmp	r1, r6
20002aa6:	d92e      	bls.n	20002b06 <irq_add_shared_handler+0x186>
20002aa8:	4696      	mov	lr, r2
20002aaa:	f99e c006 	ldrsb.w	ip, [lr, #6]
20002aae:	eb0c 024c 	add.w	r2, ip, ip, lsl #1
20002ab2:	f1bc 0f00 	cmp.w	ip, #0
20002ab6:	eb05 0282 	add.w	r2, r5, r2, lsl #2
20002aba:	daf2      	bge.n	20002aa2 <irq_add_shared_handler+0x122>
20002abc:	f64b 5101 	movw	r1, #48385	@ 0xbd01
20002ac0:	f10e 0204 	add.w	r2, lr, #4
20002ac4:	f1a8 0704 	sub.w	r7, r8, #4
20002ac8:	1abf      	subs	r7, r7, r2
20002aca:	f3c7 074a 	ubfx	r7, r7, #1, #11
20002ace:	ea6f 47c7 	mvn.w	r7, r7, lsl #19
20002ad2:	ea6f 47d7 	mvn.w	r7, r7, lsr #19
20002ad6:	f88e 4006 	strb.w	r4, [lr, #6]
20002ada:	eb03 0804 	add.w	r8, r3, r4
20002ade:	4c20      	ldr	r4, [pc, #128]	@ (20002b60 <irq_add_shared_handler+0x1e0>)
20002ae0:	eb05 0388 	add.w	r3, r5, r8, lsl #2
20002ae4:	f8ae 7004 	strh.w	r7, [lr, #4]
20002ae8:	f845 4028 	str.w	r4, [r5, r8, lsl #2]
20002aec:	8099      	strh	r1, [r3, #4]
20002aee:	f883 c006 	strb.w	ip, [r3, #6]
20002af2:	71de      	strb	r6, [r3, #7]
20002af4:	f8c3 b008 	str.w	fp, [r3, #8]
20002af8:	e793      	b.n	20002a22 <irq_add_shared_handler+0xa2>
20002afa:	f001 f9c7 	bl	20003e8c <hard_assertion_failure>
20002afe:	4b12      	ldr	r3, [pc, #72]	@ (20002b48 <irq_add_shared_handler+0x1c8>)
20002b00:	f993 4000 	ldrsb.w	r4, [r3]
20002b04:	e759      	b.n	200029ba <irq_add_shared_handler+0x3a>
20002b06:	4672      	mov	r2, lr
20002b08:	f832 1f04 	ldrh.w	r1, [r2, #4]!
20002b0c:	0549      	lsls	r1, r1, #21
20002b0e:	d414      	bmi.n	20002b3a <irq_add_shared_handler+0x1ba>
20002b10:	1549      	asrs	r1, r1, #21
20002b12:	3102      	adds	r1, #2
20002b14:	eb02 0141 	add.w	r1, r2, r1, lsl #1
20002b18:	9101      	str	r1, [sp, #4]
20002b1a:	f06f 0107 	mvn.w	r1, #7
20002b1e:	1bc9      	subs	r1, r1, r7
20002b20:	9f01      	ldr	r7, [sp, #4]
20002b22:	1b49      	subs	r1, r1, r5
20002b24:	4439      	add	r1, r7
20002b26:	f3c1 014a 	ubfx	r1, r1, #1, #11
20002b2a:	f441 4160 	orr.w	r1, r1, #57344	@ 0xe000
20002b2e:	e7c9      	b.n	20002ac4 <irq_add_shared_handler+0x144>
20002b30:	9301      	str	r3, [sp, #4]
20002b32:	f001 f9ab 	bl	20003e8c <hard_assertion_failure>
20002b36:	9b01      	ldr	r3, [sp, #4]
20002b38:	e756      	b.n	200029e8 <irq_add_shared_handler+0x68>
20002b3a:	f501 11ff 	add.w	r1, r1, #2088960	@ 0x1fe000
20002b3e:	f501 51ff 	add.w	r1, r1, #8160	@ 0x1fe0
20002b42:	311f      	adds	r1, #31
20002b44:	e7e4      	b.n	20002b10 <irq_add_shared_handler+0x190>
20002b46:	bf00      	nop
20002b48:	2005afd1 	.word	0x2005afd1
20002b4c:	2000f8cc 	.word	0x2000f8cc
20002b50:	e000ed00 	.word	0xe000ed00
20002b54:	1000011d 	.word	0x1000011d
20002b58:	2000f8fc 	.word	0x2000f8fc
20002b5c:	ffffe000 	.word	0xffffe000
20002b60:	47804801 	.word	0x47804801
20002b64:	20011241 	.word	0x20011241

20002b68 <irq_remove_handler>:
20002b68:	e92d 4ff0 	stmdb	sp!, {r4, r5, r6, r7, r8, r9, sl, fp, lr}
20002b6c:	b083      	sub	sp, #12
20002b6e:	f3ef 8a10 	mrs	sl, PRIMASK
20002b72:	b672      	cpsid	i
20002b74:	4e71      	ldr	r6, [pc, #452]	@ (20002d3c <irq_remove_handler+0x1d4>)
20002b76:	e8d6 2fcf 	ldaexb	r2, [r6]
20002b7a:	2301      	movs	r3, #1
20002b7c:	2a00      	cmp	r2, #0
20002b7e:	d1fa      	bne.n	20002b76 <irq_remove_handler+0xe>
20002b80:	e8c6 3f42 	strexb	r2, r3, [r6]
20002b84:	2a00      	cmp	r2, #0
20002b86:	d1f6      	bne.n	20002b76 <irq_remove_handler+0xe>
20002b88:	f3bf 8f5f 	dmb	sy
20002b8c:	4b6c      	ldr	r3, [pc, #432]	@ (20002d40 <irq_remove_handler+0x1d8>)
20002b8e:	f100 0810 	add.w	r8, r0, #16
20002b92:	689b      	ldr	r3, [r3, #8]
20002b94:	4a6b      	ldr	r2, [pc, #428]	@ (20002d44 <irq_remove_handler+0x1dc>)
20002b96:	f853 5028 	ldr.w	r5, [r3, r8, lsl #2]
20002b9a:	4295      	cmp	r5, r2
20002b9c:	d045      	beq.n	20002c2a <irq_remove_handler+0xc2>
20002b9e:	428d      	cmp	r5, r1
20002ba0:	460c      	mov	r4, r1
20002ba2:	d050      	beq.n	20002c46 <irq_remove_handler+0xde>
20002ba4:	4f68      	ldr	r7, [pc, #416]	@ (20002d48 <irq_remove_handler+0x1e0>)
20002ba6:	1beb      	subs	r3, r5, r7
20002ba8:	2b2f      	cmp	r3, #47	@ 0x2f
20002baa:	d83e      	bhi.n	20002c2a <irq_remove_handler+0xc2>
20002bac:	2101      	movs	r1, #1
20002bae:	ea4f 1950 	mov.w	r9, r0, lsr #5
20002bb2:	ea4f 0989 	mov.w	r9, r9, lsl #2
20002bb6:	f109 4960 	add.w	r9, r9, #3758096384	@ 0xe0000000
20002bba:	f509 4961 	add.w	r9, r9, #57600	@ 0xe100
20002bbe:	f000 031f 	and.w	r3, r0, #31
20002bc2:	fa01 f003 	lsl.w	r0, r1, r3
20002bc6:	f8d9 3000 	ldr.w	r3, [r9]
20002bca:	f8c9 0080 	str.w	r0, [r9, #128]	@ 0x80
20002bce:	ea00 0b03 	and.w	fp, r0, r3
20002bd2:	f3bf 8f5f 	dmb	sy
20002bd6:	f3ef 8105 	mrs	r1, IPSR
20002bda:	b2c9      	uxtb	r1, r1
20002bdc:	2900      	cmp	r1, #0
20002bde:	d034      	beq.n	20002c4a <irq_remove_handler+0xe2>
20002be0:	4588      	cmp	r8, r1
20002be2:	d005      	beq.n	20002bf0 <irq_remove_handler+0x88>
20002be4:	e9cd 1000 	strd	r1, r0, [sp]
20002be8:	f001 f950 	bl	20003e8c <hard_assertion_failure>
20002bec:	e9dd 1000 	ldrd	r1, r0, [sp]
20002bf0:	f025 0e01 	bic.w	lr, r5, #1
20002bf4:	f8de c008 	ldr.w	ip, [lr, #8]
20002bf8:	4564      	cmp	r4, ip
20002bfa:	d105      	bne.n	20002c08 <irq_remove_handler+0xa0>
20002bfc:	e089      	b.n	20002d12 <irq_remove_handler+0x1aa>
20002bfe:	f8d3 c008 	ldr.w	ip, [r3, #8]
20002c02:	4564      	cmp	r4, ip
20002c04:	d031      	beq.n	20002c6a <irq_remove_handler+0x102>
20002c06:	469e      	mov	lr, r3
20002c08:	f99e 2006 	ldrsb.w	r2, [lr, #6]
20002c0c:	eb02 0342 	add.w	r3, r2, r2, lsl #1
20002c10:	2a00      	cmp	r2, #0
20002c12:	eb07 0383 	add.w	r3, r7, r3, lsl #2
20002c16:	daf2      	bge.n	20002bfe <irq_remove_handler+0x96>
20002c18:	4564      	cmp	r4, ip
20002c1a:	d061      	beq.n	20002ce0 <irq_remove_handler+0x178>
20002c1c:	f1bb 0f00 	cmp.w	fp, #0
20002c20:	d020      	beq.n	20002c64 <irq_remove_handler+0xfc>
20002c22:	f8c9 0180 	str.w	r0, [r9, #384]	@ 0x180
20002c26:	f8c9 0000 	str.w	r0, [r9]
20002c2a:	4b45      	ldr	r3, [pc, #276]	@ (20002d40 <irq_remove_handler+0x1d8>)
20002c2c:	689b      	ldr	r3, [r3, #8]
20002c2e:	f843 5028 	str.w	r5, [r3, r8, lsl #2]
20002c32:	f3bf 8f5f 	dmb	sy
20002c36:	2300      	movs	r3, #0
20002c38:	e8c6 3f8f 	stlb	r3, [r6]
20002c3c:	f38a 8810 	msr	PRIMASK, sl
20002c40:	b003      	add	sp, #12
20002c42:	e8bd 8ff0 	ldmia.w	sp!, {r4, r5, r6, r7, r8, r9, sl, fp, pc}
20002c46:	4615      	mov	r5, r2
20002c48:	e7ef      	b.n	20002c2a <irq_remove_handler+0xc2>
20002c4a:	f025 0e01 	bic.w	lr, r5, #1
20002c4e:	f8de c008 	ldr.w	ip, [lr, #8]
20002c52:	4564      	cmp	r4, ip
20002c54:	d1d8      	bne.n	20002c08 <irq_remove_handler+0xa0>
20002c56:	f99e 4006 	ldrsb.w	r4, [lr, #6]
20002c5a:	4673      	mov	r3, lr
20002c5c:	2c00      	cmp	r4, #0
20002c5e:	da08      	bge.n	20002c72 <irq_remove_handler+0x10a>
20002c60:	4615      	mov	r5, r2
20002c62:	e046      	b.n	20002cf2 <irq_remove_handler+0x18a>
20002c64:	f8c9 0080 	str.w	r0, [r9, #128]	@ 0x80
20002c68:	e7df      	b.n	20002c2a <irq_remove_handler+0xc2>
20002c6a:	f993 4006 	ldrsb.w	r4, [r3, #6]
20002c6e:	2c00      	cmp	r4, #0
20002c70:	db37      	blt.n	20002ce2 <irq_remove_handler+0x17a>
20002c72:	eb04 0c44 	add.w	ip, r4, r4, lsl #1
20002c76:	eb07 0c8c 	add.w	ip, r7, ip, lsl #2
20002c7a:	f89c 1007 	ldrb.w	r1, [ip, #7]
20002c7e:	f8dc 2008 	ldr.w	r2, [ip, #8]
20002c82:	71d9      	strb	r1, [r3, #7]
20002c84:	609a      	str	r2, [r3, #8]
20002c86:	f99c 2006 	ldrsb.w	r2, [ip, #6]
20002c8a:	0061      	lsls	r1, r4, #1
20002c8c:	2a00      	cmp	r2, #0
20002c8e:	719a      	strb	r2, [r3, #6]
20002c90:	db3d      	blt.n	20002d0e <irq_remove_handler+0x1a6>
20002c92:	f8bc e004 	ldrh.w	lr, [ip, #4]
20002c96:	ea5f 5e4e 	movs.w	lr, lr, lsl #21
20002c9a:	d505      	bpl.n	20002ca8 <irq_remove_handler+0x140>
20002c9c:	f50e 1eff 	add.w	lr, lr, #2088960	@ 0x1fe000
20002ca0:	f50e 5eff 	add.w	lr, lr, #8160	@ 0x1fe0
20002ca4:	f10e 0e1f 	add.w	lr, lr, #31
20002ca8:	f06f 0c07 	mvn.w	ip, #7
20002cac:	190a      	adds	r2, r1, r4
20002cae:	ea4f 5e6e 	mov.w	lr, lr, asr #21
20002cb2:	0092      	lsls	r2, r2, #2
20002cb4:	eb02 024e 	add.w	r2, r2, lr, lsl #1
20002cb8:	3208      	adds	r2, #8
20002cba:	443a      	add	r2, r7
20002cbc:	ebac 0c03 	sub.w	ip, ip, r3
20002cc0:	4462      	add	r2, ip
20002cc2:	f3c2 024a 	ubfx	r2, r2, #1, #11
20002cc6:	ea6f 42c2 	mvn.w	r2, r2, lsl #19
20002cca:	ea6f 42d2 	mvn.w	r2, r2, lsr #19
20002cce:	809a      	strh	r2, [r3, #4]
20002cd0:	4b1e      	ldr	r3, [pc, #120]	@ (20002d4c <irq_remove_handler+0x1e4>)
20002cd2:	4421      	add	r1, r4
20002cd4:	781a      	ldrb	r2, [r3, #0]
20002cd6:	eb07 0181 	add.w	r1, r7, r1, lsl #2
20002cda:	701c      	strb	r4, [r3, #0]
20002cdc:	718a      	strb	r2, [r1, #6]
20002cde:	e79d      	b.n	20002c1c <irq_remove_handler+0xb4>
20002ce0:	4673      	mov	r3, lr
20002ce2:	b9d9      	cbnz	r1, 20002d1c <irq_remove_handler+0x1b4>
20002ce4:	22ff      	movs	r2, #255	@ 0xff
20002ce6:	f88e 2006 	strb.w	r2, [lr, #6]
20002cea:	f64b 5201 	movw	r2, #48385	@ 0xbd01
20002cee:	f8ae 2004 	strh.w	r2, [lr, #4]
20002cf2:	4c16      	ldr	r4, [pc, #88]	@ (20002d4c <irq_remove_handler+0x1e4>)
20002cf4:	f64a 22aa 	movw	r2, #43690	@ 0xaaaa
20002cf8:	f894 c000 	ldrb.w	ip, [r4]
20002cfc:	4619      	mov	r1, r3
20002cfe:	1bc9      	subs	r1, r1, r7
20002d00:	4149      	adcs	r1, r1
20002d02:	434a      	muls	r2, r1
20002d04:	0d12      	lsrs	r2, r2, #20
20002d06:	f883 c006 	strb.w	ip, [r3, #6]
20002d0a:	7022      	strb	r2, [r4, #0]
20002d0c:	e786      	b.n	20002c1c <irq_remove_handler+0xb4>
20002d0e:	4a10      	ldr	r2, [pc, #64]	@ (20002d50 <irq_remove_handler+0x1e8>)
20002d10:	e7dd      	b.n	20002cce <irq_remove_handler+0x166>
20002d12:	f99e 4006 	ldrsb.w	r4, [lr, #6]
20002d16:	4673      	mov	r3, lr
20002d18:	2c00      	cmp	r4, #0
20002d1a:	daaa      	bge.n	20002c72 <irq_remove_handler+0x10a>
20002d1c:	4a0d      	ldr	r2, [pc, #52]	@ (20002d54 <irq_remove_handler+0x1ec>)
20002d1e:	4c0e      	ldr	r4, [pc, #56]	@ (20002d58 <irq_remove_handler+0x1f0>)
20002d20:	1ad2      	subs	r2, r2, r3
20002d22:	3a08      	subs	r2, #8
20002d24:	f3c2 310a 	ubfx	r1, r2, #12, #11
20002d28:	ea6f 5101 	mvn.w	r1, r1, lsl #20
20002d2c:	ea6f 5111 	mvn.w	r1, r1, lsr #20
20002d30:	ea44 0252 	orr.w	r2, r4, r2, lsr #1
20002d34:	80da      	strh	r2, [r3, #6]
20002d36:	8099      	strh	r1, [r3, #4]
20002d38:	e770      	b.n	20002c1c <irq_remove_handler+0xb4>
20002d3a:	bf00      	nop
20002d3c:	20011241 	.word	0x20011241
20002d40:	e000ed00 	.word	0xe000ed00
20002d44:	1000011d 	.word	0x1000011d
20002d48:	2000f8cc 	.word	0x2000f8cc
20002d4c:	2005afd1 	.word	0x2005afd1
20002d50:	ffffbd01 	.word	0xffffbd01
20002d54:	2000f906 	.word	0x2000f906
20002d58:	fffff800 	.word	0xfffff800

20002d5c <irq_add_tail_to_free_list>:
20002d5c:	b5f0      	push	{r4, r5, r6, r7, lr}
20002d5e:	f3ef 8505 	mrs	r5, IPSR
20002d62:	b2ed      	uxtb	r5, r5
20002d64:	f3ef 8c10 	mrs	ip, PRIMASK
20002d68:	b672      	cpsid	i
20002d6a:	4926      	ldr	r1, [pc, #152]	@ (20002e04 <irq_add_tail_to_free_list+0xa8>)
20002d6c:	e8d1 2fcf 	ldaexb	r2, [r1]
20002d70:	2301      	movs	r3, #1
20002d72:	2a00      	cmp	r2, #0
20002d74:	d1fa      	bne.n	20002d6c <irq_add_tail_to_free_list+0x10>
20002d76:	e8c1 3f42 	strexb	r2, r3, [r1]
20002d7a:	2a00      	cmp	r2, #0
20002d7c:	d1f6      	bne.n	20002d6c <irq_add_tail_to_free_list+0x10>
20002d7e:	f3bf 8f5f 	dmb	sy
20002d82:	4e21      	ldr	r6, [pc, #132]	@ (20002e08 <irq_add_tail_to_free_list+0xac>)
20002d84:	f040 0e01 	orr.w	lr, r0, #1
20002d88:	68b4      	ldr	r4, [r6, #8]
20002d8a:	f64a 23aa 	movw	r3, #43690	@ 0xaaaa
20002d8e:	f854 7025 	ldr.w	r7, [r4, r5, lsl #2]
20002d92:	4a1e      	ldr	r2, [pc, #120]	@ (20002e0c <irq_add_tail_to_free_list+0xb0>)
20002d94:	4604      	mov	r4, r0
20002d96:	1aa4      	subs	r4, r4, r2
20002d98:	4164      	adcs	r4, r4
20002d9a:	4363      	muls	r3, r4
20002d9c:	0d1b      	lsrs	r3, r3, #20
20002d9e:	4577      	cmp	r7, lr
20002da0:	b25b      	sxtb	r3, r3
20002da2:	d01b      	beq.n	20002ddc <irq_add_tail_to_free_list+0x80>
20002da4:	f992 4006 	ldrsb.w	r4, [r2, #6]
20002da8:	429c      	cmp	r4, r3
20002daa:	d01c      	beq.n	20002de6 <irq_add_tail_to_free_list+0x8a>
20002dac:	f992 4012 	ldrsb.w	r4, [r2, #18]
20002db0:	429c      	cmp	r4, r3
20002db2:	d023      	beq.n	20002dfc <irq_add_tail_to_free_list+0xa0>
20002db4:	f992 401e 	ldrsb.w	r4, [r2, #30]
20002db8:	429c      	cmp	r4, r3
20002dba:	d021      	beq.n	20002e00 <irq_add_tail_to_free_list+0xa4>
20002dbc:	f992 402a 	ldrsb.w	r4, [r2, #42]	@ 0x2a
20002dc0:	429c      	cmp	r4, r3
20002dc2:	bf08      	it	eq
20002dc4:	2403      	moveq	r4, #3
20002dc6:	d00f      	beq.n	20002de8 <irq_add_tail_to_free_list+0x8c>
20002dc8:	4a11      	ldr	r2, [pc, #68]	@ (20002e10 <irq_add_tail_to_free_list+0xb4>)
20002dca:	2400      	movs	r4, #0
20002dcc:	7815      	ldrb	r5, [r2, #0]
20002dce:	7013      	strb	r3, [r2, #0]
20002dd0:	7185      	strb	r5, [r0, #6]
20002dd2:	e8c1 4f8f 	stlb	r4, [r1]
20002dd6:	f38c 8810 	msr	PRIMASK, ip
20002dda:	bdf0      	pop	{r4, r5, r6, r7, pc}
20002ddc:	68b2      	ldr	r2, [r6, #8]
20002dde:	4c0d      	ldr	r4, [pc, #52]	@ (20002e14 <irq_add_tail_to_free_list+0xb8>)
20002de0:	f842 4025 	str.w	r4, [r2, r5, lsl #2]
20002de4:	e7f0      	b.n	20002dc8 <irq_add_tail_to_free_list+0x6c>
20002de6:	2400      	movs	r4, #0
20002de8:	eb04 0444 	add.w	r4, r4, r4, lsl #1
20002dec:	eb02 0284 	add.w	r2, r2, r4, lsl #2
20002df0:	24ff      	movs	r4, #255	@ 0xff
20002df2:	7194      	strb	r4, [r2, #6]
20002df4:	f64b 5401 	movw	r4, #48385	@ 0xbd01
20002df8:	8094      	strh	r4, [r2, #4]
20002dfa:	e7e5      	b.n	20002dc8 <irq_add_tail_to_free_list+0x6c>
20002dfc:	2401      	movs	r4, #1
20002dfe:	e7f3      	b.n	20002de8 <irq_add_tail_to_free_list+0x8c>
20002e00:	2402      	movs	r4, #2
20002e02:	e7f1      	b.n	20002de8 <irq_add_tail_to_free_list+0x8c>
20002e04:	20011241 	.word	0x20011241
20002e08:	e000ed00 	.word	0xe000ed00
20002e0c:	2000f8cc 	.word	0x2000f8cc
20002e10:	2005afd1 	.word	0x2005afd1
20002e14:	1000011d 	.word	0x1000011d

20002e18 <lock_init>:
20002e18:	4b01      	ldr	r3, [pc, #4]	@ (20002e20 <lock_init+0x8>)
20002e1a:	440b      	add	r3, r1
20002e1c:	6003      	str	r3, [r0, #0]
20002e1e:	4770      	bx	lr
20002e20:	20011238 	.word	0x20011238

20002e24 <runtime_init_mutex>:
20002e24:	b570      	push	{r4, r5, r6, lr}
20002e26:	4c10      	ldr	r4, [pc, #64]	@ (20002e68 <runtime_init_mutex+0x44>)
20002e28:	4d10      	ldr	r5, [pc, #64]	@ (20002e6c <runtime_init_mutex+0x48>)
20002e2a:	42ac      	cmp	r4, r5
20002e2c:	d20e      	bcs.n	20002e4c <runtime_init_mutex+0x28>
20002e2e:	26ff      	movs	r6, #255	@ 0xff
20002e30:	6823      	ldr	r3, [r4, #0]
20002e32:	b163      	cbz	r3, 20002e4e <runtime_init_mutex+0x2a>
20002e34:	f7ff fcfe 	bl	20002834 <next_striped_spin_lock_num>
20002e38:	4601      	mov	r1, r0
20002e3a:	4620      	mov	r0, r4
20002e3c:	f7ff ffec 	bl	20002e18 <lock_init>
20002e40:	80a6      	strh	r6, [r4, #4]
20002e42:	f3bf 8f5f 	dmb	sy
20002e46:	3408      	adds	r4, #8
20002e48:	42ac      	cmp	r4, r5
20002e4a:	d3f1      	bcc.n	20002e30 <runtime_init_mutex+0xc>
20002e4c:	bd70      	pop	{r4, r5, r6, pc}
20002e4e:	f7ff fcf1 	bl	20002834 <next_striped_spin_lock_num>
20002e52:	4601      	mov	r1, r0
20002e54:	4620      	mov	r0, r4
20002e56:	f7ff ffdf 	bl	20002e18 <lock_init>
20002e5a:	7126      	strb	r6, [r4, #4]
20002e5c:	f3bf 8f5f 	dmb	sy
20002e60:	3408      	adds	r4, #8
20002e62:	42ac      	cmp	r4, r5
20002e64:	d3e4      	bcc.n	20002e30 <runtime_init_mutex+0xc>
20002e66:	bd70      	pop	{r4, r5, r6, pc}
20002e68:	20010534 	.word	0x20010534
20002e6c:	20010544 	.word	0x20010544

20002e70 <mutex_init>:
20002e70:	b510      	push	{r4, lr}
20002e72:	4604      	mov	r4, r0
20002e74:	f7ff fcde 	bl	20002834 <next_striped_spin_lock_num>
20002e78:	4601      	mov	r1, r0
20002e7a:	4620      	mov	r0, r4
20002e7c:	f7ff ffcc 	bl	20002e18 <lock_init>
20002e80:	23ff      	movs	r3, #255	@ 0xff
20002e82:	7123      	strb	r3, [r4, #4]
20002e84:	f3bf 8f5f 	dmb	sy
20002e88:	bd10      	pop	{r4, pc}
20002e8a:	bf00      	nop

20002e8c <critical_section_init>:
20002e8c:	b510      	push	{r4, lr}
20002e8e:	4604      	mov	r4, r0
20002e90:	2001      	movs	r0, #1
20002e92:	f7ff fcdb 	bl	2000284c <spin_lock_claim_unused>
20002e96:	4b03      	ldr	r3, [pc, #12]	@ (20002ea4 <critical_section_init+0x18>)
20002e98:	4403      	add	r3, r0
20002e9a:	6023      	str	r3, [r4, #0]
20002e9c:	f3bf 8f5f 	dmb	sy
20002ea0:	bd10      	pop	{r4, pc}
20002ea2:	bf00      	nop
20002ea4:	20011238 	.word	0x20011238

20002ea8 <sleep_until_callback>:
20002ea8:	4b0d      	ldr	r3, [pc, #52]	@ (20002ee0 <sleep_until_callback+0x38>)
20002eaa:	681a      	ldr	r2, [r3, #0]
20002eac:	f3ef 8110 	mrs	r1, PRIMASK
20002eb0:	b672      	cpsid	i
20002eb2:	e8d2 cfcf 	ldaexb	ip, [r2]
20002eb6:	2001      	movs	r0, #1
20002eb8:	f1bc 0f00 	cmp.w	ip, #0
20002ebc:	d1f9      	bne.n	20002eb2 <sleep_until_callback+0xa>
20002ebe:	e8c2 0f4c 	strexb	ip, r0, [r2]
20002ec2:	f1bc 0f00 	cmp.w	ip, #0
20002ec6:	d1f4      	bne.n	20002eb2 <sleep_until_callback+0xa>
20002ec8:	f3bf 8f5f 	dmb	sy
20002ecc:	2200      	movs	r2, #0
20002ece:	681b      	ldr	r3, [r3, #0]
20002ed0:	e8c3 2f8f 	stlb	r2, [r3]
20002ed4:	f381 8810 	msr	PRIMASK, r1
20002ed8:	bf40      	sev
20002eda:	2000      	movs	r0, #0
20002edc:	2100      	movs	r1, #0
20002ede:	4770      	bx	lr
20002ee0:	2005a7ac 	.word	0x2005a7ac
20002ee4:	00000000 	.word	0x00000000

20002ee8 <alarm_pool_irq_handler>:
20002ee8:	e92d 4ff0 	stmdb	sp!, {r4, r5, r6, r7, r8, r9, sl, fp, lr}
20002eec:	ed2d 8b02 	vpush	{d8}
20002ef0:	b085      	sub	sp, #20
20002ef2:	f3ef 8305 	mrs	r3, IPSR
20002ef6:	b2db      	uxtb	r3, r3
20002ef8:	3b10      	subs	r3, #16
20002efa:	089a      	lsrs	r2, r3, #2
20002efc:	bf18      	it	ne
20002efe:	2201      	movne	r2, #1
20002f00:	f04f 0101 	mov.w	r1, #1
20002f04:	f003 0b03 	and.w	fp, r3, #3
20002f08:	bf18      	it	ne
20002f0a:	4daf      	ldrne	r5, [pc, #700]	@ (200031c8 <alarm_pool_irq_handler+0x2e0>)
20002f0c:	4baf      	ldr	r3, [pc, #700]	@ (200031cc <alarm_pool_irq_handler+0x2e4>)
20002f0e:	bf08      	it	eq
20002f10:	4daf      	ldreq	r5, [pc, #700]	@ (200031d0 <alarm_pool_irq_handler+0x2e8>)
20002f12:	eb0b 0282 	add.w	r2, fp, r2, lsl #2
20002f16:	f853 6022 	ldr.w	r6, [r3, r2, lsl #2]
20002f1a:	fa01 f20b 	lsl.w	r2, r1, fp
20002f1e:	f505 5341 	add.w	r3, r5, #12352	@ 0x3040
20002f22:	ed9f 8ba7 	vldr	d8, [pc, #668]	@ 200031c0 <alarm_pool_irq_handler+0x2d8>
20002f26:	9201      	str	r2, [sp, #4]
20002f28:	605a      	str	r2, [r3, #4]
20002f2a:	e02f      	b.n	20002f8c <alarm_pool_irq_handler+0xa4>
20002f2c:	88b3      	ldrh	r3, [r6, #4]
20002f2e:	041c      	lsls	r4, r3, #16
20002f30:	f140 8093 	bpl.w	2000305a <alarm_pool_irq_handler+0x172>
20002f34:	79b3      	ldrb	r3, [r6, #6]
20002f36:	2b00      	cmp	r3, #0
20002f38:	f040 80dd 	bne.w	200030f6 <alarm_pool_irq_handler+0x20e>
20002f3c:	f9b6 2008 	ldrsh.w	r2, [r6, #8]
20002f40:	2a00      	cmp	r2, #0
20002f42:	f2c0 811e 	blt.w	20003182 <alarm_pool_irq_handler+0x29a>
20002f46:	6973      	ldr	r3, [r6, #20]
20002f48:	eb02 0242 	add.w	r2, r2, r2, lsl #1
20002f4c:	eb03 03c2 	add.w	r3, r3, r2, lsl #3
20002f50:	e9d3 4702 	ldrd	r4, r7, [r3, #8]
20002f54:	f1b7 3fff 	cmp.w	r7, #4294967295
20002f58:	bf08      	it	eq
20002f5a:	f1b4 3fff 	cmpeq.w	r4, #4294967295
20002f5e:	d00e      	beq.n	20002f7e <alarm_pool_irq_handler+0x96>
20002f60:	eb05 018b 	add.w	r1, r5, fp, lsl #2
20002f64:	6aab      	ldr	r3, [r5, #40]	@ 0x28
20002f66:	690a      	ldr	r2, [r1, #16]
20002f68:	1ad2      	subs	r2, r2, r3
20002f6a:	1ae3      	subs	r3, r4, r3
20002f6c:	4293      	cmp	r3, r2
20002f6e:	d305      	bcc.n	20002f7c <alarm_pool_irq_handler+0x94>
20002f70:	2301      	movs	r3, #1
20002f72:	6a2a      	ldr	r2, [r5, #32]
20002f74:	fa03 f30b 	lsl.w	r3, r3, fp
20002f78:	4213      	tst	r3, r2
20002f7a:	d100      	bne.n	20002f7e <alarm_pool_irq_handler+0x96>
20002f7c:	610c      	str	r4, [r1, #16]
20002f7e:	4628      	mov	r0, r5
20002f80:	f000 fba4 	bl	200036cc <timer_time_us_64>
20002f84:	42a0      	cmp	r0, r4
20002f86:	41b9      	sbcs	r1, r7
20002f88:	f2c0 80fb 	blt.w	20003182 <alarm_pool_irq_handler+0x29a>
20002f8c:	f9b6 3008 	ldrsh.w	r3, [r6, #8]
20002f90:	9a01      	ldr	r2, [sp, #4]
20002f92:	2b00      	cmp	r3, #0
20002f94:	9300      	str	r3, [sp, #0]
20002f96:	63ea      	str	r2, [r5, #60]	@ 0x3c
20002f98:	dbc8      	blt.n	20002f2c <alarm_pool_irq_handler+0x44>
20002f9a:	f8d6 8014 	ldr.w	r8, [r6, #20]
20002f9e:	eb03 0943 	add.w	r9, r3, r3, lsl #1
20002fa2:	4628      	mov	r0, r5
20002fa4:	eb08 07c9 	add.w	r7, r8, r9, lsl #3
20002fa8:	e9d7 4a02 	ldrd	r4, sl, [r7, #8]
20002fac:	f000 fb8e 	bl	200036cc <timer_time_us_64>
20002fb0:	42a0      	cmp	r0, r4
20002fb2:	eb71 010a 	sbcs.w	r1, r1, sl
20002fb6:	dbb9      	blt.n	20002f2c <alarm_pool_irq_handler+0x44>
20002fb8:	f1ba 0f00 	cmp.w	sl, #0
20002fbc:	f2c0 80c3 	blt.w	20003146 <alarm_pool_irq_handler+0x25e>
20002fc0:	e9d7 3104 	ldrd	r3, r1, [r7, #16]
20002fc4:	4a83      	ldr	r2, [pc, #524]	@ (200031d4 <alarm_pool_irq_handler+0x2ec>)
20002fc6:	4293      	cmp	r3, r2
20002fc8:	f000 80ed 	beq.w	200031a6 <alarm_pool_irq_handler+0x2be>
20002fcc:	887a      	ldrh	r2, [r7, #2]
20002fce:	f9b6 0008 	ldrsh.w	r0, [r6, #8]
20002fd2:	b292      	uxth	r2, r2
20002fd4:	ea42 4000 	orr.w	r0, r2, r0, lsl #16
20002fd8:	4798      	blx	r3
20002fda:	4602      	mov	r2, r0
20002fdc:	460b      	mov	r3, r1
20002fde:	ea52 0103 	orrs.w	r1, r2, r3
20002fe2:	f000 80b0 	beq.w	20003146 <alarm_pool_irq_handler+0x25e>
20002fe6:	2b00      	cmp	r3, #0
20002fe8:	f280 80d1 	bge.w	2000318e <alarm_pool_irq_handler+0x2a6>
20002fec:	ebb4 0e02 	subs.w	lr, r4, r2
20002ff0:	eb6a 0a03 	sbc.w	sl, sl, r3
20002ff4:	f938 3039 	ldrsh.w	r3, [r8, r9, lsl #3]
20002ff8:	e9c7 ea02 	strd	lr, sl, [r7, #8]
20002ffc:	2b00      	cmp	r3, #0
20002ffe:	db95      	blt.n	20002f2c <alarm_pool_irq_handler+0x44>
20003000:	6971      	ldr	r1, [r6, #20]
20003002:	eb03 0243 	add.w	r2, r3, r3, lsl #1
20003006:	eb01 02c2 	add.w	r2, r1, r2, lsl #3
2000300a:	e9d2 7002 	ldrd	r7, r0, [r2, #8]
2000300e:	45be      	cmp	lr, r7
20003010:	eb7a 0c00 	sbcs.w	ip, sl, r0
20003014:	ea4f 0243 	mov.w	r2, r3, lsl #1
20003018:	db88      	blt.n	20002f2c <alarm_pool_irq_handler+0x44>
2000301a:	46b4      	mov	ip, r6
2000301c:	f82c 3f08 	strh.w	r3, [ip, #8]!
20003020:	e006      	b.n	20003030 <alarm_pool_irq_handler+0x148>
20003022:	eb03 0043 	add.w	r0, r3, r3, lsl #1
20003026:	eb01 00c0 	add.w	r0, r1, r0, lsl #3
2000302a:	005a      	lsls	r2, r3, #1
2000302c:	e9d0 7002 	ldrd	r7, r0, [r0, #8]
20003030:	45be      	cmp	lr, r7
20003032:	441a      	add	r2, r3
20003034:	eb7a 0000 	sbcs.w	r0, sl, r0
20003038:	eb01 04c2 	add.w	r4, r1, r2, lsl #3
2000303c:	db04      	blt.n	20003048 <alarm_pool_irq_handler+0x160>
2000303e:	f931 3032 	ldrsh.w	r3, [r1, r2, lsl #3]
20003042:	46a4      	mov	ip, r4
20003044:	2b00      	cmp	r3, #0
20003046:	daec      	bge.n	20003022 <alarm_pool_irq_handler+0x13a>
20003048:	f828 3039 	strh.w	r3, [r8, r9, lsl #3]
2000304c:	9b00      	ldr	r3, [sp, #0]
2000304e:	f8ac 3000 	strh.w	r3, [ip]
20003052:	88b3      	ldrh	r3, [r6, #4]
20003054:	041c      	lsls	r4, r3, #16
20003056:	f53f af6d 	bmi.w	20002f34 <alarm_pool_irq_handler+0x4c>
2000305a:	6933      	ldr	r3, [r6, #16]
2000305c:	f3ef 8210 	mrs	r2, PRIMASK
20003060:	b672      	cpsid	i
20003062:	e8d3 0fcf 	ldaexb	r0, [r3]
20003066:	2101      	movs	r1, #1
20003068:	2800      	cmp	r0, #0
2000306a:	d1fa      	bne.n	20003062 <alarm_pool_irq_handler+0x17a>
2000306c:	e8c3 1f40 	strexb	r0, r1, [r3]
20003070:	2800      	cmp	r0, #0
20003072:	d1f6      	bne.n	20003062 <alarm_pool_irq_handler+0x17a>
20003074:	f3bf 8f5f 	dmb	sy
20003078:	f64f 74ff 	movw	r4, #65535	@ 0xffff
2000307c:	88b0      	ldrh	r0, [r6, #4]
2000307e:	2300      	movs	r3, #0
20003080:	6931      	ldr	r1, [r6, #16]
20003082:	b200      	sxth	r0, r0
20003084:	80b4      	strh	r4, [r6, #4]
20003086:	e8c1 3f8f 	stlb	r3, [r1]
2000308a:	f382 8810 	msr	PRIMASK, r2
2000308e:	4298      	cmp	r0, r3
20003090:	f6ff af50 	blt.w	20002f34 <alarm_pool_irq_handler+0x4c>
20003094:	4607      	mov	r7, r0
20003096:	46a9      	mov	r9, r5
20003098:	6974      	ldr	r4, [r6, #20]
2000309a:	f106 0808 	add.w	r8, r6, #8
2000309e:	eb07 0e47 	add.w	lr, r7, r7, lsl #1
200030a2:	eb04 03ce 	add.w	r3, r4, lr, lsl #3
200030a6:	e9d3 5002 	ldrd	r5, r0, [r3, #8]
200030aa:	f9b6 3008 	ldrsh.w	r3, [r6, #8]
200030ae:	46c4      	mov	ip, r8
200030b0:	2b00      	cmp	r3, #0
200030b2:	db13      	blt.n	200030dc <alarm_pool_irq_handler+0x1f4>
200030b4:	46b2      	mov	sl, r6
200030b6:	9700      	str	r7, [sp, #0]
200030b8:	e004      	b.n	200030c4 <alarm_pool_irq_handler+0x1dc>
200030ba:	f934 3036 	ldrsh.w	r3, [r4, r6, lsl #3]
200030be:	4694      	mov	ip, r2
200030c0:	2b00      	cmp	r3, #0
200030c2:	db09      	blt.n	200030d8 <alarm_pool_irq_handler+0x1f0>
200030c4:	eb03 0643 	add.w	r6, r3, r3, lsl #1
200030c8:	eb04 02c6 	add.w	r2, r4, r6, lsl #3
200030cc:	e9d2 7102 	ldrd	r7, r1, [r2, #8]
200030d0:	42bd      	cmp	r5, r7
200030d2:	eb70 0101 	sbcs.w	r1, r0, r1
200030d6:	daf0      	bge.n	200030ba <alarm_pool_irq_handler+0x1d2>
200030d8:	4656      	mov	r6, sl
200030da:	9f00      	ldr	r7, [sp, #0]
200030dc:	f8ac 7000 	strh.w	r7, [ip]
200030e0:	f934 703e 	ldrsh.w	r7, [r4, lr, lsl #3]
200030e4:	f824 303e 	strh.w	r3, [r4, lr, lsl #3]
200030e8:	2f00      	cmp	r7, #0
200030ea:	dad8      	bge.n	2000309e <alarm_pool_irq_handler+0x1b6>
200030ec:	79b3      	ldrb	r3, [r6, #6]
200030ee:	464d      	mov	r5, r9
200030f0:	2b00      	cmp	r3, #0
200030f2:	f43f af23 	beq.w	20002f3c <alarm_pool_irq_handler+0x54>
200030f6:	2300      	movs	r3, #0
200030f8:	71b3      	strb	r3, [r6, #6]
200030fa:	f9b6 3008 	ldrsh.w	r3, [r6, #8]
200030fe:	f106 0808 	add.w	r8, r6, #8
20003102:	1c58      	adds	r0, r3, #1
20003104:	d03d      	beq.n	20003182 <alarm_pool_irq_handler+0x29a>
20003106:	461a      	mov	r2, r3
20003108:	6977      	ldr	r7, [r6, #20]
2000310a:	e003      	b.n	20003114 <alarm_pool_irq_handler+0x22c>
2000310c:	4680      	mov	r8, r0
2000310e:	1c59      	adds	r1, r3, #1
20003110:	f43f af16 	beq.w	20002f40 <alarm_pool_irq_handler+0x58>
20003114:	eb03 0143 	add.w	r1, r3, r3, lsl #1
20003118:	eb07 00c1 	add.w	r0, r7, r1, lsl #3
2000311c:	f8b0 c002 	ldrh.w	ip, [r0, #2]
20003120:	461c      	mov	r4, r3
20003122:	f41c 4f00 	tst.w	ip, #32768	@ 0x8000
20003126:	469e      	mov	lr, r3
20003128:	f937 3031 	ldrsh.w	r3, [r7, r1, lsl #3]
2000312c:	d0ee      	beq.n	2000310c <alarm_pool_irq_handler+0x224>
2000312e:	4294      	cmp	r4, r2
20003130:	ed80 8b02 	vstr	d8, [r0, #8]
20003134:	d005      	beq.n	20003142 <alarm_pool_irq_handler+0x25a>
20003136:	f8a8 3000 	strh.w	r3, [r8]
2000313a:	8932      	ldrh	r2, [r6, #8]
2000313c:	f827 2031 	strh.w	r2, [r7, r1, lsl #3]
20003140:	8134      	strh	r4, [r6, #8]
20003142:	4672      	mov	r2, lr
20003144:	e7e3      	b.n	2000310e <alarm_pool_irq_handler+0x226>
20003146:	f838 3039 	ldrh.w	r3, [r8, r9, lsl #3]
2000314a:	8133      	strh	r3, [r6, #8]
2000314c:	6933      	ldr	r3, [r6, #16]
2000314e:	f3ef 8210 	mrs	r2, PRIMASK
20003152:	b672      	cpsid	i
20003154:	e8d3 0fcf 	ldaexb	r0, [r3]
20003158:	2101      	movs	r1, #1
2000315a:	2800      	cmp	r0, #0
2000315c:	d1fa      	bne.n	20003154 <alarm_pool_irq_handler+0x26c>
2000315e:	e8c3 1f40 	strexb	r0, r1, [r3]
20003162:	2800      	cmp	r0, #0
20003164:	d1f6      	bne.n	20003154 <alarm_pool_irq_handler+0x26c>
20003166:	f3bf 8f5f 	dmb	sy
2000316a:	8873      	ldrh	r3, [r6, #2]
2000316c:	6931      	ldr	r1, [r6, #16]
2000316e:	f828 3039 	strh.w	r3, [r8, r9, lsl #3]
20003172:	9b00      	ldr	r3, [sp, #0]
20003174:	8073      	strh	r3, [r6, #2]
20003176:	2300      	movs	r3, #0
20003178:	e8c1 3f8f 	stlb	r3, [r1]
2000317c:	f382 8810 	msr	PRIMASK, r2
20003180:	e6d4      	b.n	20002f2c <alarm_pool_irq_handler+0x44>
20003182:	bf40      	sev
20003184:	b005      	add	sp, #20
20003186:	ecbd 8b02 	vpop	{d8}
2000318a:	e8bd 8ff0 	ldmia.w	sp!, {r4, r5, r6, r7, r8, r9, sl, fp, pc}
2000318e:	4628      	mov	r0, r5
20003190:	e9cd 2302 	strd	r2, r3, [sp, #8]
20003194:	f000 fa9a 	bl	200036cc <timer_time_us_64>
20003198:	9a02      	ldr	r2, [sp, #8]
2000319a:	9b03      	ldr	r3, [sp, #12]
2000319c:	eb10 0e02 	adds.w	lr, r0, r2
200031a0:	eb43 0a01 	adc.w	sl, r3, r1
200031a4:	e726      	b.n	20002ff4 <alarm_pool_irq_handler+0x10c>
200031a6:	4608      	mov	r0, r1
200031a8:	690b      	ldr	r3, [r1, #16]
200031aa:	9102      	str	r1, [sp, #8]
200031ac:	4798      	blx	r3
200031ae:	2800      	cmp	r0, #0
200031b0:	d0c9      	beq.n	20003146 <alarm_pool_irq_handler+0x25e>
200031b2:	9902      	ldr	r1, [sp, #8]
200031b4:	e9d1 2300 	ldrd	r2, r3, [r1]
200031b8:	e711      	b.n	20002fde <alarm_pool_irq_handler+0xf6>
200031ba:	bf00      	nop
200031bc:	f3af 8000 	nop.w
200031c0:	ffffffff 	.word	0xffffffff
200031c4:	ffffffff 	.word	0xffffffff
200031c8:	400b8000 	.word	0x400b8000
200031cc:	2005a74c 	.word	0x2005a74c
200031d0:	400b0000 	.word	0x400b0000
200031d4:	20002ee9 	.word	0x20002ee9

200031d8 <runtime_init_default_alarm_pool>:
200031d8:	e92d 4ff8 	stmdb	sp!, {r3, r4, r5, r6, r7, r8, r9, sl, fp, lr}
200031dc:	4c36      	ldr	r4, [pc, #216]	@ (200032b8 <runtime_init_default_alarm_pool+0xe0>)
200031de:	6925      	ldr	r5, [r4, #16]
200031e0:	b12d      	cbz	r5, 200031ee <runtime_init_default_alarm_pool+0x16>
200031e2:	e8bd 4ff8 	ldmia.w	sp!, {r3, r4, r5, r6, r7, r8, r9, sl, fp, lr}
200031e6:	210a      	movs	r1, #10
200031e8:	4834      	ldr	r0, [pc, #208]	@ (200032bc <runtime_init_default_alarm_pool+0xe4>)
200031ea:	f7ff be15 	b.w	20002e18 <lock_init>
200031ee:	f8df 80e4 	ldr.w	r8, [pc, #228]	@ 200032d4 <runtime_init_default_alarm_pool+0xfc>
200031f2:	2103      	movs	r1, #3
200031f4:	4640      	mov	r0, r8
200031f6:	f000 fa57 	bl	200036a8 <timer_hardware_alarm_claim>
200031fa:	2603      	movs	r6, #3
200031fc:	f8c4 800c 	str.w	r8, [r4, #12]
20003200:	f7ff fb18 	bl	20002834 <next_striped_spin_lock_num>
20003204:	f04f 4c50 	mov.w	ip, #3489660928	@ 0xd0000000
20003208:	4b2d      	ldr	r3, [pc, #180]	@ (200032c0 <runtime_init_default_alarm_pool+0xe8>)
2000320a:	7026      	strb	r6, [r4, #0]
2000320c:	4403      	add	r3, r0
2000320e:	6123      	str	r3, [r4, #16]
20003210:	f8dc 3000 	ldr.w	r3, [ip]
20003214:	210f      	movs	r1, #15
20003216:	7063      	strb	r3, [r4, #1]
20003218:	6963      	ldr	r3, [r4, #20]
2000321a:	8061      	strh	r1, [r4, #2]
2000321c:	831d      	strh	r5, [r3, #24]
2000321e:	f04f 0504 	mov.w	r5, #4
20003222:	f8a3 5078 	strh.w	r5, [r3, #120]	@ 0x78
20003226:	f04f 0505 	mov.w	r5, #5
2000322a:	f8a3 5090 	strh.w	r5, [r3, #144]	@ 0x90
2000322e:	f04f 0506 	mov.w	r5, #6
20003232:	f8a3 50a8 	strh.w	r5, [r3, #168]	@ 0xa8
20003236:	f04f 0507 	mov.w	r5, #7
2000323a:	210e      	movs	r1, #14
2000323c:	f64f 72ff 	movw	r2, #65535	@ 0xffff
20003240:	2708      	movs	r7, #8
20003242:	f04f 0e0a 	mov.w	lr, #10
20003246:	f8a3 50c0 	strh.w	r5, [r3, #192]	@ 0xc0
2000324a:	f04f 0901 	mov.w	r9, #1
2000324e:	f04f 0c0c 	mov.w	ip, #12
20003252:	f04f 0b02 	mov.w	fp, #2
20003256:	f04f 0a09 	mov.w	sl, #9
2000325a:	200d      	movs	r0, #13
2000325c:	f04f 050b 	mov.w	r5, #11
20003260:	f8a3 1168 	strh.w	r1, [r3, #360]	@ 0x168
20003264:	4917      	ldr	r1, [pc, #92]	@ (200032c4 <runtime_init_default_alarm_pool+0xec>)
20003266:	80a2      	strh	r2, [r4, #4]
20003268:	f8a3 e108 	strh.w	lr, [r3, #264]	@ 0x108
2000326c:	60a1      	str	r1, [r4, #8]
2000326e:	f8a3 b048 	strh.w	fp, [r3, #72]	@ 0x48
20003272:	f8a3 a0f0 	strh.w	sl, [r3, #240]	@ 0xf0
20003276:	f8a3 5120 	strh.w	r5, [r3, #288]	@ 0x120
2000327a:	f8a3 c138 	strh.w	ip, [r3, #312]	@ 0x138
2000327e:	f8a3 0150 	strh.w	r0, [r3, #336]	@ 0x150
20003282:	f8a3 9030 	strh.w	r9, [r3, #48]	@ 0x30
20003286:	f8a3 6060 	strh.w	r6, [r3, #96]	@ 0x60
2000328a:	f8a3 70d8 	strh.w	r7, [r3, #216]	@ 0xd8
2000328e:	801a      	strh	r2, [r3, #0]
20003290:	4b0d      	ldr	r3, [pc, #52]	@ (200032c8 <runtime_init_default_alarm_pool+0xf0>)
20003292:	4630      	mov	r0, r6
20003294:	f8c8 7020 	str.w	r7, [r8, #32]
20003298:	490c      	ldr	r1, [pc, #48]	@ (200032cc <runtime_init_default_alarm_pool+0xf4>)
2000329a:	60dc      	str	r4, [r3, #12]
2000329c:	f7ff fb40 	bl	20002920 <irq_set_exclusive_handler>
200032a0:	4649      	mov	r1, r9
200032a2:	4630      	mov	r0, r6
200032a4:	f7ff fb16 	bl	200028d4 <irq_set_enabled>
200032a8:	4b09      	ldr	r3, [pc, #36]	@ (200032d0 <runtime_init_default_alarm_pool+0xf8>)
200032aa:	210a      	movs	r1, #10
200032ac:	641f      	str	r7, [r3, #64]	@ 0x40
200032ae:	4803      	ldr	r0, [pc, #12]	@ (200032bc <runtime_init_default_alarm_pool+0xe4>)
200032b0:	e8bd 4ff8 	ldmia.w	sp!, {r3, r4, r5, r6, r7, r8, r9, sl, fp, lr}
200032b4:	f7ff bdb0 	b.w	20002e18 <lock_init>
200032b8:	2000f914 	.word	0x2000f914
200032bc:	2005a7ac 	.word	0x2005a7ac
200032c0:	20011238 	.word	0x20011238
200032c4:	0010ffff 	.word	0x0010ffff
200032c8:	2005a74c 	.word	0x2005a74c
200032cc:	20002ee9 	.word	0x20002ee9
200032d0:	400b2000 	.word	0x400b2000
200032d4:	400b0000 	.word	0x400b0000

200032d8 <alarm_pool_add_alarm_at_force_in_context>:
200032d8:	4601      	mov	r1, r0
200032da:	b5f0      	push	{r4, r5, r6, r7, lr}
200032dc:	6900      	ldr	r0, [r0, #16]
200032de:	f3ef 8710 	mrs	r7, PRIMASK
200032e2:	b672      	cpsid	i
200032e4:	e8d0 5fcf 	ldaexb	r5, [r0]
200032e8:	2401      	movs	r4, #1
200032ea:	2d00      	cmp	r5, #0
200032ec:	d1fa      	bne.n	200032e4 <alarm_pool_add_alarm_at_force_in_context+0xc>
200032ee:	e8c0 4f45 	strexb	r5, r4, [r0]
200032f2:	2d00      	cmp	r5, #0
200032f4:	d1f6      	bne.n	200032e4 <alarm_pool_add_alarm_at_force_in_context+0xc>
200032f6:	f3bf 8f5f 	dmb	sy
200032fa:	f9b1 e002 	ldrsh.w	lr, [r1, #2]
200032fe:	694c      	ldr	r4, [r1, #20]
20003300:	eb0e 0c4e 	add.w	ip, lr, lr, lsl #1
20003304:	f1be 0f00 	cmp.w	lr, #0
20003308:	ea4f 05cc 	mov.w	r5, ip, lsl #3
2000330c:	6908      	ldr	r0, [r1, #16]
2000330e:	eb04 0ccc 	add.w	ip, r4, ip, lsl #3
20003312:	db3c      	blt.n	2000338e <alarm_pool_add_alarm_at_force_in_context+0xb6>
20003314:	5b66      	ldrh	r6, [r4, r5]
20003316:	804e      	strh	r6, [r1, #2]
20003318:	2600      	movs	r6, #0
2000331a:	e8c0 6f8f 	stlb	r6, [r0]
2000331e:	f387 8810 	msr	PRIMASK, r7
20003322:	f8bc 0002 	ldrh.w	r0, [ip, #2]
20003326:	e9cc 2302 	strd	r2, r3, [ip, #8]
2000332a:	3001      	adds	r0, #1
2000332c:	f3c0 000e 	ubfx	r0, r0, #0, #15
20003330:	2801      	cmp	r0, #1
20003332:	bf38      	it	cc
20003334:	2001      	movcc	r0, #1
20003336:	9b05      	ldr	r3, [sp, #20]
20003338:	f8ac 0002 	strh.w	r0, [ip, #2]
2000333c:	f8cc 3010 	str.w	r3, [ip, #16]
20003340:	9b06      	ldr	r3, [sp, #24]
20003342:	ea40 400e 	orr.w	r0, r0, lr, lsl #16
20003346:	f8cc 3014 	str.w	r3, [ip, #20]
2000334a:	690b      	ldr	r3, [r1, #16]
2000334c:	f3ef 8210 	mrs	r2, PRIMASK
20003350:	b672      	cpsid	i
20003352:	e8d3 cfcf 	ldaexb	ip, [r3]
20003356:	2701      	movs	r7, #1
20003358:	f1bc 0f00 	cmp.w	ip, #0
2000335c:	d1f9      	bne.n	20003352 <alarm_pool_add_alarm_at_force_in_context+0x7a>
2000335e:	e8c3 7f4c 	strexb	ip, r7, [r3]
20003362:	f1bc 0f00 	cmp.w	ip, #0
20003366:	d1f4      	bne.n	20003352 <alarm_pool_add_alarm_at_force_in_context+0x7a>
20003368:	f3bf 8f5f 	dmb	sy
2000336c:	888b      	ldrh	r3, [r1, #4]
2000336e:	5363      	strh	r3, [r4, r5]
20003370:	f8a1 e004 	strh.w	lr, [r1, #4]
20003374:	690b      	ldr	r3, [r1, #16]
20003376:	e8c3 6f8f 	stlb	r6, [r3]
2000337a:	f382 8810 	msr	PRIMASK, r2
2000337e:	2201      	movs	r2, #1
20003380:	68cb      	ldr	r3, [r1, #12]
20003382:	7809      	ldrb	r1, [r1, #0]
20003384:	f503 5301 	add.w	r3, r3, #8256	@ 0x2040
20003388:	408a      	lsls	r2, r1
2000338a:	605a      	str	r2, [r3, #4]
2000338c:	bdf0      	pop	{r4, r5, r6, r7, pc}
2000338e:	2300      	movs	r3, #0
20003390:	e8c0 3f8f 	stlb	r3, [r0]
20003394:	f387 8810 	msr	PRIMASK, r7
20003398:	f04f 30ff 	mov.w	r0, #4294967295
2000339c:	bdf0      	pop	{r4, r5, r6, r7, pc}
2000339e:	bf00      	nop

200033a0 <alarm_pool_cancel_alarm>:
200033a0:	4603      	mov	r3, r0
200033a2:	8940      	ldrh	r0, [r0, #10]
200033a4:	ebb0 4f21 	cmp.w	r0, r1, asr #16
200033a8:	dd37      	ble.n	2000341a <alarm_pool_cancel_alarm+0x7a>
200033aa:	6958      	ldr	r0, [r3, #20]
200033ac:	140a      	asrs	r2, r1, #16
200033ae:	eb02 0242 	add.w	r2, r2, r2, lsl #1
200033b2:	b510      	push	{r4, lr}
200033b4:	eb00 00c2 	add.w	r0, r0, r2, lsl #3
200033b8:	691c      	ldr	r4, [r3, #16]
200033ba:	f3ef 8c10 	mrs	ip, PRIMASK
200033be:	b672      	cpsid	i
200033c0:	e8d4 efcf 	ldaexb	lr, [r4]
200033c4:	2201      	movs	r2, #1
200033c6:	f1be 0f00 	cmp.w	lr, #0
200033ca:	d1f9      	bne.n	200033c0 <alarm_pool_cancel_alarm+0x20>
200033cc:	e8c4 2f4e 	strexb	lr, r2, [r4]
200033d0:	f1be 0f00 	cmp.w	lr, #0
200033d4:	d1f4      	bne.n	200033c0 <alarm_pool_cancel_alarm+0x20>
200033d6:	f3bf 8f5f 	dmb	sy
200033da:	8842      	ldrh	r2, [r0, #2]
200033dc:	b289      	uxth	r1, r1
200033de:	b292      	uxth	r2, r2
200033e0:	428a      	cmp	r2, r1
200033e2:	d007      	beq.n	200033f4 <alarm_pool_cancel_alarm+0x54>
200033e4:	2200      	movs	r2, #0
200033e6:	691b      	ldr	r3, [r3, #16]
200033e8:	e8c3 2f8f 	stlb	r2, [r3]
200033ec:	f38c 8810 	msr	PRIMASK, ip
200033f0:	2000      	movs	r0, #0
200033f2:	bd10      	pop	{r4, pc}
200033f4:	f442 4200 	orr.w	r2, r2, #32768	@ 0x8000
200033f8:	8042      	strh	r2, [r0, #2]
200033fa:	2101      	movs	r1, #1
200033fc:	2200      	movs	r2, #0
200033fe:	6918      	ldr	r0, [r3, #16]
20003400:	7199      	strb	r1, [r3, #6]
20003402:	e8c0 2f8f 	stlb	r2, [r0]
20003406:	f38c 8810 	msr	PRIMASK, ip
2000340a:	781c      	ldrb	r4, [r3, #0]
2000340c:	68da      	ldr	r2, [r3, #12]
2000340e:	4608      	mov	r0, r1
20003410:	f502 5301 	add.w	r3, r2, #8256	@ 0x2040
20003414:	40a1      	lsls	r1, r4
20003416:	6059      	str	r1, [r3, #4]
20003418:	bd10      	pop	{r4, pc}
2000341a:	2000      	movs	r0, #0
2000341c:	4770      	bx	lr
2000341e:	bf00      	nop

20003420 <sleep_us>:
20003420:	e92d 41f0 	stmdb	sp!, {r4, r5, r6, r7, r8, lr}
20003424:	b082      	sub	sp, #8
20003426:	4604      	mov	r4, r0
20003428:	460e      	mov	r6, r1
2000342a:	f000 f957 	bl	200036dc <time_us_64>
2000342e:	f04f 32ff 	mov.w	r2, #4294967295
20003432:	f06f 4300 	mvn.w	r3, #2147483648	@ 0x80000000
20003436:	1824      	adds	r4, r4, r0
20003438:	eb46 0601 	adc.w	r6, r6, r1
2000343c:	42a2      	cmp	r2, r4
2000343e:	eb73 0106 	sbcs.w	r1, r3, r6
20003442:	bf3c      	itt	cc
20003444:	4614      	movcc	r4, r2
20003446:	461e      	movcc	r6, r3
20003448:	1fa5      	subs	r5, r4, #6
2000344a:	f146 37ff 	adc.w	r7, r6, #4294967295
2000344e:	42ac      	cmp	r4, r5
20003450:	eb76 0307 	sbcs.w	r3, r6, r7
20003454:	bf3c      	itt	cc
20003456:	2500      	movcc	r5, #0
20003458:	462f      	movcc	r7, r5
2000345a:	f000 f93f 	bl	200036dc <time_us_64>
2000345e:	1a28      	subs	r0, r5, r0
20003460:	eb67 0c01 	sbc.w	ip, r7, r1
20003464:	2801      	cmp	r0, #1
20003466:	f17c 0c00 	sbcs.w	ip, ip, #0
2000346a:	da06      	bge.n	2000347a <sleep_us+0x5a>
2000346c:	4620      	mov	r0, r4
2000346e:	4631      	mov	r1, r6
20003470:	b002      	add	sp, #8
20003472:	e8bd 41f0 	ldmia.w	sp!, {r4, r5, r6, r7, r8, lr}
20003476:	f000 b93b 	b.w	200036f0 <busy_wait_until>
2000347a:	f000 f92f 	bl	200036dc <time_us_64>
2000347e:	4285      	cmp	r5, r0
20003480:	eb67 0101 	sbc.w	r1, r7, r1
20003484:	2900      	cmp	r1, #0
20003486:	db0a      	blt.n	2000349e <sleep_us+0x7e>
20003488:	2100      	movs	r1, #0
2000348a:	4b17      	ldr	r3, [pc, #92]	@ (200034e8 <sleep_us+0xc8>)
2000348c:	462a      	mov	r2, r5
2000348e:	9300      	str	r3, [sp, #0]
20003490:	4816      	ldr	r0, [pc, #88]	@ (200034ec <sleep_us+0xcc>)
20003492:	463b      	mov	r3, r7
20003494:	9101      	str	r1, [sp, #4]
20003496:	f7ff ff1f 	bl	200032d8 <alarm_pool_add_alarm_at_force_in_context>
2000349a:	3001      	adds	r0, #1
2000349c:	d0e6      	beq.n	2000346c <sleep_us+0x4c>
2000349e:	f04f 0c00 	mov.w	ip, #0
200034a2:	4a13      	ldr	r2, [pc, #76]	@ (200034f0 <sleep_us+0xd0>)
200034a4:	4913      	ldr	r1, [pc, #76]	@ (200034f4 <sleep_us+0xd4>)
200034a6:	6a53      	ldr	r3, [r2, #36]	@ 0x24
200034a8:	429f      	cmp	r7, r3
200034aa:	d804      	bhi.n	200034b6 <sleep_us+0x96>
200034ac:	6a90      	ldr	r0, [r2, #40]	@ 0x28
200034ae:	42a8      	cmp	r0, r5
200034b0:	d2dc      	bcs.n	2000346c <sleep_us+0x4c>
200034b2:	429f      	cmp	r7, r3
200034b4:	d1da      	bne.n	2000346c <sleep_us+0x4c>
200034b6:	680b      	ldr	r3, [r1, #0]
200034b8:	f3ef 8010 	mrs	r0, PRIMASK
200034bc:	b672      	cpsid	i
200034be:	e8d3 8fcf 	ldaexb	r8, [r3]
200034c2:	f05f 0e01 	movs.w	lr, #1
200034c6:	f1b8 0f00 	cmp.w	r8, #0
200034ca:	d1f8      	bne.n	200034be <sleep_us+0x9e>
200034cc:	e8c3 ef48 	strexb	r8, lr, [r3]
200034d0:	f1b8 0f00 	cmp.w	r8, #0
200034d4:	d1f3      	bne.n	200034be <sleep_us+0x9e>
200034d6:	f3bf 8f5f 	dmb	sy
200034da:	680b      	ldr	r3, [r1, #0]
200034dc:	e8c3 cf8f 	stlb	ip, [r3]
200034e0:	f380 8810 	msr	PRIMASK, r0
200034e4:	bf20      	wfe
200034e6:	e7de      	b.n	200034a6 <sleep_us+0x86>
200034e8:	20002ea9 	.word	0x20002ea9
200034ec:	2000f914 	.word	0x2000f914
200034f0:	400b0000 	.word	0x400b0000
200034f4:	2005a7ac 	.word	0x2005a7ac

200034f8 <sleep_ms>:
200034f8:	e92d 41f0 	stmdb	sp!, {r4, r5, r6, r7, r8, lr}
200034fc:	b082      	sub	sp, #8
200034fe:	4606      	mov	r6, r0
20003500:	f000 f8ec 	bl	200036dc <time_us_64>
20003504:	f44f 737a 	mov.w	r3, #1000	@ 0x3e8
20003508:	4604      	mov	r4, r0
2000350a:	f04f 30ff 	mov.w	r0, #4294967295
2000350e:	f06f 4200 	mvn.w	r2, #2147483648	@ 0x80000000
20003512:	fbe6 4103 	umlal	r4, r1, r6, r3
20003516:	42a0      	cmp	r0, r4
20003518:	eb72 0301 	sbcs.w	r3, r2, r1
2000351c:	bf3a      	itte	cc
2000351e:	4604      	movcc	r4, r0
20003520:	4615      	movcc	r5, r2
20003522:	460d      	movcs	r5, r1
20003524:	1fa6      	subs	r6, r4, #6
20003526:	f145 37ff 	adc.w	r7, r5, #4294967295
2000352a:	42b4      	cmp	r4, r6
2000352c:	eb75 0307 	sbcs.w	r3, r5, r7
20003530:	bf3c      	itt	cc
20003532:	2600      	movcc	r6, #0
20003534:	4637      	movcc	r7, r6
20003536:	f000 f8d1 	bl	200036dc <time_us_64>
2000353a:	1a30      	subs	r0, r6, r0
2000353c:	eb67 0101 	sbc.w	r1, r7, r1
20003540:	2801      	cmp	r0, #1
20003542:	f171 0100 	sbcs.w	r1, r1, #0
20003546:	da06      	bge.n	20003556 <sleep_ms+0x5e>
20003548:	4620      	mov	r0, r4
2000354a:	4629      	mov	r1, r5
2000354c:	b002      	add	sp, #8
2000354e:	e8bd 41f0 	ldmia.w	sp!, {r4, r5, r6, r7, r8, lr}
20003552:	f000 b8cd 	b.w	200036f0 <busy_wait_until>
20003556:	f000 f8c1 	bl	200036dc <time_us_64>
2000355a:	4286      	cmp	r6, r0
2000355c:	eb67 0101 	sbc.w	r1, r7, r1
20003560:	2900      	cmp	r1, #0
20003562:	db0a      	blt.n	2000357a <sleep_ms+0x82>
20003564:	2100      	movs	r1, #0
20003566:	4b17      	ldr	r3, [pc, #92]	@ (200035c4 <sleep_ms+0xcc>)
20003568:	4632      	mov	r2, r6
2000356a:	9300      	str	r3, [sp, #0]
2000356c:	4816      	ldr	r0, [pc, #88]	@ (200035c8 <sleep_ms+0xd0>)
2000356e:	463b      	mov	r3, r7
20003570:	9101      	str	r1, [sp, #4]
20003572:	f7ff feb1 	bl	200032d8 <alarm_pool_add_alarm_at_force_in_context>
20003576:	3001      	adds	r0, #1
20003578:	d0e6      	beq.n	20003548 <sleep_ms+0x50>
2000357a:	f04f 0c00 	mov.w	ip, #0
2000357e:	4a13      	ldr	r2, [pc, #76]	@ (200035cc <sleep_ms+0xd4>)
20003580:	4913      	ldr	r1, [pc, #76]	@ (200035d0 <sleep_ms+0xd8>)
20003582:	6a53      	ldr	r3, [r2, #36]	@ 0x24
20003584:	429f      	cmp	r7, r3
20003586:	d804      	bhi.n	20003592 <sleep_ms+0x9a>
20003588:	6a90      	ldr	r0, [r2, #40]	@ 0x28
2000358a:	42b0      	cmp	r0, r6
2000358c:	d2dc      	bcs.n	20003548 <sleep_ms+0x50>
2000358e:	429f      	cmp	r7, r3
20003590:	d1da      	bne.n	20003548 <sleep_ms+0x50>
20003592:	680b      	ldr	r3, [r1, #0]
20003594:	f3ef 8010 	mrs	r0, PRIMASK
20003598:	b672      	cpsid	i
2000359a:	e8d3 8fcf 	ldaexb	r8, [r3]
2000359e:	f05f 0e01 	movs.w	lr, #1
200035a2:	f1b8 0f00 	cmp.w	r8, #0
200035a6:	d1f8      	bne.n	2000359a <sleep_ms+0xa2>
200035a8:	e8c3 ef48 	strexb	r8, lr, [r3]
200035ac:	f1b8 0f00 	cmp.w	r8, #0
200035b0:	d1f3      	bne.n	2000359a <sleep_ms+0xa2>
200035b2:	f3bf 8f5f 	dmb	sy
200035b6:	680b      	ldr	r3, [r1, #0]
200035b8:	e8c3 cf8f 	stlb	ip, [r3]
200035bc:	f380 8810 	msr	PRIMASK, r0
200035c0:	bf20      	wfe
200035c2:	e7de      	b.n	20003582 <sleep_ms+0x8a>
200035c4:	20002ea9 	.word	0x20002ea9
200035c8:	2000f914 	.word	0x2000f914
200035cc:	400b0000 	.word	0x400b0000
200035d0:	2005a7ac 	.word	0x2005a7ac

200035d4 <best_effort_wfe_or_timeout>:
200035d4:	e92d 43f0 	stmdb	sp!, {r4, r5, r6, r7, r8, r9, lr}
200035d8:	4606      	mov	r6, r0
200035da:	460d      	mov	r5, r1
200035dc:	b083      	sub	sp, #12
200035de:	f3ef 8405 	mrs	r4, IPSR
200035e2:	b2e4      	uxtb	r4, r4
200035e4:	b13c      	cbz	r4, 200035f6 <best_effort_wfe_or_timeout+0x22>
200035e6:	4b2d      	ldr	r3, [pc, #180]	@ (2000369c <best_effort_wfe_or_timeout+0xc8>)
200035e8:	6a5a      	ldr	r2, [r3, #36]	@ 0x24
200035ea:	42aa      	cmp	r2, r5
200035ec:	d21c      	bcs.n	20003628 <best_effort_wfe_or_timeout+0x54>
200035ee:	2000      	movs	r0, #0
200035f0:	b003      	add	sp, #12
200035f2:	e8bd 83f0 	ldmia.w	sp!, {r4, r5, r6, r7, r8, r9, pc}
200035f6:	4f2a      	ldr	r7, [pc, #168]	@ (200036a0 <best_effort_wfe_or_timeout+0xcc>)
200035f8:	f8d7 900c 	ldr.w	r9, [r7, #12]
200035fc:	f897 8000 	ldrb.w	r8, [r7]
20003600:	4648      	mov	r0, r9
20003602:	f000 f863 	bl	200036cc <timer_time_us_64>
20003606:	f108 0804 	add.w	r8, r8, #4
2000360a:	f859 3028 	ldr.w	r3, [r9, r8, lsl #2]
2000360e:	1a1b      	subs	r3, r3, r0
20003610:	1a30      	subs	r0, r6, r0
20003612:	eb65 0101 	sbc.w	r1, r5, r1
20003616:	4298      	cmp	r0, r3
20003618:	f171 0100 	sbcs.w	r1, r1, #0
2000361c:	db10      	blt.n	20003640 <best_effort_wfe_or_timeout+0x6c>
2000361e:	bf20      	wfe
20003620:	4b1e      	ldr	r3, [pc, #120]	@ (2000369c <best_effort_wfe_or_timeout+0xc8>)
20003622:	6a5a      	ldr	r2, [r3, #36]	@ 0x24
20003624:	42aa      	cmp	r2, r5
20003626:	d3e2      	bcc.n	200035ee <best_effort_wfe_or_timeout+0x1a>
20003628:	bf14      	ite	ne
2000362a:	2401      	movne	r4, #1
2000362c:	2400      	moveq	r4, #0
2000362e:	6a9b      	ldr	r3, [r3, #40]	@ 0x28
20003630:	42b3      	cmp	r3, r6
20003632:	bf34      	ite	cc
20003634:	4620      	movcc	r0, r4
20003636:	f044 0001 	orrcs.w	r0, r4, #1
2000363a:	b003      	add	sp, #12
2000363c:	e8bd 83f0 	ldmia.w	sp!, {r4, r5, r6, r7, r8, r9, pc}
20003640:	f000 f84c 	bl	200036dc <time_us_64>
20003644:	4286      	cmp	r6, r0
20003646:	eb65 0101 	sbc.w	r1, r5, r1
2000364a:	2900      	cmp	r1, #0
2000364c:	db14      	blt.n	20003678 <best_effort_wfe_or_timeout+0xa4>
2000364e:	4b15      	ldr	r3, [pc, #84]	@ (200036a4 <best_effort_wfe_or_timeout+0xd0>)
20003650:	4638      	mov	r0, r7
20003652:	e9cd 3400 	strd	r3, r4, [sp]
20003656:	4632      	mov	r2, r6
20003658:	462b      	mov	r3, r5
2000365a:	f7ff fe3d 	bl	200032d8 <alarm_pool_add_alarm_at_force_in_context>
2000365e:	1e01      	subs	r1, r0, #0
20003660:	dd0a      	ble.n	20003678 <best_effort_wfe_or_timeout+0xa4>
20003662:	4b0e      	ldr	r3, [pc, #56]	@ (2000369c <best_effort_wfe_or_timeout+0xc8>)
20003664:	6a5a      	ldr	r2, [r3, #36]	@ 0x24
20003666:	42aa      	cmp	r2, r5
20003668:	d316      	bcc.n	20003698 <best_effort_wfe_or_timeout+0xc4>
2000366a:	6a9b      	ldr	r3, [r3, #40]	@ 0x28
2000366c:	42b3      	cmp	r3, r6
2000366e:	d311      	bcc.n	20003694 <best_effort_wfe_or_timeout+0xc0>
20003670:	480b      	ldr	r0, [pc, #44]	@ (200036a0 <best_effort_wfe_or_timeout+0xcc>)
20003672:	f7ff fe95 	bl	200033a0 <alarm_pool_cancel_alarm>
20003676:	e7b6      	b.n	200035e6 <best_effort_wfe_or_timeout+0x12>
20003678:	4b08      	ldr	r3, [pc, #32]	@ (2000369c <best_effort_wfe_or_timeout+0xc8>)
2000367a:	6a5c      	ldr	r4, [r3, #36]	@ 0x24
2000367c:	42ac      	cmp	r4, r5
2000367e:	d3b6      	bcc.n	200035ee <best_effort_wfe_or_timeout+0x1a>
20003680:	1b64      	subs	r4, r4, r5
20003682:	bf18      	it	ne
20003684:	2401      	movne	r4, #1
20003686:	6a9b      	ldr	r3, [r3, #40]	@ 0x28
20003688:	42b3      	cmp	r3, r6
2000368a:	bf34      	ite	cc
2000368c:	4620      	movcc	r0, r4
2000368e:	f044 0001 	orrcs.w	r0, r4, #1
20003692:	e7ad      	b.n	200035f0 <best_effort_wfe_or_timeout+0x1c>
20003694:	42aa      	cmp	r2, r5
20003696:	d1eb      	bne.n	20003670 <best_effort_wfe_or_timeout+0x9c>
20003698:	bf20      	wfe
2000369a:	e7e9      	b.n	20003670 <best_effort_wfe_or_timeout+0x9c>
2000369c:	400b0000 	.word	0x400b0000
200036a0:	2000f914 	.word	0x2000f914
200036a4:	20002ea9 	.word	0x20002ea9

200036a8 <timer_hardware_alarm_claim>:
200036a8:	b410      	push	{r4}
200036aa:	4b05      	ldr	r3, [pc, #20]	@ (200036c0 <timer_hardware_alarm_claim+0x18>)
200036ac:	4c05      	ldr	r4, [pc, #20]	@ (200036c4 <timer_hardware_alarm_claim+0x1c>)
200036ae:	4a06      	ldr	r2, [pc, #24]	@ (200036c8 <timer_hardware_alarm_claim+0x20>)
200036b0:	42a0      	cmp	r0, r4
200036b2:	bf14      	ite	ne
200036b4:	4618      	movne	r0, r3
200036b6:	1c58      	addeq	r0, r3, #1
200036b8:	f85d 4b04 	ldr.w	r4, [sp], #4
200036bc:	f7ff b84e 	b.w	2000275c <hw_claim_or_assert>
200036c0:	20059c4c 	.word	0x20059c4c
200036c4:	400b8000 	.word	0x400b8000
200036c8:	2000ea68 	.word	0x2000ea68

200036cc <timer_time_us_64>:
200036cc:	4603      	mov	r3, r0
200036ce:	6a41      	ldr	r1, [r0, #36]	@ 0x24
200036d0:	460a      	mov	r2, r1
200036d2:	6a98      	ldr	r0, [r3, #40]	@ 0x28
200036d4:	6a59      	ldr	r1, [r3, #36]	@ 0x24
200036d6:	428a      	cmp	r2, r1
200036d8:	d1fa      	bne.n	200036d0 <timer_time_us_64+0x4>
200036da:	4770      	bx	lr

200036dc <time_us_64>:
200036dc:	4b03      	ldr	r3, [pc, #12]	@ (200036ec <time_us_64+0x10>)
200036de:	6a59      	ldr	r1, [r3, #36]	@ 0x24
200036e0:	460a      	mov	r2, r1
200036e2:	6a98      	ldr	r0, [r3, #40]	@ 0x28
200036e4:	6a59      	ldr	r1, [r3, #36]	@ 0x24
200036e6:	4291      	cmp	r1, r2
200036e8:	d1fa      	bne.n	200036e0 <time_us_64+0x4>
200036ea:	4770      	bx	lr
200036ec:	400b0000 	.word	0x400b0000

200036f0 <busy_wait_until>:
200036f0:	4a07      	ldr	r2, [pc, #28]	@ (20003710 <busy_wait_until+0x20>)
200036f2:	6a53      	ldr	r3, [r2, #36]	@ 0x24
200036f4:	4299      	cmp	r1, r3
200036f6:	d8fc      	bhi.n	200036f2 <busy_wait_until+0x2>
200036f8:	4299      	cmp	r1, r3
200036fa:	d107      	bne.n	2000370c <busy_wait_until+0x1c>
200036fc:	4b04      	ldr	r3, [pc, #16]	@ (20003710 <busy_wait_until+0x20>)
200036fe:	e002      	b.n	20003706 <busy_wait_until+0x16>
20003700:	6a5a      	ldr	r2, [r3, #36]	@ 0x24
20003702:	4291      	cmp	r1, r2
20003704:	d102      	bne.n	2000370c <busy_wait_until+0x1c>
20003706:	6a9a      	ldr	r2, [r3, #40]	@ 0x28
20003708:	4290      	cmp	r0, r2
2000370a:	d8f9      	bhi.n	20003700 <busy_wait_until+0x10>
2000370c:	4770      	bx	lr
2000370e:	bf00      	nop
20003710:	400b0000 	.word	0x400b0000

20003714 <queue_init_with_spinlock>:
20003714:	b570      	push	{r4, r5, r6, lr}
20003716:	4616      	mov	r6, r2
20003718:	460d      	mov	r5, r1
2000371a:	4619      	mov	r1, r3
2000371c:	4604      	mov	r4, r0
2000371e:	f7ff fb7b 	bl	20002e18 <lock_init>
20003722:	4629      	mov	r1, r5
20003724:	1c70      	adds	r0, r6, #1
20003726:	f000 fe01 	bl	2000432c <__wrap_calloc>
2000372a:	2300      	movs	r3, #0
2000372c:	81e6      	strh	r6, [r4, #14]
2000372e:	6060      	str	r0, [r4, #4]
20003730:	81a5      	strh	r5, [r4, #12]
20003732:	60a3      	str	r3, [r4, #8]
20003734:	bd70      	pop	{r4, r5, r6, pc}
20003736:	bf00      	nop

20003738 <queue_try_add>:
20003738:	b538      	push	{r3, r4, r5, lr}
2000373a:	4604      	mov	r4, r0
2000373c:	6803      	ldr	r3, [r0, #0]
2000373e:	f3ef 8510 	mrs	r5, PRIMASK
20003742:	b672      	cpsid	i
20003744:	e8d3 0fcf 	ldaexb	r0, [r3]
20003748:	2201      	movs	r2, #1
2000374a:	2800      	cmp	r0, #0
2000374c:	d1fa      	bne.n	20003744 <queue_try_add+0xc>
2000374e:	e8c3 2f40 	strexb	r0, r2, [r3]
20003752:	2800      	cmp	r0, #0
20003754:	d1f6      	bne.n	20003744 <queue_try_add+0xc>
20003756:	f3bf 8f5f 	dmb	sy
2000375a:	8920      	ldrh	r0, [r4, #8]
2000375c:	8963      	ldrh	r3, [r4, #10]
2000375e:	89e2      	ldrh	r2, [r4, #14]
20003760:	1ac3      	subs	r3, r0, r3
20003762:	bf44      	itt	mi
20003764:	f102 0c01 	addmi.w	ip, r2, #1
20003768:	4463      	addmi	r3, ip
2000376a:	4293      	cmp	r3, r2
2000376c:	d106      	bne.n	2000377c <queue_try_add+0x44>
2000376e:	2000      	movs	r0, #0
20003770:	6823      	ldr	r3, [r4, #0]
20003772:	e8c3 0f8f 	stlb	r0, [r3]
20003776:	f385 8810 	msr	PRIMASK, r5
2000377a:	bd38      	pop	{r3, r4, r5, pc}
2000377c:	89a2      	ldrh	r2, [r4, #12]
2000377e:	6863      	ldr	r3, [r4, #4]
20003780:	fb02 3000 	mla	r0, r2, r0, r3
20003784:	f005 ffac 	bl	200096e0 <memcpy>
20003788:	2200      	movs	r2, #0
2000378a:	8923      	ldrh	r3, [r4, #8]
2000378c:	89e1      	ldrh	r1, [r4, #14]
2000378e:	3301      	adds	r3, #1
20003790:	b29b      	uxth	r3, r3
20003792:	4299      	cmp	r1, r3
20003794:	bf38      	it	cc
20003796:	4613      	movcc	r3, r2
20003798:	6821      	ldr	r1, [r4, #0]
2000379a:	8123      	strh	r3, [r4, #8]
2000379c:	e8c1 2f8f 	stlb	r2, [r1]
200037a0:	f385 8810 	msr	PRIMASK, r5
200037a4:	bf40      	sev
200037a6:	2001      	movs	r0, #1
200037a8:	bd38      	pop	{r3, r4, r5, pc}
200037aa:	bf00      	nop

200037ac <queue_try_remove>:
200037ac:	b538      	push	{r3, r4, r5, lr}
200037ae:	4604      	mov	r4, r0
200037b0:	6803      	ldr	r3, [r0, #0]
200037b2:	f3ef 8510 	mrs	r5, PRIMASK
200037b6:	b672      	cpsid	i
200037b8:	e8d3 0fcf 	ldaexb	r0, [r3]
200037bc:	2201      	movs	r2, #1
200037be:	2800      	cmp	r0, #0
200037c0:	d1fa      	bne.n	200037b8 <queue_try_remove+0xc>
200037c2:	e8c3 2f40 	strexb	r0, r2, [r3]
200037c6:	2800      	cmp	r0, #0
200037c8:	d1f6      	bne.n	200037b8 <queue_try_remove+0xc>
200037ca:	f3bf 8f5f 	dmb	sy
200037ce:	f8b4 c00a 	ldrh.w	ip, [r4, #10]
200037d2:	8923      	ldrh	r3, [r4, #8]
200037d4:	ebb3 000c 	subs.w	r0, r3, ip
200037d8:	d406      	bmi.n	200037e8 <queue_try_remove+0x3c>
200037da:	b948      	cbnz	r0, 200037f0 <queue_try_remove+0x44>
200037dc:	6823      	ldr	r3, [r4, #0]
200037de:	e8c3 0f8f 	stlb	r0, [r3]
200037e2:	f385 8810 	msr	PRIMASK, r5
200037e6:	bd38      	pop	{r3, r4, r5, pc}
200037e8:	89e3      	ldrh	r3, [r4, #14]
200037ea:	3301      	adds	r3, #1
200037ec:	4418      	add	r0, r3
200037ee:	e7f4      	b.n	200037da <queue_try_remove+0x2e>
200037f0:	b141      	cbz	r1, 20003804 <queue_try_remove+0x58>
200037f2:	4608      	mov	r0, r1
200037f4:	89a2      	ldrh	r2, [r4, #12]
200037f6:	6861      	ldr	r1, [r4, #4]
200037f8:	fb02 110c 	mla	r1, r2, ip, r1
200037fc:	f005 ff70 	bl	200096e0 <memcpy>
20003800:	f8b4 c00a 	ldrh.w	ip, [r4, #10]
20003804:	89e3      	ldrh	r3, [r4, #14]
20003806:	f10c 0c01 	add.w	ip, ip, #1
2000380a:	fa1f fc8c 	uxth.w	ip, ip
2000380e:	4563      	cmp	r3, ip
20003810:	bf38      	it	cc
20003812:	f04f 0c00 	movcc.w	ip, #0
20003816:	6822      	ldr	r2, [r4, #0]
20003818:	2300      	movs	r3, #0
2000381a:	f8a4 c00a 	strh.w	ip, [r4, #10]
2000381e:	e8c2 3f8f 	stlb	r3, [r2]
20003822:	f385 8810 	msr	PRIMASK, r5
20003826:	bf40      	sev
20003828:	2001      	movs	r0, #1
2000382a:	bd38      	pop	{r3, r4, r5, pc}

2000382c <queue_add_blocking>:
2000382c:	b538      	push	{r3, r4, r5, lr}
2000382e:	f04f 0e00 	mov.w	lr, #0
20003832:	4604      	mov	r4, r0
20003834:	e007      	b.n	20003846 <queue_add_blocking+0x1a>
20003836:	4563      	cmp	r3, ip
20003838:	d11f      	bne.n	2000387a <queue_add_blocking+0x4e>
2000383a:	6823      	ldr	r3, [r4, #0]
2000383c:	e8c3 ef8f 	stlb	lr, [r3]
20003840:	f385 8810 	msr	PRIMASK, r5
20003844:	bf20      	wfe
20003846:	6823      	ldr	r3, [r4, #0]
20003848:	f3ef 8510 	mrs	r5, PRIMASK
2000384c:	b672      	cpsid	i
2000384e:	e8d3 0fcf 	ldaexb	r0, [r3]
20003852:	2201      	movs	r2, #1
20003854:	2800      	cmp	r0, #0
20003856:	d1fa      	bne.n	2000384e <queue_add_blocking+0x22>
20003858:	e8c3 2f40 	strexb	r0, r2, [r3]
2000385c:	2800      	cmp	r0, #0
2000385e:	d1f6      	bne.n	2000384e <queue_add_blocking+0x22>
20003860:	f3bf 8f5f 	dmb	sy
20003864:	8920      	ldrh	r0, [r4, #8]
20003866:	8963      	ldrh	r3, [r4, #10]
20003868:	f8b4 c00e 	ldrh.w	ip, [r4, #14]
2000386c:	1ac3      	subs	r3, r0, r3
2000386e:	f10c 0201 	add.w	r2, ip, #1
20003872:	441a      	add	r2, r3
20003874:	d5df      	bpl.n	20003836 <queue_add_blocking+0xa>
20003876:	4562      	cmp	r2, ip
20003878:	d0df      	beq.n	2000383a <queue_add_blocking+0xe>
2000387a:	89a2      	ldrh	r2, [r4, #12]
2000387c:	6863      	ldr	r3, [r4, #4]
2000387e:	fb02 3000 	mla	r0, r2, r0, r3
20003882:	f005 ff2d 	bl	200096e0 <memcpy>
20003886:	2200      	movs	r2, #0
20003888:	8923      	ldrh	r3, [r4, #8]
2000388a:	89e1      	ldrh	r1, [r4, #14]
2000388c:	3301      	adds	r3, #1
2000388e:	b29b      	uxth	r3, r3
20003890:	4299      	cmp	r1, r3
20003892:	bf38      	it	cc
20003894:	4613      	movcc	r3, r2
20003896:	6821      	ldr	r1, [r4, #0]
20003898:	8123      	strh	r3, [r4, #8]
2000389a:	e8c1 2f8f 	stlb	r2, [r1]
2000389e:	f385 8810 	msr	PRIMASK, r5
200038a2:	bf40      	sev
200038a4:	bd38      	pop	{r3, r4, r5, pc}
200038a6:	bf00      	nop

200038a8 <queue_remove_blocking>:
200038a8:	b538      	push	{r3, r4, r5, lr}
200038aa:	4604      	mov	r4, r0
200038ac:	f04f 0e00 	mov.w	lr, #0
200038b0:	4608      	mov	r0, r1
200038b2:	e006      	b.n	200038c2 <queue_remove_blocking+0x1a>
200038b4:	d121      	bne.n	200038fa <queue_remove_blocking+0x52>
200038b6:	6823      	ldr	r3, [r4, #0]
200038b8:	e8c3 ef8f 	stlb	lr, [r3]
200038bc:	f385 8810 	msr	PRIMASK, r5
200038c0:	bf20      	wfe
200038c2:	6823      	ldr	r3, [r4, #0]
200038c4:	f3ef 8510 	mrs	r5, PRIMASK
200038c8:	b672      	cpsid	i
200038ca:	e8d3 cfcf 	ldaexb	ip, [r3]
200038ce:	2201      	movs	r2, #1
200038d0:	f1bc 0f00 	cmp.w	ip, #0
200038d4:	d1f9      	bne.n	200038ca <queue_remove_blocking+0x22>
200038d6:	e8c3 2f4c 	strexb	ip, r2, [r3]
200038da:	f1bc 0f00 	cmp.w	ip, #0
200038de:	d1f4      	bne.n	200038ca <queue_remove_blocking+0x22>
200038e0:	f3bf 8f5f 	dmb	sy
200038e4:	f8b4 c00a 	ldrh.w	ip, [r4, #10]
200038e8:	8923      	ldrh	r3, [r4, #8]
200038ea:	eba3 030c 	sub.w	r3, r3, ip
200038ee:	2b00      	cmp	r3, #0
200038f0:	dae0      	bge.n	200038b4 <queue_remove_blocking+0xc>
200038f2:	89e2      	ldrh	r2, [r4, #14]
200038f4:	3201      	adds	r2, #1
200038f6:	42da      	cmn	r2, r3
200038f8:	d0dd      	beq.n	200038b6 <queue_remove_blocking+0xe>
200038fa:	b138      	cbz	r0, 2000390c <queue_remove_blocking+0x64>
200038fc:	89a2      	ldrh	r2, [r4, #12]
200038fe:	6861      	ldr	r1, [r4, #4]
20003900:	fb02 110c 	mla	r1, r2, ip, r1
20003904:	f005 feec 	bl	200096e0 <memcpy>
20003908:	f8b4 c00a 	ldrh.w	ip, [r4, #10]
2000390c:	89e3      	ldrh	r3, [r4, #14]
2000390e:	f10c 0c01 	add.w	ip, ip, #1
20003912:	fa1f fc8c 	uxth.w	ip, ip
20003916:	4563      	cmp	r3, ip
20003918:	bf38      	it	cc
2000391a:	f04f 0c00 	movcc.w	ip, #0
2000391e:	6822      	ldr	r2, [r4, #0]
20003920:	2300      	movs	r3, #0
20003922:	f8a4 c00a 	strh.w	ip, [r4, #10]
20003926:	e8c2 3f8f 	stlb	r3, [r2]
2000392a:	f385 8810 	msr	PRIMASK, r5
2000392e:	bf40      	sev
20003930:	bd38      	pop	{r3, r4, r5, pc}
20003932:	bf00      	nop

20003934 <queue_peek_blocking>:
20003934:	b538      	push	{r3, r4, r5, lr}
20003936:	4604      	mov	r4, r0
20003938:	f04f 0e00 	mov.w	lr, #0
2000393c:	4608      	mov	r0, r1
2000393e:	e006      	b.n	2000394e <queue_peek_blocking+0x1a>
20003940:	d121      	bne.n	20003986 <queue_peek_blocking+0x52>
20003942:	6823      	ldr	r3, [r4, #0]
20003944:	e8c3 ef8f 	stlb	lr, [r3]
20003948:	f385 8810 	msr	PRIMASK, r5
2000394c:	bf20      	wfe
2000394e:	6823      	ldr	r3, [r4, #0]
20003950:	f3ef 8510 	mrs	r5, PRIMASK
20003954:	b672      	cpsid	i
20003956:	e8d3 cfcf 	ldaexb	ip, [r3]
2000395a:	2201      	movs	r2, #1
2000395c:	f1bc 0f00 	cmp.w	ip, #0
20003960:	d1f9      	bne.n	20003956 <queue_peek_blocking+0x22>
20003962:	e8c3 2f4c 	strexb	ip, r2, [r3]
20003966:	f1bc 0f00 	cmp.w	ip, #0
2000396a:	d1f4      	bne.n	20003956 <queue_peek_blocking+0x22>
2000396c:	f3bf 8f5f 	dmb	sy
20003970:	f8b4 c00a 	ldrh.w	ip, [r4, #10]
20003974:	8923      	ldrh	r3, [r4, #8]
20003976:	eba3 030c 	sub.w	r3, r3, ip
2000397a:	2b00      	cmp	r3, #0
2000397c:	dae0      	bge.n	20003940 <queue_peek_blocking+0xc>
2000397e:	89e2      	ldrh	r2, [r4, #14]
20003980:	3201      	adds	r2, #1
20003982:	42da      	cmn	r2, r3
20003984:	d0dd      	beq.n	20003942 <queue_peek_blocking+0xe>
20003986:	b128      	cbz	r0, 20003994 <queue_peek_blocking+0x60>
20003988:	89a2      	ldrh	r2, [r4, #12]
2000398a:	6861      	ldr	r1, [r4, #4]
2000398c:	fb02 110c 	mla	r1, r2, ip, r1
20003990:	f005 fea6 	bl	200096e0 <memcpy>
20003994:	2300      	movs	r3, #0
20003996:	6822      	ldr	r2, [r4, #0]
20003998:	e8c2 3f8f 	stlb	r3, [r2]
2000399c:	f385 8810 	msr	PRIMASK, r5
200039a0:	bf40      	sev
200039a2:	bd38      	pop	{r3, r4, r5, pc}

200039a4 <clock_configure>:
200039a4:	e92d 47f0 	stmdb	sp!, {r4, r5, r6, r7, r8, r9, sl, lr}
200039a8:	9c08      	ldr	r4, [sp, #32]
200039aa:	429c      	cmp	r4, r3
200039ac:	d872      	bhi.n	20003a94 <clock_configure+0xf0>
200039ae:	4606      	mov	r6, r0
200039b0:	ea4f 4913 	mov.w	r9, r3, lsr #16
200039b4:	041d      	lsls	r5, r3, #16
200039b6:	460f      	mov	r7, r1
200039b8:	2300      	movs	r3, #0
200039ba:	4690      	mov	r8, r2
200039bc:	4628      	mov	r0, r5
200039be:	4622      	mov	r2, r4
200039c0:	4649      	mov	r1, r9
200039c2:	f004 fdc1 	bl	20008548 <__aeabi_uldivmod>
200039c6:	eb06 0446 	add.w	r4, r6, r6, lsl #1
200039ca:	00a4      	lsls	r4, r4, #2
200039cc:	f104 4480 	add.w	r4, r4, #1073741824	@ 0x40000000
200039d0:	4682      	mov	sl, r0
200039d2:	460b      	mov	r3, r1
200039d4:	f504 3480 	add.w	r4, r4, #65536	@ 0x10000
200039d8:	2900      	cmp	r1, #0
200039da:	d136      	bne.n	20003a4a <clock_configure+0xa6>
200039dc:	4628      	mov	r0, r5
200039de:	4649      	mov	r1, r9
200039e0:	4652      	mov	r2, sl
200039e2:	f004 fdb1 	bl	20008548 <__aeabi_uldivmod>
200039e6:	6863      	ldr	r3, [r4, #4]
200039e8:	1f31      	subs	r1, r6, #4
200039ea:	459a      	cmp	sl, r3
200039ec:	b2c9      	uxtb	r1, r1
200039ee:	bf88      	it	hi
200039f0:	f8c4 a004 	strhi.w	sl, [r4, #4]
200039f4:	2901      	cmp	r1, #1
200039f6:	46d1      	mov	r9, sl
200039f8:	4605      	mov	r5, r0
200039fa:	d92e      	bls.n	20003a5a <clock_configure+0xb6>
200039fc:	f44f 6000 	mov.w	r0, #2048	@ 0x800
20003a00:	4a26      	ldr	r2, [pc, #152]	@ (20003a9c <clock_configure+0xf8>)
20003a02:	f504 5340 	add.w	r3, r4, #12288	@ 0x3000
20003a06:	6018      	str	r0, [r3, #0]
20003a08:	f852 0026 	ldr.w	r0, [r2, r6, lsl #2]
20003a0c:	b138      	cbz	r0, 20003a1e <clock_configure+0x7a>
20003a0e:	6953      	ldr	r3, [r2, #20]
20003a10:	fbb3 f3f0 	udiv	r3, r3, r0
20003a14:	3301      	adds	r3, #1
20003a16:	eb03 0343 	add.w	r3, r3, r3, lsl #1
20003a1a:	3b03      	subs	r3, #3
20003a1c:	d2fd      	bcs.n	20003a1a <clock_configure+0x76>
20003a1e:	6823      	ldr	r3, [r4, #0]
20003a20:	f504 5080 	add.w	r0, r4, #4096	@ 0x1000
20003a24:	ea83 1348 	eor.w	r3, r3, r8, lsl #5
20003a28:	f003 03e0 	and.w	r3, r3, #224	@ 0xe0
20003a2c:	2901      	cmp	r1, #1
20003a2e:	6003      	str	r3, [r0, #0]
20003a30:	d925      	bls.n	20003a7e <clock_configure+0xda>
20003a32:	f842 5026 	str.w	r5, [r2, r6, lsl #2]
20003a36:	f44f 6200 	mov.w	r2, #2048	@ 0x800
20003a3a:	f504 5300 	add.w	r3, r4, #8192	@ 0x2000
20003a3e:	601a      	str	r2, [r3, #0]
20003a40:	2001      	movs	r0, #1
20003a42:	f8c4 9004 	str.w	r9, [r4, #4]
20003a46:	e8bd 87f0 	ldmia.w	sp!, {r4, r5, r6, r7, r8, r9, sl, pc}
20003a4a:	1f31      	subs	r1, r6, #4
20003a4c:	b2c9      	uxtb	r1, r1
20003a4e:	2901      	cmp	r1, #1
20003a50:	464d      	mov	r5, r9
20003a52:	6863      	ldr	r3, [r4, #4]
20003a54:	f04f 0900 	mov.w	r9, #0
20003a58:	d8d0      	bhi.n	200039fc <clock_configure+0x58>
20003a5a:	2f01      	cmp	r7, #1
20003a5c:	d1ce      	bne.n	200039fc <clock_configure+0x58>
20003a5e:	2203      	movs	r2, #3
20003a60:	f504 5340 	add.w	r3, r4, #12288	@ 0x3000
20003a64:	601a      	str	r2, [r3, #0]
20003a66:	68a3      	ldr	r3, [r4, #8]
20003a68:	07db      	lsls	r3, r3, #31
20003a6a:	d5fc      	bpl.n	20003a66 <clock_configure+0xc2>
20003a6c:	6823      	ldr	r3, [r4, #0]
20003a6e:	f504 5080 	add.w	r0, r4, #4096	@ 0x1000
20003a72:	ea83 1348 	eor.w	r3, r3, r8, lsl #5
20003a76:	f003 03e0 	and.w	r3, r3, #224	@ 0xe0
20003a7a:	4a08      	ldr	r2, [pc, #32]	@ (20003a9c <clock_configure+0xf8>)
20003a7c:	6003      	str	r3, [r0, #0]
20003a7e:	2101      	movs	r1, #1
20003a80:	6823      	ldr	r3, [r4, #0]
20003a82:	40b9      	lsls	r1, r7
20003a84:	407b      	eors	r3, r7
20003a86:	f003 0303 	and.w	r3, r3, #3
20003a8a:	6003      	str	r3, [r0, #0]
20003a8c:	68a3      	ldr	r3, [r4, #8]
20003a8e:	420b      	tst	r3, r1
20003a90:	d0fc      	beq.n	20003a8c <clock_configure+0xe8>
20003a92:	e7ce      	b.n	20003a32 <clock_configure+0x8e>
20003a94:	2000      	movs	r0, #0
20003a96:	e8bd 87f0 	ldmia.w	sp!, {r4, r5, r6, r7, r8, r9, sl, pc}
20003a9a:	bf00      	nop
20003a9c:	20059c58 	.word	0x20059c58

20003aa0 <clock_configure_undivided>:
20003aa0:	eb00 0c40 	add.w	ip, r0, r0, lsl #1
20003aa4:	ea4f 0c8c 	mov.w	ip, ip, lsl #2
20003aa8:	f10c 4c80 	add.w	ip, ip, #1073741824	@ 0x40000000
20003aac:	f50c 3c80 	add.w	ip, ip, #65536	@ 0x10000
20003ab0:	b5f0      	push	{r4, r5, r6, r7, lr}
20003ab2:	4616      	mov	r6, r2
20003ab4:	f8dc 2004 	ldr.w	r2, [ip, #4]
20003ab8:	1f05      	subs	r5, r0, #4
20003aba:	f5b2 3f80 	cmp.w	r2, #65536	@ 0x10000
20003abe:	bf38      	it	cc
20003ac0:	f44f 3280 	movcc.w	r2, #65536	@ 0x10000
20003ac4:	b2ed      	uxtb	r5, r5
20003ac6:	bf38      	it	cc
20003ac8:	f8cc 2004 	strcc.w	r2, [ip, #4]
20003acc:	2d01      	cmp	r5, #1
20003ace:	d92a      	bls.n	20003b26 <clock_configure_undivided+0x86>
20003ad0:	f44f 6700 	mov.w	r7, #2048	@ 0x800
20003ad4:	4c25      	ldr	r4, [pc, #148]	@ (20003b6c <clock_configure_undivided+0xcc>)
20003ad6:	f50c 5240 	add.w	r2, ip, #12288	@ 0x3000
20003ada:	6017      	str	r7, [r2, #0]
20003adc:	f854 2020 	ldr.w	r2, [r4, r0, lsl #2]
20003ae0:	b9b2      	cbnz	r2, 20003b10 <clock_configure_undivided+0x70>
20003ae2:	f8dc 2000 	ldr.w	r2, [ip]
20003ae6:	2d01      	cmp	r5, #1
20003ae8:	ea82 1246 	eor.w	r2, r2, r6, lsl #5
20003aec:	f002 02e0 	and.w	r2, r2, #224	@ 0xe0
20003af0:	f50c 5680 	add.w	r6, ip, #4096	@ 0x1000
20003af4:	6032      	str	r2, [r6, #0]
20003af6:	d92a      	bls.n	20003b4e <clock_configure_undivided+0xae>
20003af8:	f44f 6100 	mov.w	r1, #2048	@ 0x800
20003afc:	f844 3020 	str.w	r3, [r4, r0, lsl #2]
20003b00:	f44f 3380 	mov.w	r3, #65536	@ 0x10000
20003b04:	f50c 5200 	add.w	r2, ip, #8192	@ 0x2000
20003b08:	6011      	str	r1, [r2, #0]
20003b0a:	f8cc 3004 	str.w	r3, [ip, #4]
20003b0e:	bdf0      	pop	{r4, r5, r6, r7, pc}
20003b10:	6967      	ldr	r7, [r4, #20]
20003b12:	fbb7 fef2 	udiv	lr, r7, r2
20003b16:	f10e 0e01 	add.w	lr, lr, #1
20003b1a:	eb0e 0e4e 	add.w	lr, lr, lr, lsl #1
20003b1e:	f1be 0e03 	subs.w	lr, lr, #3
20003b22:	d2fc      	bcs.n	20003b1e <clock_configure_undivided+0x7e>
20003b24:	e7dd      	b.n	20003ae2 <clock_configure_undivided+0x42>
20003b26:	2901      	cmp	r1, #1
20003b28:	d1d2      	bne.n	20003ad0 <clock_configure_undivided+0x30>
20003b2a:	2403      	movs	r4, #3
20003b2c:	f50c 5240 	add.w	r2, ip, #12288	@ 0x3000
20003b30:	6014      	str	r4, [r2, #0]
20003b32:	f8dc 2008 	ldr.w	r2, [ip, #8]
20003b36:	07d2      	lsls	r2, r2, #31
20003b38:	d5fb      	bpl.n	20003b32 <clock_configure_undivided+0x92>
20003b3a:	f8dc 2000 	ldr.w	r2, [ip]
20003b3e:	4c0b      	ldr	r4, [pc, #44]	@ (20003b6c <clock_configure_undivided+0xcc>)
20003b40:	ea82 1246 	eor.w	r2, r2, r6, lsl #5
20003b44:	f002 02e0 	and.w	r2, r2, #224	@ 0xe0
20003b48:	f50c 5680 	add.w	r6, ip, #4096	@ 0x1000
20003b4c:	6032      	str	r2, [r6, #0]
20003b4e:	2201      	movs	r2, #1
20003b50:	f8dc 5000 	ldr.w	r5, [ip]
20003b54:	404d      	eors	r5, r1
20003b56:	f005 0503 	and.w	r5, r5, #3
20003b5a:	6035      	str	r5, [r6, #0]
20003b5c:	fa02 f101 	lsl.w	r1, r2, r1
20003b60:	f8dc 2008 	ldr.w	r2, [ip, #8]
20003b64:	420a      	tst	r2, r1
20003b66:	d0fb      	beq.n	20003b60 <clock_configure_undivided+0xc0>
20003b68:	e7c6      	b.n	20003af8 <clock_configure_undivided+0x58>
20003b6a:	bf00      	nop
20003b6c:	20059c58 	.word	0x20059c58

20003b70 <clock_get_hz>:
20003b70:	4b01      	ldr	r3, [pc, #4]	@ (20003b78 <clock_get_hz+0x8>)
20003b72:	f853 0020 	ldr.w	r0, [r3, r0, lsl #2]
20003b76:	4770      	bx	lr
20003b78:	20059c58 	.word	0x20059c58

20003b7c <check_sys_clock_khz>:
20003b7c:	e92d 4ff0 	stmdb	sp!, {r4, r5, r6, r7, r8, r9, sl, fp, lr}
20003b80:	f44f 78a0 	mov.w	r8, #320	@ 0x140
20003b84:	4699      	mov	r9, r3
20003b86:	b085      	sub	sp, #20
20003b88:	e9cd 1202 	strd	r1, r2, [sp, #8]
20003b8c:	4c5f      	ldr	r4, [pc, #380]	@ (20003d0c <check_sys_clock_khz+0x190>)
20003b8e:	f8df a184 	ldr.w	sl, [pc, #388]	@ 20003d14 <check_sys_clock_khz+0x198>
20003b92:	4554      	cmp	r4, sl
20003b94:	d90a      	bls.n	20003bac <check_sys_clock_khz+0x30>
20003b96:	f108 38ff 	add.w	r8, r8, #4294967295
20003b9a:	f5a4 543b 	sub.w	r4, r4, #11968	@ 0x2ec0
20003b9e:	f1b8 0f0f 	cmp.w	r8, #15
20003ba2:	f1a4 0420 	sub.w	r4, r4, #32
20003ba6:	d1f4      	bne.n	20003b92 <check_sys_clock_khz+0x16>
20003ba8:	2000      	movs	r0, #0
20003baa:	e069      	b.n	20003c80 <check_sys_clock_khz+0x104>
20003bac:	2307      	movs	r3, #7
20003bae:	f504 2237 	add.w	r2, r4, #749568	@ 0xb7000
20003bb2:	9401      	str	r4, [sp, #4]
20003bb4:	fb03 f403 	mul.w	r4, r3, r3
20003bb8:	f502 72d8 	add.w	r2, r2, #432	@ 0x1b0
20003bbc:	fbb2 fef4 	udiv	lr, r2, r4
20003bc0:	4570      	cmp	r0, lr
20003bc2:	f04f 0c01 	mov.w	ip, #1
20003bc6:	f04f 0702 	mov.w	r7, #2
20003bca:	f04f 0603 	mov.w	r6, #3
20003bce:	f04f 0504 	mov.w	r5, #4
20003bd2:	f04f 0105 	mov.w	r1, #5
20003bd6:	d03f      	beq.n	20003c58 <check_sys_clock_khz+0xdc>
20003bd8:	f1b3 0e01 	subs.w	lr, r3, #1
20003bdc:	f000 8094 	beq.w	20003d08 <check_sys_clock_khz+0x18c>
20003be0:	fb0e f403 	mul.w	r4, lr, r3
20003be4:	fbb2 fbf4 	udiv	fp, r2, r4
20003be8:	4558      	cmp	r0, fp
20003bea:	d04c      	beq.n	20003c86 <check_sys_clock_khz+0x10a>
20003bec:	b319      	cbz	r1, 20003c36 <check_sys_clock_khz+0xba>
20003bee:	fb01 f403 	mul.w	r4, r1, r3
20003bf2:	fbb2 fbf4 	udiv	fp, r2, r4
20003bf6:	4558      	cmp	r0, fp
20003bf8:	d04f      	beq.n	20003c9a <check_sys_clock_khz+0x11e>
20003bfa:	b1e5      	cbz	r5, 20003c36 <check_sys_clock_khz+0xba>
20003bfc:	fb05 f403 	mul.w	r4, r5, r3
20003c00:	fbb2 fbf4 	udiv	fp, r2, r4
20003c04:	4558      	cmp	r0, fp
20003c06:	d053      	beq.n	20003cb0 <check_sys_clock_khz+0x134>
20003c08:	b1ae      	cbz	r6, 20003c36 <check_sys_clock_khz+0xba>
20003c0a:	fb06 f403 	mul.w	r4, r6, r3
20003c0e:	fbb2 fbf4 	udiv	fp, r2, r4
20003c12:	4558      	cmp	r0, fp
20003c14:	d057      	beq.n	20003cc6 <check_sys_clock_khz+0x14a>
20003c16:	b177      	cbz	r7, 20003c36 <check_sys_clock_khz+0xba>
20003c18:	fb07 f403 	mul.w	r4, r7, r3
20003c1c:	fbb2 fbf4 	udiv	fp, r2, r4
20003c20:	4558      	cmp	r0, fp
20003c22:	d05b      	beq.n	20003cdc <check_sys_clock_khz+0x160>
20003c24:	f1bc 0f00 	cmp.w	ip, #0
20003c28:	d005      	beq.n	20003c36 <check_sys_clock_khz+0xba>
20003c2a:	fb0c f403 	mul.w	r4, ip, r3
20003c2e:	fbb2 fbf4 	udiv	fp, r2, r4
20003c32:	4583      	cmp	fp, r0
20003c34:	d05d      	beq.n	20003cf2 <check_sys_clock_khz+0x176>
20003c36:	4673      	mov	r3, lr
20003c38:	fb03 f403 	mul.w	r4, r3, r3
20003c3c:	fbb2 fef4 	udiv	lr, r2, r4
20003c40:	4570      	cmp	r0, lr
20003c42:	f101 31ff 	add.w	r1, r1, #4294967295
20003c46:	f105 35ff 	add.w	r5, r5, #4294967295
20003c4a:	f106 36ff 	add.w	r6, r6, #4294967295
20003c4e:	f107 37ff 	add.w	r7, r7, #4294967295
20003c52:	f10c 3cff 	add.w	ip, ip, #4294967295
20003c56:	d1bf      	bne.n	20003bd8 <check_sys_clock_khz+0x5c>
20003c58:	fb04 2410 	mls	r4, r4, r0, r2
20003c5c:	2c00      	cmp	r4, #0
20003c5e:	d1bb      	bne.n	20003bd8 <check_sys_clock_khz+0x5c>
20003c60:	469e      	mov	lr, r3
20003c62:	464a      	mov	r2, r9
20003c64:	f8dd b008 	ldr.w	fp, [sp, #8]
20003c68:	f8dd 900c 	ldr.w	r9, [sp, #12]
20003c6c:	2001      	movs	r0, #1
20003c6e:	4928      	ldr	r1, [pc, #160]	@ (20003d10 <check_sys_clock_khz+0x194>)
20003c70:	fb01 f108 	mul.w	r1, r1, r8
20003c74:	f8cb 1000 	str.w	r1, [fp]
20003c78:	f8c9 3000 	str.w	r3, [r9]
20003c7c:	f8c2 e000 	str.w	lr, [r2]
20003c80:	b005      	add	sp, #20
20003c82:	e8bd 8ff0 	ldmia.w	sp!, {r4, r5, r6, r7, r8, r9, sl, fp, pc}
20003c86:	fb04 2410 	mls	r4, r4, r0, r2
20003c8a:	2c00      	cmp	r4, #0
20003c8c:	d1ae      	bne.n	20003bec <check_sys_clock_khz+0x70>
20003c8e:	464a      	mov	r2, r9
20003c90:	f8dd b008 	ldr.w	fp, [sp, #8]
20003c94:	f8dd 900c 	ldr.w	r9, [sp, #12]
20003c98:	e7e8      	b.n	20003c6c <check_sys_clock_khz+0xf0>
20003c9a:	fb04 2410 	mls	r4, r4, r0, r2
20003c9e:	2c00      	cmp	r4, #0
20003ca0:	d1ab      	bne.n	20003bfa <check_sys_clock_khz+0x7e>
20003ca2:	464a      	mov	r2, r9
20003ca4:	468e      	mov	lr, r1
20003ca6:	f8dd b008 	ldr.w	fp, [sp, #8]
20003caa:	f8dd 900c 	ldr.w	r9, [sp, #12]
20003cae:	e7dd      	b.n	20003c6c <check_sys_clock_khz+0xf0>
20003cb0:	fb04 2410 	mls	r4, r4, r0, r2
20003cb4:	2c00      	cmp	r4, #0
20003cb6:	d1a7      	bne.n	20003c08 <check_sys_clock_khz+0x8c>
20003cb8:	464a      	mov	r2, r9
20003cba:	46ae      	mov	lr, r5
20003cbc:	f8dd b008 	ldr.w	fp, [sp, #8]
20003cc0:	f8dd 900c 	ldr.w	r9, [sp, #12]
20003cc4:	e7d2      	b.n	20003c6c <check_sys_clock_khz+0xf0>
20003cc6:	fb04 2410 	mls	r4, r4, r0, r2
20003cca:	2c00      	cmp	r4, #0
20003ccc:	d1a3      	bne.n	20003c16 <check_sys_clock_khz+0x9a>
20003cce:	464a      	mov	r2, r9
20003cd0:	46b6      	mov	lr, r6
20003cd2:	f8dd b008 	ldr.w	fp, [sp, #8]
20003cd6:	f8dd 900c 	ldr.w	r9, [sp, #12]
20003cda:	e7c7      	b.n	20003c6c <check_sys_clock_khz+0xf0>
20003cdc:	fb04 2410 	mls	r4, r4, r0, r2
20003ce0:	2c00      	cmp	r4, #0
20003ce2:	d19f      	bne.n	20003c24 <check_sys_clock_khz+0xa8>
20003ce4:	464a      	mov	r2, r9
20003ce6:	46be      	mov	lr, r7
20003ce8:	f8dd b008 	ldr.w	fp, [sp, #8]
20003cec:	f8dd 900c 	ldr.w	r9, [sp, #12]
20003cf0:	e7bc      	b.n	20003c6c <check_sys_clock_khz+0xf0>
20003cf2:	fb04 2410 	mls	r4, r4, r0, r2
20003cf6:	2c00      	cmp	r4, #0
20003cf8:	d19d      	bne.n	20003c36 <check_sys_clock_khz+0xba>
20003cfa:	464a      	mov	r2, r9
20003cfc:	46e6      	mov	lr, ip
20003cfe:	f8dd b008 	ldr.w	fp, [sp, #8]
20003d02:	f8dd 900c 	ldr.w	r9, [sp, #12]
20003d06:	e7b1      	b.n	20003c6c <check_sys_clock_khz+0xf0>
20003d08:	9c01      	ldr	r4, [sp, #4]
20003d0a:	e744      	b.n	20003b96 <check_sys_clock_khz+0x1a>
20003d0c:	002f2650 	.word	0x002f2650
20003d10:	00b71b00 	.word	0x00b71b00
20003d14:	000cf850 	.word	0x000cf850

20003d18 <pll_init>:
20003d18:	b470      	push	{r4, r5, r6}
20003d1a:	9d03      	ldr	r5, [sp, #12]
20003d1c:	6804      	ldr	r4, [r0, #0]
20003d1e:	032d      	lsls	r5, r5, #12
20003d20:	ea45 4503 	orr.w	r5, r5, r3, lsl #16
20003d24:	4b1b      	ldr	r3, [pc, #108]	@ (20003d94 <pll_init+0x7c>)
20003d26:	2c00      	cmp	r4, #0
20003d28:	fbb3 f3f1 	udiv	r3, r3, r1
20003d2c:	fbb2 f6f3 	udiv	r6, r2, r3
20003d30:	db1f      	blt.n	20003d72 <pll_init+0x5a>
20003d32:	4a19      	ldr	r2, [pc, #100]	@ (20003d98 <pll_init+0x80>)
20003d34:	4b19      	ldr	r3, [pc, #100]	@ (20003d9c <pll_init+0x84>)
20003d36:	4290      	cmp	r0, r2
20003d38:	bf14      	ite	ne
20003d3a:	f44f 4280 	movne.w	r2, #16384	@ 0x4000
20003d3e:	f44f 4200 	moveq.w	r2, #32768	@ 0x8000
20003d42:	4c17      	ldr	r4, [pc, #92]	@ (20003da0 <pll_init+0x88>)
20003d44:	601a      	str	r2, [r3, #0]
20003d46:	f503 5380 	add.w	r3, r3, #4096	@ 0x1000
20003d4a:	601a      	str	r2, [r3, #0]
20003d4c:	68a3      	ldr	r3, [r4, #8]
20003d4e:	ea32 0303 	bics.w	r3, r2, r3
20003d52:	d1fb      	bne.n	20003d4c <pll_init+0x34>
20003d54:	2221      	movs	r2, #33	@ 0x21
20003d56:	f500 5340 	add.w	r3, r0, #12288	@ 0x3000
20003d5a:	3304      	adds	r3, #4
20003d5c:	6001      	str	r1, [r0, #0]
20003d5e:	6086      	str	r6, [r0, #8]
20003d60:	601a      	str	r2, [r3, #0]
20003d62:	6802      	ldr	r2, [r0, #0]
20003d64:	2a00      	cmp	r2, #0
20003d66:	dafc      	bge.n	20003d62 <pll_init+0x4a>
20003d68:	2208      	movs	r2, #8
20003d6a:	60c5      	str	r5, [r0, #12]
20003d6c:	601a      	str	r2, [r3, #0]
20003d6e:	bc70      	pop	{r4, r5, r6}
20003d70:	4770      	bx	lr
20003d72:	6803      	ldr	r3, [r0, #0]
20003d74:	f003 033f 	and.w	r3, r3, #63	@ 0x3f
20003d78:	428b      	cmp	r3, r1
20003d7a:	d1da      	bne.n	20003d32 <pll_init+0x1a>
20003d7c:	6883      	ldr	r3, [r0, #8]
20003d7e:	f3c3 030b 	ubfx	r3, r3, #0, #12
20003d82:	42b3      	cmp	r3, r6
20003d84:	d1d5      	bne.n	20003d32 <pll_init+0x1a>
20003d86:	68c3      	ldr	r3, [r0, #12]
20003d88:	f403 23ee 	and.w	r3, r3, #487424	@ 0x77000
20003d8c:	42ab      	cmp	r3, r5
20003d8e:	d1d0      	bne.n	20003d32 <pll_init+0x1a>
20003d90:	e7ed      	b.n	20003d6e <pll_init+0x56>
20003d92:	bf00      	nop
20003d94:	00b71b00 	.word	0x00b71b00
20003d98:	40058000 	.word	0x40058000
20003d9c:	40022000 	.word	0x40022000
20003da0:	40020000 	.word	0x40020000

20003da4 <vreg_set_voltage>:
20003da4:	4b0a      	ldr	r3, [pc, #40]	@ (20003dd0 <vreg_set_voltage+0x2c>)
20003da6:	490b      	ldr	r1, [pc, #44]	@ (20003dd4 <vreg_set_voltage+0x30>)
20003da8:	4a0b      	ldr	r2, [pc, #44]	@ (20003dd8 <vreg_set_voltage+0x34>)
20003daa:	6059      	str	r1, [r3, #4]
20003dac:	68d3      	ldr	r3, [r2, #12]
20003dae:	0419      	lsls	r1, r3, #16
20003db0:	d4fc      	bmi.n	20003dac <vreg_set_voltage+0x8>
20003db2:	4b0a      	ldr	r3, [pc, #40]	@ (20003ddc <vreg_set_voltage+0x38>)
20003db4:	68d2      	ldr	r2, [r2, #12]
20003db6:	ea43 1300 	orr.w	r3, r3, r0, lsl #4
20003dba:	4909      	ldr	r1, [pc, #36]	@ (20003de0 <vreg_set_voltage+0x3c>)
20003dbc:	4053      	eors	r3, r2
20003dbe:	4809      	ldr	r0, [pc, #36]	@ (20003de4 <vreg_set_voltage+0x40>)
20003dc0:	4019      	ands	r1, r3
20003dc2:	4a05      	ldr	r2, [pc, #20]	@ (20003dd8 <vreg_set_voltage+0x34>)
20003dc4:	60c1      	str	r1, [r0, #12]
20003dc6:	68d3      	ldr	r3, [r2, #12]
20003dc8:	041b      	lsls	r3, r3, #16
20003dca:	d4fc      	bmi.n	20003dc6 <vreg_set_voltage+0x22>
20003dcc:	4770      	bx	lr
20003dce:	bf00      	nop
20003dd0:	40102000 	.word	0x40102000
20003dd4:	5afe2000 	.word	0x5afe2000
20003dd8:	40100000 	.word	0x40100000
20003ddc:	5afe0000 	.word	0x5afe0000
20003de0:	5afe01f0 	.word	0x5afe01f0
20003de4:	40101000 	.word	0x40101000

20003de8 <vreg_disable_voltage_limit>:
20003de8:	4b01      	ldr	r3, [pc, #4]	@ (20003df0 <vreg_disable_voltage_limit+0x8>)
20003dea:	4a02      	ldr	r2, [pc, #8]	@ (20003df4 <vreg_disable_voltage_limit+0xc>)
20003dec:	605a      	str	r2, [r3, #4]
20003dee:	4770      	bx	lr
20003df0:	40102000 	.word	0x40102000
20003df4:	5afe0100 	.word	0x5afe0100

20003df8 <tick_start>:
20003df8:	2301      	movs	r3, #1
20003dfa:	eb00 0040 	add.w	r0, r0, r0, lsl #1
20003dfe:	0080      	lsls	r0, r0, #2
20003e00:	f100 4080 	add.w	r0, r0, #1073741824	@ 0x40000000
20003e04:	f500 1084 	add.w	r0, r0, #1081344	@ 0x108000
20003e08:	6041      	str	r1, [r0, #4]
20003e0a:	6003      	str	r3, [r0, #0]
20003e0c:	4770      	bx	lr
20003e0e:	bf00      	nop

20003e10 <rom_func_lookup>:
20003e10:	2300      	movs	r3, #0
20003e12:	8adb      	ldrh	r3, [r3, #22]
20003e14:	2200      	movs	r2, #0
20003e16:	e842 f200 	tt	r2, r2
20003e1a:	0252      	lsls	r2, r2, #9
20003e1c:	d401      	bmi.n	20003e22 <rom_func_lookup+0x12>
20003e1e:	2110      	movs	r1, #16
20003e20:	4718      	bx	r3
20003e22:	2104      	movs	r1, #4
20003e24:	4718      	bx	r3
20003e26:	bf00      	nop

20003e28 <runtime_init_bootrom_locking_enable>:
20003e28:	4a03      	ldr	r2, [pc, #12]	@ (20003e38 <runtime_init_bootrom_locking_enable+0x10>)
20003e2a:	f8d2 3828 	ldr.w	r3, [r2, #2088]	@ 0x828
20003e2e:	2b00      	cmp	r3, #0
20003e30:	d0fb      	beq.n	20003e2a <runtime_init_bootrom_locking_enable+0x2>
20003e32:	f3bf 8f5f 	dmb	sy
20003e36:	4770      	bx	lr
20003e38:	400e0000 	.word	0x400e0000

20003e3c <runtime_init_boot_locks_reset>:
20003e3c:	2100      	movs	r1, #0
20003e3e:	4b04      	ldr	r3, [pc, #16]	@ (20003e50 <runtime_init_boot_locks_reset+0x14>)
20003e40:	4a04      	ldr	r2, [pc, #16]	@ (20003e54 <runtime_init_boot_locks_reset+0x18>)
20003e42:	f3bf 8f5f 	dmb	sy
20003e46:	f843 1b04 	str.w	r1, [r3], #4
20003e4a:	4293      	cmp	r3, r2
20003e4c:	d1f9      	bne.n	20003e42 <runtime_init_boot_locks_reset+0x6>
20003e4e:	4770      	bx	lr
20003e50:	400e080c 	.word	0x400e080c
20003e54:	400e082c 	.word	0x400e082c

20003e58 <xosc_init>:
20003e58:	b410      	push	{r4}
20003e5a:	f44f 708d 	mov.w	r0, #282	@ 0x11a
20003e5e:	f44f 642a 	mov.w	r4, #2720	@ 0xaa0
20003e62:	4a06      	ldr	r2, [pc, #24]	@ (20003e7c <xosc_init+0x24>)
20003e64:	4b06      	ldr	r3, [pc, #24]	@ (20003e80 <xosc_init+0x28>)
20003e66:	4907      	ldr	r1, [pc, #28]	@ (20003e84 <xosc_init+0x2c>)
20003e68:	6014      	str	r4, [r2, #0]
20003e6a:	60d0      	str	r0, [r2, #12]
20003e6c:	6019      	str	r1, [r3, #0]
20003e6e:	6853      	ldr	r3, [r2, #4]
20003e70:	2b00      	cmp	r3, #0
20003e72:	dafc      	bge.n	20003e6e <xosc_init+0x16>
20003e74:	f85d 4b04 	ldr.w	r4, [sp], #4
20003e78:	4770      	bx	lr
20003e7a:	bf00      	nop
20003e7c:	40048000 	.word	0x40048000
20003e80:	4004a000 	.word	0x4004a000
20003e84:	00fab000 	.word	0x00fab000

20003e88 <first_per_core_initializer>:
20003e88:	4770      	bx	lr
20003e8a:	bf00      	nop

20003e8c <hard_assertion_failure>:
20003e8c:	b508      	push	{r3, lr}
20003e8e:	4801      	ldr	r0, [pc, #4]	@ (20003e94 <hard_assertion_failure+0x8>)
20003e90:	f7fe fc30 	bl	200026f4 <panic>
20003e94:	2000ea8c 	.word	0x2000ea8c

20003e98 <runtime_run_initializers>:
20003e98:	b538      	push	{r3, r4, r5, lr}
20003e9a:	4c05      	ldr	r4, [pc, #20]	@ (20003eb0 <runtime_run_initializers+0x18>)
20003e9c:	4d05      	ldr	r5, [pc, #20]	@ (20003eb4 <runtime_run_initializers+0x1c>)
20003e9e:	42ac      	cmp	r4, r5
20003ea0:	d204      	bcs.n	20003eac <runtime_run_initializers+0x14>
20003ea2:	f854 3b04 	ldr.w	r3, [r4], #4
20003ea6:	4798      	blx	r3
20003ea8:	42ac      	cmp	r4, r5
20003eaa:	d3fa      	bcc.n	20003ea2 <runtime_run_initializers+0xa>
20003eac:	bd38      	pop	{r3, r4, r5, pc}
20003eae:	bf00      	nop
20003eb0:	20010544 	.word	0x20010544
20003eb4:	20010584 	.word	0x20010584

20003eb8 <runtime_run_per_core_initializers>:
20003eb8:	b538      	push	{r3, r4, r5, lr}
20003eba:	4c05      	ldr	r4, [pc, #20]	@ (20003ed0 <runtime_run_per_core_initializers+0x18>)
20003ebc:	4d05      	ldr	r5, [pc, #20]	@ (20003ed4 <runtime_run_per_core_initializers+0x1c>)
20003ebe:	42ac      	cmp	r4, r5
20003ec0:	d204      	bcs.n	20003ecc <runtime_run_per_core_initializers+0x14>
20003ec2:	f854 3b04 	ldr.w	r3, [r4], #4
20003ec6:	4798      	blx	r3
20003ec8:	42ac      	cmp	r4, r5
20003eca:	d3fa      	bcc.n	20003ec2 <runtime_run_per_core_initializers+0xa>
20003ecc:	bd38      	pop	{r3, r4, r5, pc}
20003ece:	bf00      	nop
20003ed0:	20010570 	.word	0x20010570
20003ed4:	20010584 	.word	0x20010584

20003ed8 <runtime_init_early_resets>:
20003ed8:	b410      	push	{r4}
20003eda:	4807      	ldr	r0, [pc, #28]	@ (20003ef8 <runtime_init_early_resets+0x20>)
20003edc:	4c07      	ldr	r4, [pc, #28]	@ (20003efc <runtime_init_early_resets+0x24>)
20003ede:	4b08      	ldr	r3, [pc, #32]	@ (20003f00 <runtime_init_early_resets+0x28>)
20003ee0:	4a08      	ldr	r2, [pc, #32]	@ (20003f04 <runtime_init_early_resets+0x2c>)
20003ee2:	4909      	ldr	r1, [pc, #36]	@ (20003f08 <runtime_init_early_resets+0x30>)
20003ee4:	6004      	str	r4, [r0, #0]
20003ee6:	601a      	str	r2, [r3, #0]
20003ee8:	688b      	ldr	r3, [r1, #8]
20003eea:	ea32 0303 	bics.w	r3, r2, r3
20003eee:	d1fb      	bne.n	20003ee8 <runtime_init_early_resets+0x10>
20003ef0:	f85d 4b04 	ldr.w	r4, [sp], #4
20003ef4:	4770      	bx	lr
20003ef6:	bf00      	nop
20003ef8:	40022000 	.word	0x40022000
20003efc:	efef3b7f 	.word	0xefef3b7f
20003f00:	40023000 	.word	0x40023000
20003f04:	03f3fff6 	.word	0x03f3fff6
20003f08:	40020000 	.word	0x40020000

20003f0c <runtime_init_usb_power_down>:
20003f0c:	4b04      	ldr	r3, [pc, #16]	@ (20003f20 <runtime_init_usb_power_down+0x14>)
20003f0e:	6cdb      	ldr	r3, [r3, #76]	@ 0x4c
20003f10:	f5b3 4f00 	cmp.w	r3, #32768	@ 0x8000
20003f14:	d103      	bne.n	20003f1e <runtime_init_usb_power_down+0x12>
20003f16:	f44f 2280 	mov.w	r2, #262144	@ 0x40000
20003f1a:	4b02      	ldr	r3, [pc, #8]	@ (20003f24 <runtime_init_usb_power_down+0x18>)
20003f1c:	64da      	str	r2, [r3, #76]	@ 0x4c
20003f1e:	4770      	bx	lr
20003f20:	50110000 	.word	0x50110000
20003f24:	50112000 	.word	0x50112000

20003f28 <runtime_init_per_core_enable_coprocessors>:
20003f28:	f04f 22e0 	mov.w	r2, #3758153728	@ 0xe000e000
20003f2c:	4b04      	ldr	r3, [pc, #16]	@ (20003f40 <runtime_init_per_core_enable_coprocessors+0x18>)
20003f2e:	f8d2 1d88 	ldr.w	r1, [r2, #3464]	@ 0xd88
20003f32:	430b      	orrs	r3, r1
20003f34:	f8c2 3d88 	str.w	r3, [r2, #3464]	@ 0xd88
20003f38:	ee10 0430 			dcp_rcmp r0
20003f3c:	4770      	bx	lr
20003f3e:	bf00      	nop
20003f40:	00300303 	.word	0x00300303

20003f44 <runtime_init_post_clock_resets>:
20003f44:	f06f 4160 	mvn.w	r1, #3758096384	@ 0xe0000000
20003f48:	4b04      	ldr	r3, [pc, #16]	@ (20003f5c <runtime_init_post_clock_resets+0x18>)
20003f4a:	4a05      	ldr	r2, [pc, #20]	@ (20003f60 <runtime_init_post_clock_resets+0x1c>)
20003f4c:	6019      	str	r1, [r3, #0]
20003f4e:	6893      	ldr	r3, [r2, #8]
20003f50:	43db      	mvns	r3, r3
20003f52:	f033 4360 	bics.w	r3, r3, #3758096384	@ 0xe0000000
20003f56:	d1fa      	bne.n	20003f4e <runtime_init_post_clock_resets+0xa>
20003f58:	4770      	bx	lr
20003f5a:	bf00      	nop
20003f5c:	40023000 	.word	0x40023000
20003f60:	40020000 	.word	0x40020000

20003f64 <runtime_init_bootrom_reset>:
20003f64:	b510      	push	{r4, lr}
20003f66:	f245 2053 	movw	r0, #21075	@ 0x5253
20003f6a:	f7ff ff51 	bl	20003e10 <rom_func_lookup>
20003f6e:	e8bd 4010 	ldmia.w	sp!, {r4, lr}
20003f72:	4603      	mov	r3, r0
20003f74:	2004      	movs	r0, #4
20003f76:	4718      	bx	r3

20003f78 <runtime_init_per_core_bootrom_reset>:
20003f78:	b510      	push	{r4, lr}
20003f7a:	f245 2053 	movw	r0, #21075	@ 0x5253
20003f7e:	f7ff ff47 	bl	20003e10 <rom_func_lookup>
20003f82:	e8bd 4010 	ldmia.w	sp!, {r4, lr}
20003f86:	4603      	mov	r3, r0
20003f88:	2001      	movs	r0, #1
20003f8a:	4718      	bx	r3

20003f8c <runtime_init_spin_locks_reset>:
20003f8c:	f7fe bc76 	b.w	2000287c <spin_locks_reset>

20003f90 <runtime_init_install_ram_vector_table>:
20003f90:	b510      	push	{r4, lr}
20003f92:	4b05      	ldr	r3, [pc, #20]	@ (20003fa8 <runtime_init_install_ram_vector_table+0x18>)
20003f94:	4c05      	ldr	r4, [pc, #20]	@ (20003fac <runtime_init_install_ram_vector_table+0x1c>)
20003f96:	f44f 7288 	mov.w	r2, #272	@ 0x110
20003f9a:	4618      	mov	r0, r3
20003f9c:	68a1      	ldr	r1, [r4, #8]
20003f9e:	f005 fb9f 	bl	200096e0 <memcpy>
20003fa2:	60a0      	str	r0, [r4, #8]
20003fa4:	bd10      	pop	{r4, pc}
20003fa6:	bf00      	nop
20003fa8:	20000000 	.word	0x20000000
20003fac:	e000ed00 	.word	0xe000ed00

20003fb0 <runtime_init_clocks>:
20003fb0:	2300      	movs	r3, #0
20003fb2:	b570      	push	{r4, r5, r6, lr}
20003fb4:	4c2b      	ldr	r4, [pc, #172]	@ (20004064 <runtime_init_clocks+0xb4>)
20003fb6:	b082      	sub	sp, #8
20003fb8:	f8c4 3084 	str.w	r3, [r4, #132]	@ 0x84
20003fbc:	f7ff ff4c 	bl	20003e58 <xosc_init>
20003fc0:	2201      	movs	r2, #1
20003fc2:	4b29      	ldr	r3, [pc, #164]	@ (20004068 <runtime_init_clocks+0xb8>)
20003fc4:	63da      	str	r2, [r3, #60]	@ 0x3c
20003fc6:	6c63      	ldr	r3, [r4, #68]	@ 0x44
20003fc8:	2b01      	cmp	r3, #1
20003fca:	d1fc      	bne.n	20003fc6 <runtime_init_clocks+0x16>
20003fcc:	2103      	movs	r1, #3
20003fce:	4a26      	ldr	r2, [pc, #152]	@ (20004068 <runtime_init_clocks+0xb8>)
20003fd0:	4b24      	ldr	r3, [pc, #144]	@ (20004064 <runtime_init_clocks+0xb4>)
20003fd2:	6311      	str	r1, [r2, #48]	@ 0x30
20003fd4:	6b9c      	ldr	r4, [r3, #56]	@ 0x38
20003fd6:	2c01      	cmp	r4, #1
20003fd8:	d1fc      	bne.n	20003fd4 <runtime_init_clocks+0x24>
20003fda:	2602      	movs	r6, #2
20003fdc:	2505      	movs	r5, #5
20003fde:	4621      	mov	r1, r4
20003fe0:	2305      	movs	r3, #5
20003fe2:	4a22      	ldr	r2, [pc, #136]	@ (2000406c <runtime_init_clocks+0xbc>)
20003fe4:	4822      	ldr	r0, [pc, #136]	@ (20004070 <runtime_init_clocks+0xc0>)
20003fe6:	9600      	str	r6, [sp, #0]
20003fe8:	f7ff fe96 	bl	20003d18 <pll_init>
20003fec:	4621      	mov	r1, r4
20003fee:	462b      	mov	r3, r5
20003ff0:	4a20      	ldr	r2, [pc, #128]	@ (20004074 <runtime_init_clocks+0xc4>)
20003ff2:	4821      	ldr	r0, [pc, #132]	@ (20004078 <runtime_init_clocks+0xc8>)
20003ff4:	9500      	str	r5, [sp, #0]
20003ff6:	f7ff fe8f 	bl	20003d18 <pll_init>
20003ffa:	2200      	movs	r2, #0
20003ffc:	2004      	movs	r0, #4
20003ffe:	4631      	mov	r1, r6
20004000:	4b1e      	ldr	r3, [pc, #120]	@ (2000407c <runtime_init_clocks+0xcc>)
20004002:	f7ff fd4d 	bl	20003aa0 <clock_configure_undivided>
20004006:	4621      	mov	r1, r4
20004008:	4628      	mov	r0, r5
2000400a:	2200      	movs	r2, #0
2000400c:	4b1c      	ldr	r3, [pc, #112]	@ (20004080 <runtime_init_clocks+0xd0>)
2000400e:	f7ff fd47 	bl	20003aa0 <clock_configure_undivided>
20004012:	2200      	movs	r2, #0
20004014:	2008      	movs	r0, #8
20004016:	4611      	mov	r1, r2
20004018:	4b1a      	ldr	r3, [pc, #104]	@ (20004084 <runtime_init_clocks+0xd4>)
2000401a:	f7ff fd41 	bl	20003aa0 <clock_configure_undivided>
2000401e:	2200      	movs	r2, #0
20004020:	2009      	movs	r0, #9
20004022:	4611      	mov	r1, r2
20004024:	4b17      	ldr	r3, [pc, #92]	@ (20004084 <runtime_init_clocks+0xd4>)
20004026:	f7ff fd3b 	bl	20003aa0 <clock_configure_undivided>
2000402a:	2200      	movs	r2, #0
2000402c:	2006      	movs	r0, #6
2000402e:	4611      	mov	r1, r2
20004030:	4b13      	ldr	r3, [pc, #76]	@ (20004080 <runtime_init_clocks+0xd0>)
20004032:	f7ff fd35 	bl	20003aa0 <clock_configure_undivided>
20004036:	2200      	movs	r2, #0
20004038:	4b11      	ldr	r3, [pc, #68]	@ (20004080 <runtime_init_clocks+0xd0>)
2000403a:	2007      	movs	r0, #7
2000403c:	4611      	mov	r1, r2
2000403e:	f7ff fd2f 	bl	20003aa0 <clock_configure_undivided>
20004042:	2004      	movs	r0, #4
20004044:	f7ff fd94 	bl	20003b70 <clock_get_hz>
20004048:	2400      	movs	r4, #0
2000404a:	4b0f      	ldr	r3, [pc, #60]	@ (20004088 <runtime_init_clocks+0xd8>)
2000404c:	fba3 3500 	umull	r3, r5, r3, r0
20004050:	0cad      	lsrs	r5, r5, #18
20004052:	b2e0      	uxtb	r0, r4
20004054:	4629      	mov	r1, r5
20004056:	3401      	adds	r4, #1
20004058:	f7ff fece 	bl	20003df8 <tick_start>
2000405c:	2c06      	cmp	r4, #6
2000405e:	d1f8      	bne.n	20004052 <runtime_init_clocks+0xa2>
20004060:	b002      	add	sp, #8
20004062:	bd70      	pop	{r4, r5, r6, pc}
20004064:	40010000 	.word	0x40010000
20004068:	40013000 	.word	0x40013000
2000406c:	59682f00 	.word	0x59682f00
20004070:	40050000 	.word	0x40050000
20004074:	47868c00 	.word	0x47868c00
20004078:	40058000 	.word	0x40058000
2000407c:	00b71b00 	.word	0x00b71b00
20004080:	08f0d180 	.word	0x08f0d180
20004084:	02dc6c00 	.word	0x02dc6c00
20004088:	431bde83 	.word	0x431bde83

2000408c <generic_save_state>:
2000408c:	b086      	sub	sp, #24
2000408e:	b403      	push	{r0, r1}
20004090:	fc51 0408 	dcp_pxmd r0, r1
20004094:	e9cd 0102 	strd	r0, r1, [sp, #8]
20004098:	fc51 0409 	dcp_pymd r0, r1
2000409c:	e9cd 0104 	strd	r0, r1, [sp, #16]
200040a0:	ec51 040a 	dcp_refd r0, r1
200040a4:	e9cd 0106 	strd	r0, r1, [sp, #24]
200040a8:	bc03      	pop	{r0, r1}
200040aa:	47f0      	blx	lr

200040ac <generic_restore_state>:
200040ac:	e8bd 5000 	ldmia.w	sp!, {ip, lr}
200040b0:	ec4e c400 	dcp_wxmd ip, lr
200040b4:	e8bd 5000 	ldmia.w	sp!, {ip, lr}
200040b8:	ec4e c401 	dcp_wymd ip, lr
200040bc:	e8bd 5000 	ldmia.w	sp!, {ip, lr}
200040c0:	ec4e c402 	dcp_wefd ip, lr
200040c4:	bd00      	pop	{pc}
200040c6:	0000      	movs	r0, r0
200040c8:	b500      	push	{lr}
200040ca:	f7ff ffdf 	bl	2000408c <generic_save_state>
200040ce:	e002      	b.n	200040d6 <__wrap___aeabi_dadd+0x6>

200040d0 <__wrap___aeabi_dadd>:
200040d0:	fe10 f430 	dcp_pcmp APSR_nzcv
200040d4:	d4f8      	bmi.n	200040c8 <generic_restore_state+0x1c>
200040d6:	ec41 0410 	dcp_wxup r0, r1
200040da:	ec43 2411 	dcp_wyup r2, r3
200040de:	ee00 0401 			dcp_add0
200040e2:	ee10 0401 			dcp_add1
200040e6:	ee80 0420 			dcp_nrdd
200040ea:	ec51 0410 	dcp_rdda r0, r1
200040ee:	4770      	bx	lr
200040f0:	b500      	push	{lr}
200040f2:	f7ff ffcb 	bl	2000408c <generic_save_state>
200040f6:	e002      	b.n	200040fe <__wrap___aeabi_dsub+0x6>

200040f8 <__wrap___aeabi_dsub>:
200040f8:	fe10 f430 	dcp_pcmp APSR_nzcv
200040fc:	d4f8      	bmi.n	200040f0 <__wrap___aeabi_dadd+0x20>
200040fe:	ec41 0410 	dcp_wxup r0, r1
20004102:	ec43 2411 	dcp_wyup r2, r3
20004106:	ee00 0401 			dcp_add0
2000410a:	ee10 0421 			dcp_sub1
2000410e:	ee80 0420 			dcp_nrdd
20004112:	ec51 0430 	dcp_rdds r0, r1
20004116:	4770      	bx	lr
20004118:	b500      	push	{lr}
2000411a:	f7ff ffb7 	bl	2000408c <generic_save_state>
2000411e:	e002      	b.n	20004126 <__wrap___aeabi_dmul+0x6>

20004120 <__wrap___aeabi_dmul>:
20004120:	fe10 f430 	dcp_pcmp APSR_nzcv
20004124:	d4f8      	bmi.n	20004118 <__wrap___aeabi_dsub+0x20>
20004126:	b510      	push	{r4, lr}
20004128:	ec41 0410 	dcp_wxup r0, r1
2000412c:	ec43 2411 	dcp_wyup r2, r3
20004130:	ec51 0404 	dcp_rxms r0, r1, #0x0
20004134:	ec53 2405 	dcp_ryms r2, r3, #0x0
20004138:	fba0 4c02 	umull	r4, ip, r0, r2
2000413c:	f05f 0e00 	movs.w	lr, #0
20004140:	fbe0 ce03 	umlal	ip, lr, r0, r3
20004144:	fbe1 ce02 	umlal	ip, lr, r1, r2
20004148:	ec4c 4420 	dcp_wxms r4, ip
2000414c:	2400      	movs	r4, #0
2000414e:	fbe1 e403 	umlal	lr, r4, r1, r3
20004152:	ec44 e430 	dcp_wxmo lr, r4
20004156:	ee80 0420 			dcp_nrdd
2000415a:	ec51 0450 	dcp_rddm r0, r1
2000415e:	e8bd 4010 	ldmia.w	sp!, {r4, lr}
20004162:	4770      	bx	lr
20004164:	b500      	push	{lr}
20004166:	f7ff ff91 	bl	2000408c <generic_save_state>
2000416a:	e002      	b.n	20004172 <__wrap___aeabi_ddiv+0x6>

2000416c <__wrap___aeabi_ddiv>:
2000416c:	fe10 f430 	dcp_pcmp APSR_nzcv
20004170:	d4f8      	bmi.n	20004164 <__wrap___aeabi_dmul+0x44>
20004172:	ec41 0410 	dcp_wxup r0, r1
20004176:	ec43 2411 	dcp_wyup r2, r3
2000417a:	ec51 0421 	dcp_rymr r0, r1
2000417e:	fba0 1201 	umull	r1, r2, r0, r1
20004182:	ea6f 0282 	mvn.w	r2, r2, lsl #2
20004186:	fb52 0010 	smmlar	r0, r2, r0, r0
2000418a:	fb52 f212 	smmulr	r2, r2, r2
2000418e:	fb52 0010 	smmlar	r0, r2, r0, r0
20004192:	eba0 7cd0 	sub.w	ip, r0, r0, lsr #31
20004196:	ec53 2404 	dcp_rxms r2, r3, #0x0
2000419a:	fb5c f113 	smmulr	r1, ip, r3
2000419e:	ec53 2415 	dcp_ryms r2, r3, #0x1
200041a2:	fba1 2002 	umull	r2, r0, r1, r2
200041a6:	fb01 0003 	mla	r0, r1, r3, r0
200041aa:	ec53 2444 	dcp_rxms r2, r3, #0x4
200041ae:	eba2 0000 	sub.w	r0, r2, r0
200041b2:	fb50 f21c 	smmulr	r2, r0, ip
200041b6:	ea4f 1311 	mov.w	r3, r1, lsr #4
200041ba:	eb12 7001 	adds.w	r0, r2, r1, lsl #28
200041be:	eb43 71e2 	adc.w	r1, r3, r2, asr #31
200041c2:	ea40 5051 	orr.w	r0, r0, r1, lsr #21
200041c6:	ea20 5091 	bic.w	r0, r0, r1, lsr #22
200041ca:	f020 0007 	bic.w	r0, r0, #7
200041ce:	ec53 2475 	dcp_ryms r2, r3, #0x7
200041d2:	fba0 3c02 	umull	r3, ip, r0, r2
200041d6:	ec53 2475 	dcp_ryms r2, r3, #0x7
200041da:	fb00 cc03 	mla	ip, r0, r3, ip
200041de:	fb01 cc02 	mla	ip, r1, r2, ip
200041e2:	ec53 2404 	dcp_rxms r2, r3, #0x0
200041e6:	ebac 4c82 	sub.w	ip, ip, r2, lsl #18
200041ea:	ea40 705c 	orr.w	r0, r0, ip, lsr #29
200041ee:	f1a0 0001 	sub.w	r0, r0, #1
200041f2:	ec41 0440 	dcp_wxdd r0, r1
200041f6:	ee80 0420 			dcp_nrdd
200041fa:	ec51 0470 	dcp_rddd r0, r1
200041fe:	4770      	bx	lr
20004200:	b500      	push	{lr}
20004202:	f7ff ff43 	bl	2000408c <generic_save_state>
20004206:	e002      	b.n	2000420e <__wrap___aeabi_i2d+0x6>

20004208 <__wrap___aeabi_i2d>:
20004208:	fe10 f430 	dcp_pcmp APSR_nzcv
2000420c:	d4f8      	bmi.n	20004200 <__wrap___aeabi_ddiv+0x94>
2000420e:	ec40 0470 	dcp_wxic r0, r0
20004212:	ee00 0401 			dcp_add0
20004216:	ee10 0421 			dcp_sub1
2000421a:	ee80 0420 			dcp_nrdd
2000421e:	ec51 0430 	dcp_rdds r0, r1
20004222:	4770      	bx	lr
20004224:	b500      	push	{lr}
20004226:	f7ff ff31 	bl	2000408c <generic_save_state>
2000422a:	e002      	b.n	20004232 <__wrap___aeabi_ui2d+0x6>

2000422c <__wrap___aeabi_ui2d>:
2000422c:	fe10 f430 	dcp_pcmp APSR_nzcv
20004230:	d4f8      	bmi.n	20004224 <__wrap___aeabi_i2d+0x1c>
20004232:	ec40 0460 	dcp_wxuc r0, r0
20004236:	ee00 0401 			dcp_add0
2000423a:	ee10 0421 			dcp_sub1
2000423e:	ee80 0420 			dcp_nrdd
20004242:	ec51 0430 	dcp_rdds r0, r1
20004246:	4770      	bx	lr
20004248:	b500      	push	{lr}
2000424a:	f7ff ff1f 	bl	2000408c <generic_save_state>
2000424e:	e002      	b.n	20004256 <double2int_z_entry>

20004250 <__wrap___aeabi_d2iz>:
20004250:	fe10 f430 	dcp_pcmp APSR_nzcv
20004254:	d4f8      	bmi.n	20004248 <__wrap___aeabi_ui2d+0x1c>

20004256 <double2int_z_entry>:
20004256:	ec41 0480 	dcp_wxdc r0, r1
2000425a:	ee00 0401 			dcp_add0
2000425e:	ee10 0401 			dcp_add1
20004262:	ee80 0440 			dcp_ntdc
20004266:	ee10 0413 			dcp_rdic r0
2000426a:	4770      	bx	lr
2000426c:	b500      	push	{lr}
2000426e:	f7ff ff0d 	bl	2000408c <generic_save_state>
20004272:	e002      	b.n	2000427a <__wrap___aeabi_dcmpun+0x6>

20004274 <__wrap___aeabi_dcmpun>:
20004274:	fe10 f430 	dcp_pcmp APSR_nzcv
20004278:	d4f8      	bmi.n	2000426c <double2int_z_entry+0x16>
2000427a:	ec41 0410 	dcp_wxup r0, r1
2000427e:	ec43 2411 	dcp_wyup r2, r3
20004282:	ee00 0401 			dcp_add0
20004286:	ee10 0430 			dcp_rcmp r0
2000428a:	f3c0 7000 	ubfx	r0, r0, #28, #1
2000428e:	4770      	bx	lr
20004290:	b500      	push	{lr}
20004292:	f7ff fefb 	bl	2000408c <generic_save_state>
20004296:	e002      	b.n	2000429e <__wrap___aeabi_dcmpeq+0x6>

20004298 <__wrap___aeabi_dcmpeq>:
20004298:	fe10 f430 	dcp_pcmp APSR_nzcv
2000429c:	d4f8      	bmi.n	20004290 <__wrap___aeabi_dcmpun+0x1c>
2000429e:	ec41 0410 	dcp_wxup r0, r1
200042a2:	ec43 2411 	dcp_wyup r2, r3
200042a6:	ee00 0401 			dcp_add0
200042aa:	ee10 0430 			dcp_rcmp r0
200042ae:	f3c0 7080 	ubfx	r0, r0, #30, #1
200042b2:	4770      	bx	lr
200042b4:	b500      	push	{lr}
200042b6:	f7ff fee9 	bl	2000408c <generic_save_state>
200042ba:	e002      	b.n	200042c2 <__wrap___aeabi_dcmplt+0x6>

200042bc <__wrap___aeabi_dcmplt>:
200042bc:	fe10 f430 	dcp_pcmp APSR_nzcv
200042c0:	d4f8      	bmi.n	200042b4 <__wrap___aeabi_dcmpeq+0x1c>
200042c2:	ec43 2410 	dcp_wxup r2, r3
200042c6:	ec41 0411 	dcp_wyup r0, r1
200042ca:	ee00 0401 			dcp_add0
200042ce:	ee10 f430 			dcp_rcmp APSR_nzcv
200042d2:	bf8c      	ite	hi
200042d4:	2001      	movhi	r0, #1
200042d6:	2000      	movls	r0, #0
200042d8:	4770      	bx	lr
200042da:	bf00      	nop
200042dc:	b500      	push	{lr}
200042de:	f7ff fed5 	bl	2000408c <generic_save_state>
200042e2:	e002      	b.n	200042ea <__wrap___aeabi_dcmple+0x6>

200042e4 <__wrap___aeabi_dcmple>:
200042e4:	fe10 f430 	dcp_pcmp APSR_nzcv
200042e8:	d4f8      	bmi.n	200042dc <__wrap___aeabi_dcmplt+0x20>
200042ea:	ec43 2410 	dcp_wxup r2, r3
200042ee:	ec41 0411 	dcp_wyup r0, r1
200042f2:	ee00 0401 			dcp_add0
200042f6:	ee10 f430 			dcp_rcmp APSR_nzcv
200042fa:	bf2c      	ite	cs
200042fc:	2001      	movcs	r0, #1
200042fe:	2000      	movcc	r0, #0
20004300:	4770      	bx	lr
20004302:	bf00      	nop
20004304:	b500      	push	{lr}
20004306:	f7ff fec1 	bl	2000408c <generic_save_state>
2000430a:	e002      	b.n	20004312 <__wrap___aeabi_dcmpgt+0x6>

2000430c <__wrap___aeabi_dcmpgt>:
2000430c:	fe10 f430 	dcp_pcmp APSR_nzcv
20004310:	d4f8      	bmi.n	20004304 <__wrap___aeabi_dcmple+0x20>
20004312:	ec41 0410 	dcp_wxup r0, r1
20004316:	ec43 2411 	dcp_wyup r2, r3
2000431a:	ee00 0401 			dcp_add0
2000431e:	ee10 f430 			dcp_rcmp APSR_nzcv
20004322:	bf8c      	ite	hi
20004324:	2001      	movhi	r0, #1
20004326:	2000      	movls	r0, #0
20004328:	4770      	bx	lr
2000432a:	bf00      	nop

2000432c <__wrap_calloc>:
2000432c:	b570      	push	{r4, r5, r6, lr}
2000432e:	4604      	mov	r4, r0
20004330:	460e      	mov	r6, r1
20004332:	480b      	ldr	r0, [pc, #44]	@ (20004360 <__wrap_calloc+0x34>)
20004334:	f009 fb34 	bl	2000d9a0 <mutex_enter_blocking>
20004338:	4631      	mov	r1, r6
2000433a:	4620      	mov	r0, r4
2000433c:	f004 fac8 	bl	200088d0 <calloc>
20004340:	4605      	mov	r5, r0
20004342:	4807      	ldr	r0, [pc, #28]	@ (20004360 <__wrap_calloc+0x34>)
20004344:	f009 fbf2 	bl	2000db2c <mutex_exit>
20004348:	fb06 f404 	mul.w	r4, r6, r4
2000434c:	b12d      	cbz	r5, 2000435a <__wrap_calloc+0x2e>
2000434e:	4b05      	ldr	r3, [pc, #20]	@ (20004364 <__wrap_calloc+0x38>)
20004350:	442c      	add	r4, r5
20004352:	429c      	cmp	r4, r3
20004354:	d801      	bhi.n	2000435a <__wrap_calloc+0x2e>
20004356:	4628      	mov	r0, r5
20004358:	bd70      	pop	{r4, r5, r6, pc}
2000435a:	4803      	ldr	r0, [pc, #12]	@ (20004368 <__wrap_calloc+0x3c>)
2000435c:	f7fe f9ca 	bl	200026f4 <panic>
20004360:	20010534 	.word	0x20010534
20004364:	20080000 	.word	0x20080000
20004368:	2000ea98 	.word	0x2000ea98

2000436c <_out_char>:
2000436c:	b900      	cbnz	r0, 20004370 <_out_char+0x4>
2000436e:	4770      	bx	lr
20004370:	f000 b956 	b.w	20004620 <__wrap_putchar>

20004374 <weak_raw_printf>:
20004374:	b40f      	push	{r0, r1, r2, r3}
20004376:	b510      	push	{r4, lr}
20004378:	4b0e      	ldr	r3, [pc, #56]	@ (200043b4 <weak_raw_printf+0x40>)
2000437a:	b084      	sub	sp, #16
2000437c:	a906      	add	r1, sp, #24
2000437e:	681c      	ldr	r4, [r3, #0]
20004380:	f851 3b04 	ldr.w	r3, [r1], #4
20004384:	9103      	str	r1, [sp, #12]
20004386:	b15c      	cbz	r4, 200043a0 <weak_raw_printf+0x2c>
20004388:	9100      	str	r1, [sp, #0]
2000438a:	f04f 32ff 	mov.w	r2, #4294967295
2000438e:	a902      	add	r1, sp, #8
20004390:	4809      	ldr	r0, [pc, #36]	@ (200043b8 <weak_raw_printf+0x44>)
20004392:	47a0      	blx	r4
20004394:	2001      	movs	r0, #1
20004396:	b004      	add	sp, #16
20004398:	e8bd 4010 	ldmia.w	sp!, {r4, lr}
2000439c:	b004      	add	sp, #16
2000439e:	4770      	bx	lr
200043a0:	4618      	mov	r0, r3
200043a2:	f000 f97f 	bl	200046a4 <__wrap_puts>
200043a6:	4620      	mov	r0, r4
200043a8:	b004      	add	sp, #16
200043aa:	e8bd 4010 	ldmia.w	sp!, {r4, lr}
200043ae:	b004      	add	sp, #16
200043b0:	4770      	bx	lr
200043b2:	bf00      	nop
200043b4:	2005a71c 	.word	0x2005a71c
200043b8:	2000436d 	.word	0x2000436d

200043bc <weak_raw_vprintf>:
200043bc:	b510      	push	{r4, lr}
200043be:	4b09      	ldr	r3, [pc, #36]	@ (200043e4 <weak_raw_vprintf+0x28>)
200043c0:	b084      	sub	sp, #16
200043c2:	681c      	ldr	r4, [r3, #0]
200043c4:	b14c      	cbz	r4, 200043da <weak_raw_vprintf+0x1e>
200043c6:	4603      	mov	r3, r0
200043c8:	9100      	str	r1, [sp, #0]
200043ca:	f04f 32ff 	mov.w	r2, #4294967295
200043ce:	a903      	add	r1, sp, #12
200043d0:	4805      	ldr	r0, [pc, #20]	@ (200043e8 <weak_raw_vprintf+0x2c>)
200043d2:	47a0      	blx	r4
200043d4:	2001      	movs	r0, #1
200043d6:	b004      	add	sp, #16
200043d8:	bd10      	pop	{r4, pc}
200043da:	f000 f963 	bl	200046a4 <__wrap_puts>
200043de:	4620      	mov	r0, r4
200043e0:	b004      	add	sp, #16
200043e2:	bd10      	pop	{r4, pc}
200043e4:	2005a71c 	.word	0x2005a71c
200043e8:	2000436d 	.word	0x2000436d

200043ec <_exit>:
200043ec:	be00      	bkpt	0x0000
200043ee:	e7fd      	b.n	200043ec <_exit>

200043f0 <_sbrk>:
200043f0:	4a07      	ldr	r2, [pc, #28]	@ (20004410 <_sbrk+0x20>)
200043f2:	4603      	mov	r3, r0
200043f4:	6810      	ldr	r0, [r2, #0]
200043f6:	b138      	cbz	r0, 20004408 <_sbrk+0x18>
200043f8:	4906      	ldr	r1, [pc, #24]	@ (20004414 <_sbrk+0x24>)
200043fa:	4403      	add	r3, r0
200043fc:	428b      	cmp	r3, r1
200043fe:	bf8c      	ite	hi
20004400:	f04f 30ff 	movhi.w	r0, #4294967295
20004404:	6013      	strls	r3, [r2, #0]
20004406:	4770      	bx	lr
20004408:	4903      	ldr	r1, [pc, #12]	@ (20004418 <_sbrk+0x28>)
2000440a:	4608      	mov	r0, r1
2000440c:	6011      	str	r1, [r2, #0]
2000440e:	e7f3      	b.n	200043f8 <_sbrk+0x8>
20004410:	2005a304 	.word	0x2005a304
20004414:	20080000 	.word	0x20080000
20004418:	2005afd4 	.word	0x2005afd4

2000441c <exit>:
2000441c:	b508      	push	{r3, lr}
2000441e:	f7ff ffe5 	bl	200043ec <_exit>
20004422:	bf00      	nop

20004424 <__assert_func>:
20004424:	469c      	mov	ip, r3
20004426:	4614      	mov	r4, r2
20004428:	b500      	push	{lr}
2000442a:	460b      	mov	r3, r1
2000442c:	4602      	mov	r2, r0
2000442e:	4661      	mov	r1, ip
20004430:	b083      	sub	sp, #12
20004432:	b144      	cbz	r4, 20004446 <__assert_func+0x22>
20004434:	4d05      	ldr	r5, [pc, #20]	@ (2000444c <__assert_func+0x28>)
20004436:	4806      	ldr	r0, [pc, #24]	@ (20004450 <__assert_func+0x2c>)
20004438:	9401      	str	r4, [sp, #4]
2000443a:	9500      	str	r5, [sp, #0]
2000443c:	f7ff ff9a 	bl	20004374 <weak_raw_printf>
20004440:	2001      	movs	r0, #1
20004442:	f7ff ffd3 	bl	200043ec <_exit>
20004446:	4d03      	ldr	r5, [pc, #12]	@ (20004454 <__assert_func+0x30>)
20004448:	462c      	mov	r4, r5
2000444a:	e7f4      	b.n	20004436 <__assert_func+0x12>
2000444c:	2000ead4 	.word	0x2000ead4
20004450:	2000eae4 	.word	0x2000eae4
20004454:	2000e948 	.word	0x2000e948

20004458 <runtime_init>:
20004458:	b538      	push	{r3, r4, r5, lr}
2000445a:	4c06      	ldr	r4, [pc, #24]	@ (20004474 <runtime_init+0x1c>)
2000445c:	4d06      	ldr	r5, [pc, #24]	@ (20004478 <runtime_init+0x20>)
2000445e:	f7ff fd1b 	bl	20003e98 <runtime_run_initializers>
20004462:	42ac      	cmp	r4, r5
20004464:	d204      	bcs.n	20004470 <runtime_init+0x18>
20004466:	f854 3b04 	ldr.w	r3, [r4], #4
2000446a:	4798      	blx	r3
2000446c:	42ac      	cmp	r4, r5
2000446e:	d3fa      	bcc.n	20004466 <runtime_init+0xe>
20004470:	bd38      	pop	{r3, r4, r5, pc}
20004472:	bf00      	nop
20004474:	20010584 	.word	0x20010584
20004478:	2001058c 	.word	0x2001058c

2000447c <stdio_out_chars_no_crlf>:
2000447c:	6803      	ldr	r3, [r0, #0]
2000447e:	4608      	mov	r0, r1
20004480:	4611      	mov	r1, r2
20004482:	4718      	bx	r3

20004484 <stdio_out_chars_crlf>:
20004484:	e92d 41f0 	stmdb	sp!, {r4, r5, r6, r7, r8, lr}
20004488:	4615      	mov	r5, r2
2000448a:	7d42      	ldrb	r2, [r0, #21]
2000448c:	4607      	mov	r7, r0
2000448e:	4688      	mov	r8, r1
20004490:	2a00      	cmp	r2, #0
20004492:	d046      	beq.n	20004522 <stdio_out_chars_crlf+0x9e>
20004494:	2d00      	cmp	r5, #0
20004496:	dd1d      	ble.n	200044d4 <stdio_out_chars_crlf+0x50>
20004498:	780b      	ldrb	r3, [r1, #0]
2000449a:	2b0a      	cmp	r3, #10
2000449c:	d023      	beq.n	200044e6 <stdio_out_chars_crlf+0x62>
2000449e:	2d01      	cmp	r5, #1
200044a0:	f04f 0c00 	mov.w	ip, #0
200044a4:	d018      	beq.n	200044d8 <stdio_out_chars_crlf+0x54>
200044a6:	4646      	mov	r6, r8
200044a8:	2401      	movs	r4, #1
200044aa:	f816 2f01 	ldrb.w	r2, [r6, #1]!
200044ae:	4621      	mov	r1, r4
200044b0:	2a0a      	cmp	r2, #10
200044b2:	f104 0401 	add.w	r4, r4, #1
200044b6:	d022      	beq.n	200044fe <stdio_out_chars_crlf+0x7a>
200044b8:	42a5      	cmp	r5, r4
200044ba:	d1f6      	bne.n	200044aa <stdio_out_chars_crlf+0x26>
200044bc:	4565      	cmp	r5, ip
200044be:	dc0b      	bgt.n	200044d8 <stdio_out_chars_crlf+0x54>
200044c0:	eb08 0305 	add.w	r3, r8, r5
200044c4:	f813 3c01 	ldrb.w	r3, [r3, #-1]
200044c8:	f1a3 030d 	sub.w	r3, r3, #13
200044cc:	fab3 f383 	clz	r3, r3
200044d0:	095b      	lsrs	r3, r3, #5
200044d2:	753b      	strb	r3, [r7, #20]
200044d4:	e8bd 81f0 	ldmia.w	sp!, {r4, r5, r6, r7, r8, pc}
200044d8:	683b      	ldr	r3, [r7, #0]
200044da:	eba5 010c 	sub.w	r1, r5, ip
200044de:	eb08 000c 	add.w	r0, r8, ip
200044e2:	4798      	blx	r3
200044e4:	e7ec      	b.n	200044c0 <stdio_out_chars_crlf+0x3c>
200044e6:	7d03      	ldrb	r3, [r0, #20]
200044e8:	2b00      	cmp	r3, #0
200044ea:	d1d8      	bne.n	2000449e <stdio_out_chars_crlf+0x1a>
200044ec:	6803      	ldr	r3, [r0, #0]
200044ee:	2102      	movs	r1, #2
200044f0:	480f      	ldr	r0, [pc, #60]	@ (20004530 <stdio_out_chars_crlf+0xac>)
200044f2:	4798      	blx	r3
200044f4:	2d01      	cmp	r5, #1
200044f6:	d0e3      	beq.n	200044c0 <stdio_out_chars_crlf+0x3c>
200044f8:	f04f 0c01 	mov.w	ip, #1
200044fc:	e7d3      	b.n	200044a6 <stdio_out_chars_crlf+0x22>
200044fe:	f816 3c01 	ldrb.w	r3, [r6, #-1]
20004502:	2b0d      	cmp	r3, #13
20004504:	d0d8      	beq.n	200044b8 <stdio_out_chars_crlf+0x34>
20004506:	458c      	cmp	ip, r1
20004508:	eb08 000c 	add.w	r0, r8, ip
2000450c:	eba1 010c 	sub.w	r1, r1, ip
20004510:	da01      	bge.n	20004516 <stdio_out_chars_crlf+0x92>
20004512:	683b      	ldr	r3, [r7, #0]
20004514:	4798      	blx	r3
20004516:	2102      	movs	r1, #2
20004518:	4805      	ldr	r0, [pc, #20]	@ (20004530 <stdio_out_chars_crlf+0xac>)
2000451a:	683b      	ldr	r3, [r7, #0]
2000451c:	4798      	blx	r3
2000451e:	46a4      	mov	ip, r4
20004520:	e7ca      	b.n	200044b8 <stdio_out_chars_crlf+0x34>
20004522:	4629      	mov	r1, r5
20004524:	4640      	mov	r0, r8
20004526:	683b      	ldr	r3, [r7, #0]
20004528:	e8bd 41f0 	ldmia.w	sp!, {r4, r5, r6, r7, r8, lr}
2000452c:	4718      	bx	r3
2000452e:	bf00      	nop
20004530:	2000f3d4 	.word	0x2000f3d4

20004534 <stdio_put_string>:
20004534:	e92d 47f0 	stmdb	sp!, {r4, r5, r6, r7, r8, r9, sl, lr}
20004538:	b082      	sub	sp, #8
2000453a:	460d      	mov	r5, r1
2000453c:	4691      	mov	r9, r2
2000453e:	461c      	mov	r4, r3
20004540:	4606      	mov	r6, r0
20004542:	f7ff f8cb 	bl	200036dc <time_us_64>
20004546:	f04f 3cff 	mov.w	ip, #4294967295
2000454a:	f06f 4700 	mvn.w	r7, #2147483648	@ 0x80000000
2000454e:	4a2e      	ldr	r2, [pc, #184]	@ (20004608 <stdio_put_string+0xd4>)
20004550:	1882      	adds	r2, r0, r2
20004552:	f141 0300 	adc.w	r3, r1, #0
20004556:	4594      	cmp	ip, r2
20004558:	eb77 0103 	sbcs.w	r1, r7, r3
2000455c:	bf3c      	itt	cc
2000455e:	4662      	movcc	r2, ip
20004560:	463b      	movcc	r3, r7
20004562:	482a      	ldr	r0, [pc, #168]	@ (2000460c <stdio_put_string+0xd8>)
20004564:	f009 fa92 	bl	2000da8c <mutex_try_enter_block_until>
20004568:	1c6b      	adds	r3, r5, #1
2000456a:	4680      	mov	r8, r0
2000456c:	d040      	beq.n	200045f0 <stdio_put_string+0xbc>
2000456e:	b30c      	cbz	r4, 200045b4 <stdio_put_string+0x80>
20004570:	4f27      	ldr	r7, [pc, #156]	@ (20004610 <stdio_put_string+0xdc>)
20004572:	4b28      	ldr	r3, [pc, #160]	@ (20004614 <stdio_put_string+0xe0>)
20004574:	681c      	ldr	r4, [r3, #0]
20004576:	b1b4      	cbz	r4, 200045a6 <stdio_put_string+0x72>
20004578:	f1b9 0f00 	cmp.w	r9, #0
2000457c:	d11c      	bne.n	200045b8 <stdio_put_string+0x84>
2000457e:	f8df 909c 	ldr.w	r9, [pc, #156]	@ 2000461c <stdio_put_string+0xe8>
20004582:	e001      	b.n	20004588 <stdio_put_string+0x54>
20004584:	6924      	ldr	r4, [r4, #16]
20004586:	b174      	cbz	r4, 200045a6 <stdio_put_string+0x72>
20004588:	6823      	ldr	r3, [r4, #0]
2000458a:	2b00      	cmp	r3, #0
2000458c:	d0fa      	beq.n	20004584 <stdio_put_string+0x50>
2000458e:	f8d9 3000 	ldr.w	r3, [r9]
20004592:	b10b      	cbz	r3, 20004598 <stdio_put_string+0x64>
20004594:	429c      	cmp	r4, r3
20004596:	d1f5      	bne.n	20004584 <stdio_put_string+0x50>
20004598:	4620      	mov	r0, r4
2000459a:	462a      	mov	r2, r5
2000459c:	4631      	mov	r1, r6
2000459e:	47b8      	blx	r7
200045a0:	6924      	ldr	r4, [r4, #16]
200045a2:	2c00      	cmp	r4, #0
200045a4:	d1f0      	bne.n	20004588 <stdio_put_string+0x54>
200045a6:	f1b8 0f00 	cmp.w	r8, #0
200045aa:	d126      	bne.n	200045fa <stdio_put_string+0xc6>
200045ac:	4628      	mov	r0, r5
200045ae:	b002      	add	sp, #8
200045b0:	e8bd 87f0 	ldmia.w	sp!, {r4, r5, r6, r7, r8, r9, sl, pc}
200045b4:	4f18      	ldr	r7, [pc, #96]	@ (20004618 <stdio_put_string+0xe4>)
200045b6:	e7dc      	b.n	20004572 <stdio_put_string+0x3e>
200045b8:	f04f 0a0a 	mov.w	sl, #10
200045bc:	f8df 905c 	ldr.w	r9, [pc, #92]	@ 2000461c <stdio_put_string+0xe8>
200045c0:	e002      	b.n	200045c8 <stdio_put_string+0x94>
200045c2:	6924      	ldr	r4, [r4, #16]
200045c4:	2c00      	cmp	r4, #0
200045c6:	d0ee      	beq.n	200045a6 <stdio_put_string+0x72>
200045c8:	6823      	ldr	r3, [r4, #0]
200045ca:	2b00      	cmp	r3, #0
200045cc:	d0f9      	beq.n	200045c2 <stdio_put_string+0x8e>
200045ce:	f8d9 3000 	ldr.w	r3, [r9]
200045d2:	b10b      	cbz	r3, 200045d8 <stdio_put_string+0xa4>
200045d4:	42a3      	cmp	r3, r4
200045d6:	d1f4      	bne.n	200045c2 <stdio_put_string+0x8e>
200045d8:	462a      	mov	r2, r5
200045da:	4631      	mov	r1, r6
200045dc:	4620      	mov	r0, r4
200045de:	47b8      	blx	r7
200045e0:	2201      	movs	r2, #1
200045e2:	4620      	mov	r0, r4
200045e4:	f10d 0107 	add.w	r1, sp, #7
200045e8:	f88d a007 	strb.w	sl, [sp, #7]
200045ec:	47b8      	blx	r7
200045ee:	e7e8      	b.n	200045c2 <stdio_put_string+0x8e>
200045f0:	4630      	mov	r0, r6
200045f2:	f005 f8eb 	bl	200097cc <strlen>
200045f6:	4605      	mov	r5, r0
200045f8:	e7b9      	b.n	2000456e <stdio_put_string+0x3a>
200045fa:	4804      	ldr	r0, [pc, #16]	@ (2000460c <stdio_put_string+0xd8>)
200045fc:	f009 fa96 	bl	2000db2c <mutex_exit>
20004600:	4628      	mov	r0, r5
20004602:	b002      	add	sp, #8
20004604:	e8bd 87f0 	ldmia.w	sp!, {r4, r5, r6, r7, r8, r9, sl, pc}
20004608:	000f4240 	.word	0x000f4240
2000460c:	2001053c 	.word	0x2001053c
20004610:	20004485 	.word	0x20004485
20004614:	20059c88 	.word	0x20059c88
20004618:	2000447d 	.word	0x2000447d
2000461c:	2005a2f8 	.word	0x2005a2f8

20004620 <__wrap_putchar>:
20004620:	b5f0      	push	{r4, r5, r6, r7, lr}
20004622:	b083      	sub	sp, #12
20004624:	4606      	mov	r6, r0
20004626:	f88d 0007 	strb.w	r0, [sp, #7]
2000462a:	f7ff f857 	bl	200036dc <time_us_64>
2000462e:	f04f 35ff 	mov.w	r5, #4294967295
20004632:	f06f 4400 	mvn.w	r4, #2147483648	@ 0x80000000
20004636:	4a17      	ldr	r2, [pc, #92]	@ (20004694 <__wrap_putchar+0x74>)
20004638:	1882      	adds	r2, r0, r2
2000463a:	f141 0300 	adc.w	r3, r1, #0
2000463e:	4295      	cmp	r5, r2
20004640:	eb74 0103 	sbcs.w	r1, r4, r3
20004644:	bf3c      	itt	cc
20004646:	4623      	movcc	r3, r4
20004648:	462a      	movcc	r2, r5
2000464a:	4813      	ldr	r0, [pc, #76]	@ (20004698 <__wrap_putchar+0x78>)
2000464c:	f009 fa1e 	bl	2000da8c <mutex_try_enter_block_until>
20004650:	4b12      	ldr	r3, [pc, #72]	@ (2000469c <__wrap_putchar+0x7c>)
20004652:	4607      	mov	r7, r0
20004654:	681c      	ldr	r4, [r3, #0]
20004656:	b19c      	cbz	r4, 20004680 <__wrap_putchar+0x60>
20004658:	4d11      	ldr	r5, [pc, #68]	@ (200046a0 <__wrap_putchar+0x80>)
2000465a:	e001      	b.n	20004660 <__wrap_putchar+0x40>
2000465c:	6924      	ldr	r4, [r4, #16]
2000465e:	b17c      	cbz	r4, 20004680 <__wrap_putchar+0x60>
20004660:	6823      	ldr	r3, [r4, #0]
20004662:	2b00      	cmp	r3, #0
20004664:	d0fa      	beq.n	2000465c <__wrap_putchar+0x3c>
20004666:	682b      	ldr	r3, [r5, #0]
20004668:	b10b      	cbz	r3, 2000466e <__wrap_putchar+0x4e>
2000466a:	429c      	cmp	r4, r3
2000466c:	d1f6      	bne.n	2000465c <__wrap_putchar+0x3c>
2000466e:	4620      	mov	r0, r4
20004670:	2201      	movs	r2, #1
20004672:	f10d 0107 	add.w	r1, sp, #7
20004676:	f7ff ff05 	bl	20004484 <stdio_out_chars_crlf>
2000467a:	6924      	ldr	r4, [r4, #16]
2000467c:	2c00      	cmp	r4, #0
2000467e:	d1ef      	bne.n	20004660 <__wrap_putchar+0x40>
20004680:	b917      	cbnz	r7, 20004688 <__wrap_putchar+0x68>
20004682:	4630      	mov	r0, r6
20004684:	b003      	add	sp, #12
20004686:	bdf0      	pop	{r4, r5, r6, r7, pc}
20004688:	4803      	ldr	r0, [pc, #12]	@ (20004698 <__wrap_putchar+0x78>)
2000468a:	f009 fa4f 	bl	2000db2c <mutex_exit>
2000468e:	4630      	mov	r0, r6
20004690:	b003      	add	sp, #12
20004692:	bdf0      	pop	{r4, r5, r6, r7, pc}
20004694:	000f4240 	.word	0x000f4240
20004698:	2001053c 	.word	0x2001053c
2000469c:	20059c88 	.word	0x20059c88
200046a0:	2005a2f8 	.word	0x2005a2f8

200046a4 <__wrap_puts>:
200046a4:	b538      	push	{r3, r4, r5, lr}
200046a6:	4604      	mov	r4, r0
200046a8:	f005 f890 	bl	200097cc <strlen>
200046ac:	2301      	movs	r3, #1
200046ae:	4605      	mov	r5, r0
200046b0:	461a      	mov	r2, r3
200046b2:	4620      	mov	r0, r4
200046b4:	4629      	mov	r1, r5
200046b6:	f7ff ff3d 	bl	20004534 <stdio_put_string>
200046ba:	4b08      	ldr	r3, [pc, #32]	@ (200046dc <__wrap_puts+0x38>)
200046bc:	681c      	ldr	r4, [r3, #0]
200046be:	b12c      	cbz	r4, 200046cc <__wrap_puts+0x28>
200046c0:	6863      	ldr	r3, [r4, #4]
200046c2:	b12b      	cbz	r3, 200046d0 <__wrap_puts+0x2c>
200046c4:	4798      	blx	r3
200046c6:	6924      	ldr	r4, [r4, #16]
200046c8:	2c00      	cmp	r4, #0
200046ca:	d1f9      	bne.n	200046c0 <__wrap_puts+0x1c>
200046cc:	4628      	mov	r0, r5
200046ce:	bd38      	pop	{r3, r4, r5, pc}
200046d0:	6924      	ldr	r4, [r4, #16]
200046d2:	2c00      	cmp	r4, #0
200046d4:	d1f4      	bne.n	200046c0 <__wrap_puts+0x1c>
200046d6:	4628      	mov	r0, r5
200046d8:	bd38      	pop	{r3, r4, r5, pc}
200046da:	bf00      	nop
200046dc:	20059c88 	.word	0x20059c88

200046e0 <core1_trampoline>:
200046e0:	bd03      	pop	{r0, r1, pc}
200046e2:	bf00      	nop

200046e4 <core1_wrapper>:
200046e4:	b510      	push	{r4, lr}
200046e6:	4604      	mov	r4, r0
200046e8:	f7ff fbe6 	bl	20003eb8 <runtime_run_per_core_initializers>
200046ec:	4623      	mov	r3, r4
200046ee:	e8bd 4010 	ldmia.w	sp!, {r4, lr}
200046f2:	4718      	bx	r3

200046f4 <multicore_reset_core1>:
200046f4:	f04f 7180 	mov.w	r1, #16777216	@ 0x1000000
200046f8:	4b14      	ldr	r3, [pc, #80]	@ (2000474c <multicore_reset_core1+0x58>)
200046fa:	4a15      	ldr	r2, [pc, #84]	@ (20004750 <multicore_reset_core1+0x5c>)
200046fc:	b510      	push	{r4, lr}
200046fe:	6059      	str	r1, [r3, #4]
20004700:	6853      	ldr	r3, [r2, #4]
20004702:	01d8      	lsls	r0, r3, #7
20004704:	d5fc      	bpl.n	20004700 <multicore_reset_core1+0xc>
20004706:	2019      	movs	r0, #25
20004708:	f7fe f8fa 	bl	20002900 <irq_is_enabled>
2000470c:	2100      	movs	r1, #0
2000470e:	4604      	mov	r4, r0
20004710:	2019      	movs	r0, #25
20004712:	f7fe f8df 	bl	200028d4 <irq_set_enabled>
20004716:	f04f 7180 	mov.w	r1, #16777216	@ 0x1000000
2000471a:	f04f 0c00 	mov.w	ip, #0
2000471e:	f04f 4250 	mov.w	r2, #3489660928	@ 0xd0000000
20004722:	4b0c      	ldr	r3, [pc, #48]	@ (20004754 <multicore_reset_core1+0x60>)
20004724:	480c      	ldr	r0, [pc, #48]	@ (20004758 <multicore_reset_core1+0x64>)
20004726:	f880 c001 	strb.w	ip, [r0, #1]
2000472a:	6059      	str	r1, [r3, #4]
2000472c:	6d13      	ldr	r3, [r2, #80]	@ 0x50
2000472e:	07d9      	lsls	r1, r3, #31
20004730:	d403      	bmi.n	2000473a <multicore_reset_core1+0x46>
20004732:	bf20      	wfe
20004734:	6d13      	ldr	r3, [r2, #80]	@ 0x50
20004736:	07db      	lsls	r3, r3, #31
20004738:	d5fb      	bpl.n	20004732 <multicore_reset_core1+0x3e>
2000473a:	f04f 4350 	mov.w	r3, #3489660928	@ 0xd0000000
2000473e:	4621      	mov	r1, r4
20004740:	e8bd 4010 	ldmia.w	sp!, {r4, lr}
20004744:	2019      	movs	r0, #25
20004746:	6d9b      	ldr	r3, [r3, #88]	@ 0x58
20004748:	f7fe b8c4 	b.w	200028d4 <irq_set_enabled>
2000474c:	4001a000 	.word	0x4001a000
20004750:	40018000 	.word	0x40018000
20004754:	4001b000 	.word	0x4001b000
20004758:	2005a728 	.word	0x2005a728

2000475c <multicore_launch_core1_raw>:
2000475c:	b5f0      	push	{r4, r5, r6, r7, lr}
2000475e:	4605      	mov	r5, r0
20004760:	b087      	sub	sp, #28
20004762:	2019      	movs	r0, #25
20004764:	4617      	mov	r7, r2
20004766:	460e      	mov	r6, r1
20004768:	f7fe f8ca 	bl	20002900 <irq_is_enabled>
2000476c:	2100      	movs	r1, #0
2000476e:	4604      	mov	r4, r0
20004770:	2019      	movs	r0, #25
20004772:	f7fe f8af 	bl	200028d4 <irq_set_enabled>
20004776:	2100      	movs	r1, #0
20004778:	e9cd 6504 	strd	r6, r5, [sp, #16]
2000477c:	9703      	str	r7, [sp, #12]
2000477e:	2600      	movs	r6, #0
20004780:	2700      	movs	r7, #0
20004782:	2201      	movs	r2, #1
20004784:	f04f 4350 	mov.w	r3, #3489660928	@ 0xd0000000
20004788:	468c      	mov	ip, r1
2000478a:	e9cd 6700 	strd	r6, r7, [sp]
2000478e:	9202      	str	r2, [sp, #8]
20004790:	b1a9      	cbz	r1, 200047be <multicore_launch_core1_raw+0x62>
20004792:	6d1a      	ldr	r2, [r3, #80]	@ 0x50
20004794:	0795      	lsls	r5, r2, #30
20004796:	d5fc      	bpl.n	20004792 <multicore_launch_core1_raw+0x36>
20004798:	6559      	str	r1, [r3, #84]	@ 0x54
2000479a:	bf40      	sev
2000479c:	6d1a      	ldr	r2, [r3, #80]	@ 0x50
2000479e:	07d0      	lsls	r0, r2, #31
200047a0:	d403      	bmi.n	200047aa <multicore_launch_core1_raw+0x4e>
200047a2:	bf20      	wfe
200047a4:	6d1a      	ldr	r2, [r3, #80]	@ 0x50
200047a6:	07d2      	lsls	r2, r2, #31
200047a8:	d5fb      	bpl.n	200047a2 <multicore_launch_core1_raw+0x46>
200047aa:	6d9a      	ldr	r2, [r3, #88]	@ 0x58
200047ac:	428a      	cmp	r2, r1
200047ae:	d00b      	beq.n	200047c8 <multicore_launch_core1_raw+0x6c>
200047b0:	f04f 0c00 	mov.w	ip, #0
200047b4:	eb0d 028c 	add.w	r2, sp, ip, lsl #2
200047b8:	6811      	ldr	r1, [r2, #0]
200047ba:	e7e9      	b.n	20004790 <multicore_launch_core1_raw+0x34>
200047bc:	6d9a      	ldr	r2, [r3, #88]	@ 0x58
200047be:	6d1a      	ldr	r2, [r3, #80]	@ 0x50
200047c0:	07d6      	lsls	r6, r2, #31
200047c2:	d4fb      	bmi.n	200047bc <multicore_launch_core1_raw+0x60>
200047c4:	bf40      	sev
200047c6:	e7e4      	b.n	20004792 <multicore_launch_core1_raw+0x36>
200047c8:	f10c 0c01 	add.w	ip, ip, #1
200047cc:	f1bc 0f06 	cmp.w	ip, #6
200047d0:	d1f0      	bne.n	200047b4 <multicore_launch_core1_raw+0x58>
200047d2:	4621      	mov	r1, r4
200047d4:	2019      	movs	r0, #25
200047d6:	b007      	add	sp, #28
200047d8:	e8bd 40f0 	ldmia.w	sp!, {r4, r5, r6, r7, lr}
200047dc:	f7fe b87a 	b.w	200028d4 <irq_set_enabled>

200047e0 <multicore_launch_core1>:
200047e0:	4b0c      	ldr	r3, [pc, #48]	@ (20004814 <multicore_launch_core1+0x34>)
200047e2:	4a0d      	ldr	r2, [pc, #52]	@ (20004818 <multicore_launch_core1+0x38>)
200047e4:	4293      	cmp	r3, r2
200047e6:	d30e      	bcc.n	20004806 <multicore_launch_core1+0x26>
200047e8:	469c      	mov	ip, r3
200047ea:	f203 71f4 	addw	r1, r3, #2036	@ 0x7f4
200047ee:	4a0b      	ldr	r2, [pc, #44]	@ (2000481c <multicore_launch_core1+0x3c>)
200047f0:	6892      	ldr	r2, [r2, #8]
200047f2:	f8cc 07f4 	str.w	r0, [ip, #2036]	@ 0x7f4
200047f6:	480a      	ldr	r0, [pc, #40]	@ (20004820 <multicore_launch_core1+0x40>)
200047f8:	f8cc 37f8 	str.w	r3, [ip, #2040]	@ 0x7f8
200047fc:	f8cc 07fc 	str.w	r0, [ip, #2044]	@ 0x7fc
20004800:	4808      	ldr	r0, [pc, #32]	@ (20004824 <multicore_launch_core1+0x44>)
20004802:	f7ff bfab 	b.w	2000475c <multicore_launch_core1_raw>
20004806:	f04f 33ff 	mov.w	r3, #4294967295
2000480a:	f240 71f3 	movw	r1, #2035	@ 0x7f3
2000480e:	469c      	mov	ip, r3
20004810:	e7ed      	b.n	200047ee <multicore_launch_core1+0xe>
20004812:	bf00      	nop
20004814:	20080800 	.word	0x20080800
20004818:	20080000 	.word	0x20080000
2000481c:	e000ed00 	.word	0xe000ed00
20004820:	200046e5 	.word	0x200046e5
20004824:	200046e1 	.word	0x200046e1

20004828 <_retrieve_unique_id_on_boot>:
20004828:	b500      	push	{lr}
2000482a:	f245 3047 	movw	r0, #21319	@ 0x5347
2000482e:	b08b      	sub	sp, #44	@ 0x2c
20004830:	f7ff faee 	bl	20003e10 <rom_func_lookup>
20004834:	2201      	movs	r2, #1
20004836:	4603      	mov	r3, r0
20004838:	2109      	movs	r1, #9
2000483a:	a801      	add	r0, sp, #4
2000483c:	4798      	blx	r3
2000483e:	e9dd 3203 	ldrd	r3, r2, [sp, #12]
20004842:	4904      	ldr	r1, [pc, #16]	@ (20004854 <_retrieve_unique_id_on_boot+0x2c>)
20004844:	ba12      	rev	r2, r2
20004846:	ba1b      	rev	r3, r3
20004848:	e9c1 2300 	strd	r2, r3, [r1]
2000484c:	b00b      	add	sp, #44	@ 0x2c
2000484e:	f85d fb04 	ldr.w	pc, [sp], #4
20004852:	bf00      	nop
20004854:	2005a78c 	.word	0x2005a78c

20004858 <pico_get_unique_board_id>:
20004858:	4603      	mov	r3, r0
2000485a:	4a02      	ldr	r2, [pc, #8]	@ (20004864 <pico_get_unique_board_id+0xc>)
2000485c:	ca03      	ldmia	r2!, {r0, r1}
2000485e:	6018      	str	r0, [r3, #0]
20004860:	6059      	str	r1, [r3, #4]
20004862:	4770      	bx	lr
20004864:	2005a78c 	.word	0x2005a78c

20004868 <spi_init>:
20004868:	4b38      	ldr	r3, [pc, #224]	@ (2000494c <spi_init+0xe4>)
2000486a:	e92d 47f0 	stmdb	sp!, {r4, r5, r6, r7, r8, r9, sl, lr}
2000486e:	4298      	cmp	r0, r3
20004870:	bf14      	ite	ne
20004872:	f44f 2300 	movne.w	r3, #524288	@ 0x80000
20004876:	f44f 2380 	moveq.w	r3, #262144	@ 0x40000
2000487a:	4607      	mov	r7, r0
2000487c:	460e      	mov	r6, r1
2000487e:	4d34      	ldr	r5, [pc, #208]	@ (20004950 <spi_init+0xe8>)
20004880:	4c34      	ldr	r4, [pc, #208]	@ (20004954 <spi_init+0xec>)
20004882:	4a35      	ldr	r2, [pc, #212]	@ (20004958 <spi_init+0xf0>)
20004884:	602b      	str	r3, [r5, #0]
20004886:	6023      	str	r3, [r4, #0]
20004888:	6895      	ldr	r5, [r2, #8]
2000488a:	ea33 0505 	bics.w	r5, r3, r5
2000488e:	d1fb      	bne.n	20004888 <spi_init+0x20>
20004890:	2006      	movs	r0, #6
20004892:	f7ff f96d 	bl	20003b70 <clock_get_hz>
20004896:	4639      	mov	r1, r7
20004898:	f04f 0a02 	mov.w	sl, #2
2000489c:	f851 ef04 	ldr.w	lr, [r1, #4]!
200048a0:	ea4f 59d6 	mov.w	r9, r6, lsr #23
200048a4:	ea4f 2c46 	mov.w	ip, r6, lsl #9
200048a8:	f501 5840 	add.w	r8, r1, #12288	@ 0x3000
200048ac:	4663      	mov	r3, ip
200048ae:	464a      	mov	r2, r9
200048b0:	4654      	mov	r4, sl
200048b2:	ea0e 0e0a 	and.w	lr, lr, sl
200048b6:	f8c8 a000 	str.w	sl, [r8]
200048ba:	e008      	b.n	200048ce <spi_init+0x66>
200048bc:	eb13 030c 	adds.w	r3, r3, ip
200048c0:	f104 0402 	add.w	r4, r4, #2
200048c4:	eb42 0209 	adc.w	r2, r2, r9
200048c8:	f5b4 7f80 	cmp.w	r4, #256	@ 0x100
200048cc:	d003      	beq.n	200048d6 <spi_init+0x6e>
200048ce:	4298      	cmp	r0, r3
200048d0:	eb75 0a02 	sbcs.w	sl, r5, r2
200048d4:	d2f2      	bcs.n	200048bc <spi_init+0x54>
200048d6:	f44f 7380 	mov.w	r3, #256	@ 0x100
200048da:	ebc4 2204 	rsb	r2, r4, r4, lsl #8
200048de:	e001      	b.n	200048e4 <spi_init+0x7c>
200048e0:	2b01      	cmp	r3, #1
200048e2:	d030      	beq.n	20004946 <spi_init+0xde>
200048e4:	fbb0 fcf2 	udiv	ip, r0, r2
200048e8:	4566      	cmp	r6, ip
200048ea:	4699      	mov	r9, r3
200048ec:	eba2 0204 	sub.w	r2, r2, r4
200048f0:	f103 33ff 	add.w	r3, r3, #4294967295
200048f4:	d2f4      	bcs.n	200048e0 <spi_init+0x78>
200048f6:	fb09 f904 	mul.w	r9, r9, r4
200048fa:	021d      	lsls	r5, r3, #8
200048fc:	613c      	str	r4, [r7, #16]
200048fe:	2402      	movs	r4, #2
20004900:	463b      	mov	r3, r7
20004902:	2603      	movs	r6, #3
20004904:	683a      	ldr	r2, [r7, #0]
20004906:	f501 5100 	add.w	r1, r1, #8192	@ 0x2000
2000490a:	406a      	eors	r2, r5
2000490c:	f507 5c80 	add.w	ip, r7, #4096	@ 0x1000
20004910:	f402 427f 	and.w	r2, r2, #65280	@ 0xff00
20004914:	f8cc 2000 	str.w	r2, [ip]
20004918:	f8c1 e000 	str.w	lr, [r1]
2000491c:	687d      	ldr	r5, [r7, #4]
2000491e:	f8c8 4000 	str.w	r4, [r8]
20004922:	f853 2b24 	ldr.w	r2, [r3], #36
20004926:	4025      	ands	r5, r4
20004928:	f082 0207 	eor.w	r2, r2, #7
2000492c:	f002 02cf 	and.w	r2, r2, #207	@ 0xcf
20004930:	f503 5300 	add.w	r3, r3, #8192	@ 0x2000
20004934:	f8cc 2000 	str.w	r2, [ip]
20004938:	fbb0 f0f9 	udiv	r0, r0, r9
2000493c:	600d      	str	r5, [r1, #0]
2000493e:	601e      	str	r6, [r3, #0]
20004940:	600c      	str	r4, [r1, #0]
20004942:	e8bd 87f0 	ldmia.w	sp!, {r4, r5, r6, r7, r8, r9, sl, pc}
20004946:	46a1      	mov	r9, r4
20004948:	e7d8      	b.n	200048fc <spi_init+0x94>
2000494a:	bf00      	nop
2000494c:	40080000 	.word	0x40080000
20004950:	40022000 	.word	0x40022000
20004954:	40023000 	.word	0x40023000
20004958:	40020000 	.word	0x40020000

2000495c <spi_set_baudrate>:
2000495c:	e92d 47f0 	stmdb	sp!, {r4, r5, r6, r7, r8, r9, sl, lr}
20004960:	4606      	mov	r6, r0
20004962:	f04f 0902 	mov.w	r9, #2
20004966:	2006      	movs	r0, #6
20004968:	460d      	mov	r5, r1
2000496a:	f7ff f901 	bl	20003b70 <clock_get_hz>
2000496e:	4631      	mov	r1, r6
20004970:	464c      	mov	r4, r9
20004972:	f851 7f04 	ldr.w	r7, [r1, #4]!
20004976:	4686      	mov	lr, r0
20004978:	ea4f 5cd5 	mov.w	ip, r5, lsr #23
2000497c:	0268      	lsls	r0, r5, #9
2000497e:	f501 5a40 	add.w	sl, r1, #12288	@ 0x3000
20004982:	f04f 0800 	mov.w	r8, #0
20004986:	4603      	mov	r3, r0
20004988:	4662      	mov	r2, ip
2000498a:	4027      	ands	r7, r4
2000498c:	f8ca 9000 	str.w	r9, [sl]
20004990:	e007      	b.n	200049a2 <spi_set_baudrate+0x46>
20004992:	181b      	adds	r3, r3, r0
20004994:	f104 0402 	add.w	r4, r4, #2
20004998:	eb42 020c 	adc.w	r2, r2, ip
2000499c:	f5b4 7f80 	cmp.w	r4, #256	@ 0x100
200049a0:	d003      	beq.n	200049aa <spi_set_baudrate+0x4e>
200049a2:	459e      	cmp	lr, r3
200049a4:	eb78 0902 	sbcs.w	r9, r8, r2
200049a8:	d2f3      	bcs.n	20004992 <spi_set_baudrate+0x36>
200049aa:	f44f 7380 	mov.w	r3, #256	@ 0x100
200049ae:	ebc4 2204 	rsb	r2, r4, r4, lsl #8
200049b2:	e001      	b.n	200049b8 <spi_set_baudrate+0x5c>
200049b4:	2b01      	cmp	r3, #1
200049b6:	d01a      	beq.n	200049ee <spi_set_baudrate+0x92>
200049b8:	fbbe fcf2 	udiv	ip, lr, r2
200049bc:	45ac      	cmp	ip, r5
200049be:	4618      	mov	r0, r3
200049c0:	eba2 0204 	sub.w	r2, r2, r4
200049c4:	f103 33ff 	add.w	r3, r3, #4294967295
200049c8:	d9f4      	bls.n	200049b4 <spi_set_baudrate+0x58>
200049ca:	fb04 f000 	mul.w	r0, r4, r0
200049ce:	021b      	lsls	r3, r3, #8
200049d0:	6134      	str	r4, [r6, #16]
200049d2:	6832      	ldr	r2, [r6, #0]
200049d4:	f501 5100 	add.w	r1, r1, #8192	@ 0x2000
200049d8:	4053      	eors	r3, r2
200049da:	f403 437f 	and.w	r3, r3, #65280	@ 0xff00
200049de:	f506 5680 	add.w	r6, r6, #4096	@ 0x1000
200049e2:	6033      	str	r3, [r6, #0]
200049e4:	fbbe f0f0 	udiv	r0, lr, r0
200049e8:	600f      	str	r7, [r1, #0]
200049ea:	e8bd 87f0 	ldmia.w	sp!, {r4, r5, r6, r7, r8, r9, sl, pc}
200049ee:	4620      	mov	r0, r4
200049f0:	2300      	movs	r3, #0
200049f2:	e7ed      	b.n	200049d0 <spi_set_baudrate+0x74>

200049f4 <dcd_init>:
200049f4:	b570      	push	{r4, r5, r6, lr}
200049f6:	f000 f92d 	bl	20004c54 <rp2040_usb_init>
200049fa:	230c      	movs	r3, #12
200049fc:	2640      	movs	r6, #64	@ 0x40
200049fe:	4c19      	ldr	r4, [pc, #100]	@ (20004a64 <dcd_init+0x70>)
20004a00:	22ff      	movs	r2, #255	@ 0xff
20004a02:	67a3      	str	r3, [r4, #120]	@ 0x78
20004a04:	200e      	movs	r0, #14
20004a06:	4918      	ldr	r1, [pc, #96]	@ (20004a68 <dcd_init+0x74>)
20004a08:	f7fd ffba 	bl	20002980 <irq_add_shared_handler>
20004a0c:	4632      	mov	r2, r6
20004a0e:	2100      	movs	r1, #0
20004a10:	4816      	ldr	r0, [pc, #88]	@ (20004a6c <dcd_init+0x78>)
20004a12:	f004 fdb3 	bl	2000957c <memset>
20004a16:	2501      	movs	r5, #1
20004a18:	2300      	movs	r3, #0
20004a1a:	2180      	movs	r1, #128	@ 0x80
20004a1c:	4813      	ldr	r0, [pc, #76]	@ (20004a6c <dcd_init+0x78>)
20004a1e:	4a14      	ldr	r2, [pc, #80]	@ (20004a70 <dcd_init+0x7c>)
20004a20:	8441      	strh	r1, [r0, #34]	@ 0x22
20004a22:	7045      	strb	r5, [r0, #1]
20004a24:	8306      	strh	r6, [r0, #24]
20004a26:	8706      	strh	r6, [r0, #56]	@ 0x38
20004a28:	6082      	str	r2, [r0, #8]
20004a2a:	6043      	str	r3, [r0, #4]
20004a2c:	6013      	str	r3, [r2, #0]
20004a2e:	f842 3c04 	str.w	r3, [r2, #-4]
20004a32:	f880 3021 	strb.w	r3, [r0, #33]	@ 0x21
20004a36:	f880 303b 	strb.w	r3, [r0, #59]	@ 0x3b
20004a3a:	6243      	str	r3, [r0, #36]	@ 0x24
20004a3c:	4b0d      	ldr	r3, [pc, #52]	@ (20004a74 <dcd_init+0x80>)
20004a3e:	f04f 5600 	mov.w	r6, #536870912	@ 0x20000000
20004a42:	60c3      	str	r3, [r0, #12]
20004a44:	62c3      	str	r3, [r0, #44]	@ 0x2c
20004a46:	3b80      	subs	r3, #128	@ 0x80
20004a48:	6283      	str	r3, [r0, #40]	@ 0x28
20004a4a:	f009 f919 	bl	2000dc80 <reset_non_control_endpoints>
20004a4e:	f44f 3280 	mov.w	r2, #65536	@ 0x10000
20004a52:	4909      	ldr	r1, [pc, #36]	@ (20004a78 <dcd_init+0x84>)
20004a54:	4b09      	ldr	r3, [pc, #36]	@ (20004a7c <dcd_init+0x88>)
20004a56:	6425      	str	r5, [r4, #64]	@ 0x40
20004a58:	4628      	mov	r0, r5
20004a5a:	64e6      	str	r6, [r4, #76]	@ 0x4c
20004a5c:	f8c4 1090 	str.w	r1, [r4, #144]	@ 0x90
20004a60:	64da      	str	r2, [r3, #76]	@ 0x4c
20004a62:	bd70      	pop	{r4, r5, r6, pc}
20004a64:	50110000 	.word	0x50110000
20004a68:	2000dd75 	.word	0x2000dd75
20004a6c:	2005a30c 	.word	0x2005a30c
20004a70:	50100084 	.word	0x50100084
20004a74:	50100100 	.word	0x50100100
20004a78:	0001d010 	.word	0x0001d010
20004a7c:	50112000 	.word	0x50112000

20004a80 <dcd_int_enable>:
20004a80:	2101      	movs	r1, #1
20004a82:	200e      	movs	r0, #14
20004a84:	f7fd bf26 	b.w	200028d4 <irq_set_enabled>

20004a88 <dcd_set_address>:
20004a88:	2200      	movs	r2, #0
20004a8a:	4802      	ldr	r0, [pc, #8]	@ (20004a94 <dcd_set_address+0xc>)
20004a8c:	4611      	mov	r1, r2
20004a8e:	f000 b901 	b.w	20004c94 <hw_endpoint_xfer_start>
20004a92:	bf00      	nop
20004a94:	2005a32c 	.word	0x2005a32c

20004a98 <dcd_sof_enable>:
20004a98:	4b04      	ldr	r3, [pc, #16]	@ (20004aac <dcd_sof_enable+0x14>)
20004a9a:	7019      	strb	r1, [r3, #0]
20004a9c:	b121      	cbz	r1, 20004aa8 <dcd_sof_enable+0x10>
20004a9e:	f44f 3200 	mov.w	r2, #131072	@ 0x20000
20004aa2:	4b03      	ldr	r3, [pc, #12]	@ (20004ab0 <dcd_sof_enable+0x18>)
20004aa4:	f8c3 2090 	str.w	r2, [r3, #144]	@ 0x90
20004aa8:	4770      	bx	lr
20004aaa:	bf00      	nop
20004aac:	2005afc7 	.word	0x2005afc7
20004ab0:	50112000 	.word	0x50112000

20004ab4 <dcd_edpt0_status_complete>:
20004ab4:	780b      	ldrb	r3, [r1, #0]
20004ab6:	065b      	lsls	r3, r3, #25
20004ab8:	d102      	bne.n	20004ac0 <dcd_edpt0_status_complete+0xc>
20004aba:	784b      	ldrb	r3, [r1, #1]
20004abc:	2b05      	cmp	r3, #5
20004abe:	d000      	beq.n	20004ac2 <dcd_edpt0_status_complete+0xe>
20004ac0:	4770      	bx	lr
20004ac2:	884b      	ldrh	r3, [r1, #2]
20004ac4:	4a01      	ldr	r2, [pc, #4]	@ (20004acc <dcd_edpt0_status_complete+0x18>)
20004ac6:	b2db      	uxtb	r3, r3
20004ac8:	6013      	str	r3, [r2, #0]
20004aca:	4770      	bx	lr
20004acc:	50110000 	.word	0x50110000

20004ad0 <dcd_edpt_open>:
20004ad0:	78cb      	ldrb	r3, [r1, #3]
20004ad2:	e92d 41f0 	stmdb	sp!, {r4, r5, r6, r7, r8, lr}
20004ad6:	f003 0e03 	and.w	lr, r3, #3
20004ada:	f1be 0f01 	cmp.w	lr, #1
20004ade:	f3c3 0001 	ubfx	r0, r3, #0, #2
20004ae2:	d05b      	beq.n	20004b9c <dcd_edpt_open+0xcc>
20004ae4:	2700      	movs	r7, #0
20004ae6:	f891 c002 	ldrb.w	ip, [r1, #2]
20004aea:	4c34      	ldr	r4, [pc, #208]	@ (20004bbc <dcd_edpt_open+0xec>)
20004aec:	f00c 027f 	and.w	r2, ip, #127	@ 0x7f
20004af0:	0056      	lsls	r6, r2, #1
20004af2:	8889      	ldrh	r1, [r1, #4]
20004af4:	eb06 13dc 	add.w	r3, r6, ip, lsr #7
20004af8:	eb04 1343 	add.w	r3, r4, r3, lsl #5
20004afc:	ea4f 15dc 	mov.w	r5, ip, lsr #7
20004b00:	76d8      	strb	r0, [r3, #27]
20004b02:	f3c1 010a 	ubfx	r1, r1, #0, #11
20004b06:	f085 0001 	eor.w	r0, r5, #1
20004b0a:	f883 c002 	strb.w	ip, [r3, #2]
20004b0e:	8319      	strh	r1, [r3, #24]
20004b10:	7058      	strb	r0, [r3, #1]
20004b12:	70df      	strb	r7, [r3, #3]
20004b14:	00d3      	lsls	r3, r2, #3
20004b16:	bb8d      	cbnz	r5, 20004b7c <dcd_edpt_open+0xac>
20004b18:	4829      	ldr	r0, [pc, #164]	@ (20004bc0 <dcd_edpt_open+0xf0>)
20004b1a:	3304      	adds	r3, #4
20004b1c:	eb04 1c82 	add.w	ip, r4, r2, lsl #6
20004b20:	eb03 0800 	add.w	r8, r3, r0
20004b24:	f8cc 8008 	str.w	r8, [ip, #8]
20004b28:	501f      	str	r7, [r3, r0]
20004b2a:	b382      	cbz	r2, 20004b8e <dcd_edpt_open+0xbe>
20004b2c:	4b25      	ldr	r3, [pc, #148]	@ (20004bc4 <dcd_edpt_open+0xf4>)
20004b2e:	00d2      	lsls	r2, r2, #3
20004b30:	4413      	add	r3, r2
20004b32:	f8cc 3004 	str.w	r3, [ip, #4]
20004b36:	4b24      	ldr	r3, [pc, #144]	@ (20004bc8 <dcd_edpt_open+0xf8>)
20004b38:	313f      	adds	r1, #63	@ 0x3f
20004b3a:	681a      	ldr	r2, [r3, #0]
20004b3c:	f021 013f 	bic.w	r1, r1, #63	@ 0x3f
20004b40:	f1be 0f02 	cmp.w	lr, #2
20004b44:	bf08      	it	eq
20004b46:	0049      	lsleq	r1, r1, #1
20004b48:	4411      	add	r1, r2
20004b4a:	6019      	str	r1, [r3, #0]
20004b4c:	4b1f      	ldr	r3, [pc, #124]	@ (20004bcc <dcd_edpt_open+0xfc>)
20004b4e:	1977      	adds	r7, r6, r5
20004b50:	eb04 1747 	add.w	r7, r4, r7, lsl #5
20004b54:	4299      	cmp	r1, r3
20004b56:	60fa      	str	r2, [r7, #12]
20004b58:	d82b      	bhi.n	20004bb2 <dcd_edpt_open+0xe2>
20004b5a:	442e      	add	r6, r5
20004b5c:	eb04 1346 	add.w	r3, r4, r6, lsl #5
20004b60:	7ed9      	ldrb	r1, [r3, #27]
20004b62:	f082 42a0 	eor.w	r2, r2, #1342177280	@ 0x50000000
20004b66:	f482 1280 	eor.w	r2, r2, #1048576	@ 0x100000
20004b6a:	685b      	ldr	r3, [r3, #4]
20004b6c:	ea42 6281 	orr.w	r2, r2, r1, lsl #26
20004b70:	f042 4200 	orr.w	r2, r2, #2147483648	@ 0x80000000
20004b74:	601a      	str	r2, [r3, #0]
20004b76:	2001      	movs	r0, #1
20004b78:	e8bd 81f0 	ldmia.w	sp!, {r4, r5, r6, r7, r8, pc}
20004b7c:	4810      	ldr	r0, [pc, #64]	@ (20004bc0 <dcd_edpt_open+0xf0>)
20004b7e:	eb04 1c82 	add.w	ip, r4, r2, lsl #6
20004b82:	4403      	add	r3, r0
20004b84:	f8cc 3028 	str.w	r3, [ip, #40]	@ 0x28
20004b88:	f840 7032 	str.w	r7, [r0, r2, lsl #3]
20004b8c:	b94a      	cbnz	r2, 20004ba2 <dcd_edpt_open+0xd2>
20004b8e:	2200      	movs	r2, #0
20004b90:	490f      	ldr	r1, [pc, #60]	@ (20004bd0 <dcd_edpt_open+0x100>)
20004b92:	eb04 1345 	add.w	r3, r4, r5, lsl #5
20004b96:	60d9      	str	r1, [r3, #12]
20004b98:	605a      	str	r2, [r3, #4]
20004b9a:	e7ec      	b.n	20004b76 <dcd_edpt_open+0xa6>
20004b9c:	2000      	movs	r0, #0
20004b9e:	e8bd 81f0 	ldmia.w	sp!, {r4, r5, r6, r7, r8, pc}
20004ba2:	00d2      	lsls	r2, r2, #3
20004ba4:	f102 42a0 	add.w	r2, r2, #1342177280	@ 0x50000000
20004ba8:	f502 1280 	add.w	r2, r2, #1048576	@ 0x100000
20004bac:	f8cc 2024 	str.w	r2, [ip, #36]	@ 0x24
20004bb0:	e7c1      	b.n	20004b36 <dcd_edpt_open+0x66>
20004bb2:	f7ff f96b 	bl	20003e8c <hard_assertion_failure>
20004bb6:	68fa      	ldr	r2, [r7, #12]
20004bb8:	e7cf      	b.n	20004b5a <dcd_edpt_open+0x8a>
20004bba:	bf00      	nop
20004bbc:	2005a30c 	.word	0x2005a30c
20004bc0:	50100080 	.word	0x50100080
20004bc4:	50100004 	.word	0x50100004
20004bc8:	2005a730 	.word	0x2005a730
20004bcc:	50100fff 	.word	0x50100fff
20004bd0:	50100100 	.word	0x50100100

20004bd4 <dcd_edpt_close_all>:
20004bd4:	f009 b854 	b.w	2000dc80 <reset_non_control_endpoints>

20004bd8 <dcd_edpt_xfer>:
20004bd8:	468c      	mov	ip, r1
20004bda:	b508      	push	{r3, lr}
20004bdc:	4611      	mov	r1, r2
20004bde:	4807      	ldr	r0, [pc, #28]	@ (20004bfc <dcd_edpt_xfer+0x24>)
20004be0:	461a      	mov	r2, r3
20004be2:	f00c 037f 	and.w	r3, ip, #127	@ 0x7f
20004be6:	ea4f 1cdc 	mov.w	ip, ip, lsr #7
20004bea:	eb0c 0c43 	add.w	ip, ip, r3, lsl #1
20004bee:	eb00 104c 	add.w	r0, r0, ip, lsl #5
20004bf2:	f000 f84f 	bl	20004c94 <hw_endpoint_xfer_start>
20004bf6:	2001      	movs	r0, #1
20004bf8:	bd08      	pop	{r3, pc}
20004bfa:	bf00      	nop
20004bfc:	2005a30c 	.word	0x2005a30c

20004c00 <dcd_edpt_stall>:
20004c00:	f011 027f 	ands.w	r2, r1, #127	@ 0x7f
20004c04:	d105      	bne.n	20004c12 <dcd_edpt_stall+0x12>
20004c06:	2900      	cmp	r1, #0
20004c08:	bf0c      	ite	eq
20004c0a:	2002      	moveq	r0, #2
20004c0c:	2001      	movne	r0, #1
20004c0e:	4b06      	ldr	r3, [pc, #24]	@ (20004c28 <dcd_edpt_stall+0x28>)
20004c10:	6698      	str	r0, [r3, #104]	@ 0x68
20004c12:	09c9      	lsrs	r1, r1, #7
20004c14:	4b05      	ldr	r3, [pc, #20]	@ (20004c2c <dcd_edpt_stall+0x2c>)
20004c16:	eb01 0042 	add.w	r0, r1, r2, lsl #1
20004c1a:	eb03 1040 	add.w	r0, r3, r0, lsl #5
20004c1e:	f44f 6200 	mov.w	r2, #2048	@ 0x800
20004c22:	2100      	movs	r1, #0
20004c24:	f009 bc3c 	b.w	2000e4a0 <_hw_endpoint_buffer_control_update32>
20004c28:	50112000 	.word	0x50112000
20004c2c:	2005a30c 	.word	0x2005a30c

20004c30 <dcd_edpt_clear_stall>:
20004c30:	f011 037f 	ands.w	r3, r1, #127	@ 0x7f
20004c34:	d100      	bne.n	20004c38 <dcd_edpt_clear_stall+0x8>
20004c36:	4770      	bx	lr
20004c38:	2200      	movs	r2, #0
20004c3a:	4805      	ldr	r0, [pc, #20]	@ (20004c50 <dcd_edpt_clear_stall+0x20>)
20004c3c:	005b      	lsls	r3, r3, #1
20004c3e:	eb03 13d1 	add.w	r3, r3, r1, lsr #7
20004c42:	eb00 1043 	add.w	r0, r0, r3, lsl #5
20004c46:	f46f 6100 	mvn.w	r1, #2048	@ 0x800
20004c4a:	70c2      	strb	r2, [r0, #3]
20004c4c:	f009 bc28 	b.w	2000e4a0 <_hw_endpoint_buffer_control_update32>
20004c50:	2005a30c 	.word	0x2005a30c

20004c54 <rp2040_usb_init>:
20004c54:	f04f 5280 	mov.w	r2, #268435456	@ 0x10000000
20004c58:	4809      	ldr	r0, [pc, #36]	@ (20004c80 <rp2040_usb_init+0x2c>)
20004c5a:	490a      	ldr	r1, [pc, #40]	@ (20004c84 <rp2040_usb_init+0x30>)
20004c5c:	b508      	push	{r3, lr}
20004c5e:	4b0a      	ldr	r3, [pc, #40]	@ (20004c88 <rp2040_usb_init+0x34>)
20004c60:	6002      	str	r2, [r0, #0]
20004c62:	600a      	str	r2, [r1, #0]
20004c64:	6899      	ldr	r1, [r3, #8]
20004c66:	43c9      	mvns	r1, r1
20004c68:	f011 5180 	ands.w	r1, r1, #268435456	@ 0x10000000
20004c6c:	d1fa      	bne.n	20004c64 <rp2040_usb_init+0x10>
20004c6e:	f44f 5280 	mov.w	r2, #4096	@ 0x1000
20004c72:	4806      	ldr	r0, [pc, #24]	@ (20004c8c <rp2040_usb_init+0x38>)
20004c74:	f004 fc82 	bl	2000957c <memset>
20004c78:	2209      	movs	r2, #9
20004c7a:	4b05      	ldr	r3, [pc, #20]	@ (20004c90 <rp2040_usb_init+0x3c>)
20004c7c:	675a      	str	r2, [r3, #116]	@ 0x74
20004c7e:	bd08      	pop	{r3, pc}
20004c80:	40022000 	.word	0x40022000
20004c84:	40023000 	.word	0x40023000
20004c88:	40020000 	.word	0x40020000
20004c8c:	50100000 	.word	0x50100000
20004c90:	50110000 	.word	0x50110000

20004c94 <hw_endpoint_xfer_start>:
20004c94:	2300      	movs	r3, #0
20004c96:	f04f 0c01 	mov.w	ip, #1
20004c9a:	b510      	push	{r4, lr}
20004c9c:	f880 c01a 	strb.w	ip, [r0, #26]
20004ca0:	8282      	strh	r2, [r0, #20]
20004ca2:	82c3      	strh	r3, [r0, #22]
20004ca4:	6101      	str	r1, [r0, #16]
20004ca6:	4604      	mov	r4, r0
20004ca8:	f009 fbcc 	bl	2000e444 <e15_is_bulkin_ep>
20004cac:	b120      	cbz	r0, 20004cb8 <hw_endpoint_xfer_start+0x24>
20004cae:	f44f 3200 	mov.w	r2, #131072	@ 0x20000
20004cb2:	4b07      	ldr	r3, [pc, #28]	@ (20004cd0 <hw_endpoint_xfer_start+0x3c>)
20004cb4:	f8c3 2090 	str.w	r2, [r3, #144]	@ 0x90
20004cb8:	4620      	mov	r0, r4
20004cba:	f009 fbd7 	bl	2000e46c <e15_is_critical_frame_period>
20004cbe:	b110      	cbz	r0, 20004cc6 <hw_endpoint_xfer_start+0x32>
20004cc0:	2301      	movs	r3, #1
20004cc2:	7723      	strb	r3, [r4, #28]
20004cc4:	bd10      	pop	{r4, pc}
20004cc6:	4620      	mov	r0, r4
20004cc8:	e8bd 4010 	ldmia.w	sp!, {r4, lr}
20004ccc:	f009 bc0a 	b.w	2000e4e4 <hw_endpoint_start_next_buffer>
20004cd0:	50112000 	.word	0x50112000

20004cd4 <tud_vendor_control_xfer_cb>:
20004cd4:	2000      	movs	r0, #0
20004cd6:	4770      	bx	lr

20004cd8 <configuration_reset>:
20004cd8:	e92d 41f0 	stmdb	sp!, {r4, r5, r6, r7, r8, lr}
20004cdc:	f04f 0800 	mov.w	r8, #0
20004ce0:	4d1c      	ldr	r5, [pc, #112]	@ (20004d54 <configuration_reset+0x7c>)
20004ce2:	4604      	mov	r4, r0
20004ce4:	4642      	mov	r2, r8
20004ce6:	782b      	ldrb	r3, [r5, #0]
20004ce8:	4f1b      	ldr	r7, [pc, #108]	@ (20004d58 <configuration_reset+0x80>)
20004cea:	4e1c      	ldr	r6, [pc, #112]	@ (20004d5c <configuration_reset+0x84>)
20004cec:	e00d      	b.n	20004d0a <configuration_reset+0x32>
20004cee:	6833      	ldr	r3, [r6, #0]
20004cf0:	eb13 1342 	adds.w	r3, r3, r2, lsl #5
20004cf4:	d024      	beq.n	20004d40 <configuration_reset+0x68>
20004cf6:	68db      	ldr	r3, [r3, #12]
20004cf8:	4620      	mov	r0, r4
20004cfa:	4798      	blx	r3
20004cfc:	f108 0801 	add.w	r8, r8, #1
20004d00:	782b      	ldrb	r3, [r5, #0]
20004d02:	fa5f f288 	uxtb.w	r2, r8
20004d06:	4293      	cmp	r3, r2
20004d08:	d306      	bcc.n	20004d18 <configuration_reset+0x40>
20004d0a:	4293      	cmp	r3, r2
20004d0c:	eba2 0303 	sub.w	r3, r2, r3
20004d10:	d8ed      	bhi.n	20004cee <configuration_reset+0x16>
20004d12:	eb07 1343 	add.w	r3, r7, r3, lsl #5
20004d16:	e7ee      	b.n	20004cf6 <configuration_reset+0x1e>
20004d18:	2254      	movs	r2, #84	@ 0x54
20004d1a:	2100      	movs	r1, #0
20004d1c:	4810      	ldr	r0, [pc, #64]	@ (20004d60 <configuration_reset+0x88>)
20004d1e:	f004 fc2d 	bl	2000957c <memset>
20004d22:	f04f 33ff 	mov.w	r3, #4294967295
20004d26:	480e      	ldr	r0, [pc, #56]	@ (20004d60 <configuration_reset+0x88>)
20004d28:	2220      	movs	r2, #32
20004d2a:	1d04      	adds	r4, r0, #4
20004d2c:	6043      	str	r3, [r0, #4]
20004d2e:	e9c4 3301 	strd	r3, r3, [r4, #4]
20004d32:	60e3      	str	r3, [r4, #12]
20004d34:	21ff      	movs	r1, #255	@ 0xff
20004d36:	e8bd 41f0 	ldmia.w	sp!, {r4, r5, r6, r7, r8, lr}
20004d3a:	3014      	adds	r0, #20
20004d3c:	f004 bc1e 	b.w	2000957c <memset>
20004d40:	f04f 23e0 	mov.w	r3, #3758153728	@ 0xe000e000
20004d44:	f8d3 3df0 	ldr.w	r3, [r3, #3568]	@ 0xdf0
20004d48:	07db      	lsls	r3, r3, #31
20004d4a:	d500      	bpl.n	20004d4e <configuration_reset+0x76>
20004d4c:	be00      	bkpt	0x0000
20004d4e:	e8bd 81f0 	ldmia.w	sp!, {r4, r5, r6, r7, r8, pc}
20004d52:	bf00      	nop
20004d54:	2005afc6 	.word	0x2005afc6
20004d58:	2000f3d8 	.word	0x2000f3d8
20004d5c:	20010954 	.word	0x20010954
20004d60:	20011264 	.word	0x20011264

20004d64 <tud_event_hook_cb>:
20004d64:	4770      	bx	lr
20004d66:	bf00      	nop

20004d68 <tud_sof_cb>:
20004d68:	4770      	bx	lr
20004d6a:	bf00      	nop

20004d6c <tud_descriptor_bos_cb>:
20004d6c:	2000      	movs	r0, #0
20004d6e:	4770      	bx	lr

20004d70 <tud_descriptor_device_qualifier_cb>:
20004d70:	2000      	movs	r0, #0
20004d72:	4770      	bx	lr

20004d74 <tud_descriptor_other_speed_configuration_cb>:
20004d74:	2000      	movs	r0, #0
20004d76:	4770      	bx	lr

20004d78 <tud_mount_cb>:
20004d78:	4770      	bx	lr
20004d7a:	bf00      	nop

20004d7c <tud_umount_cb>:
20004d7c:	4770      	bx	lr
20004d7e:	bf00      	nop

20004d80 <tud_suspend_cb>:
20004d80:	4770      	bx	lr
20004d82:	bf00      	nop

20004d84 <tud_resume_cb>:
20004d84:	4770      	bx	lr
20004d86:	bf00      	nop

20004d88 <tud_mounted>:
20004d88:	4b02      	ldr	r3, [pc, #8]	@ (20004d94 <tud_mounted+0xc>)
20004d8a:	7858      	ldrb	r0, [r3, #1]
20004d8c:	3800      	subs	r0, #0
20004d8e:	bf18      	it	ne
20004d90:	2001      	movne	r0, #1
20004d92:	4770      	bx	lr
20004d94:	20011264 	.word	0x20011264

20004d98 <tud_suspended>:
20004d98:	4b02      	ldr	r3, [pc, #8]	@ (20004da4 <tud_suspended+0xc>)
20004d9a:	7818      	ldrb	r0, [r3, #0]
20004d9c:	f3c0 0080 	ubfx	r0, r0, #2, #1
20004da0:	4770      	bx	lr
20004da2:	bf00      	nop
20004da4:	20011264 	.word	0x20011264

20004da8 <tud_rhport_init>:
20004da8:	e92d 47f0 	stmdb	sp!, {r4, r5, r6, r7, r8, r9, sl, lr}
20004dac:	f8df 90e4 	ldr.w	r9, [pc, #228]	@ 20004e94 <tud_rhport_init+0xec>
20004db0:	f899 3000 	ldrb.w	r3, [r9]
20004db4:	2bff      	cmp	r3, #255	@ 0xff
20004db6:	d155      	bne.n	20004e64 <tud_rhport_init+0xbc>
20004db8:	460d      	mov	r5, r1
20004dba:	2900      	cmp	r1, #0
20004dbc:	d03d      	beq.n	20004e3a <tud_rhport_init+0x92>
20004dbe:	2100      	movs	r1, #0
20004dc0:	2254      	movs	r2, #84	@ 0x54
20004dc2:	4606      	mov	r6, r0
20004dc4:	4829      	ldr	r0, [pc, #164]	@ (20004e6c <tud_rhport_init+0xc4>)
20004dc6:	f004 fbd9 	bl	2000957c <memset>
20004dca:	2200      	movs	r2, #0
20004dcc:	4c28      	ldr	r4, [pc, #160]	@ (20004e70 <tud_rhport_init+0xc8>)
20004dce:	4b29      	ldr	r3, [pc, #164]	@ (20004e74 <tud_rhport_init+0xcc>)
20004dd0:	4620      	mov	r0, r4
20004dd2:	701a      	strb	r2, [r3, #0]
20004dd4:	f7fe f84c 	bl	20002e70 <mutex_init>
20004dd8:	4b27      	ldr	r3, [pc, #156]	@ (20004e78 <tud_rhport_init+0xd0>)
20004dda:	4828      	ldr	r0, [pc, #160]	@ (20004e7c <tud_rhport_init+0xd4>)
20004ddc:	601c      	str	r4, [r3, #0]
20004dde:	4c28      	ldr	r4, [pc, #160]	@ (20004e80 <tud_rhport_init+0xd8>)
20004de0:	f7fe f854 	bl	20002e8c <critical_section_init>
20004de4:	4620      	mov	r0, r4
20004de6:	f001 fb95 	bl	20006514 <tu_fifo_clear>
20004dea:	4a26      	ldr	r2, [pc, #152]	@ (20004e84 <tud_rhport_init+0xdc>)
20004dec:	4b26      	ldr	r3, [pc, #152]	@ (20004e88 <tud_rhport_init+0xe0>)
20004dee:	6014      	str	r4, [r2, #0]
20004df0:	b123      	cbz	r3, 20004dfc <tud_rhport_init+0x54>
20004df2:	4826      	ldr	r0, [pc, #152]	@ (20004e8c <tud_rhport_init+0xe4>)
20004df4:	f3af 8000 	nop.w
20004df8:	4b25      	ldr	r3, [pc, #148]	@ (20004e90 <tud_rhport_init+0xe8>)
20004dfa:	6018      	str	r0, [r3, #0]
20004dfc:	f04f 0a00 	mov.w	sl, #0
20004e00:	4c22      	ldr	r4, [pc, #136]	@ (20004e8c <tud_rhport_init+0xe4>)
20004e02:	4653      	mov	r3, sl
20004e04:	7822      	ldrb	r2, [r4, #0]
20004e06:	f8df 8090 	ldr.w	r8, [pc, #144]	@ 20004e98 <tud_rhport_init+0xf0>
20004e0a:	4f21      	ldr	r7, [pc, #132]	@ (20004e90 <tud_rhport_init+0xe8>)
20004e0c:	e00d      	b.n	20004e2a <tud_rhport_init+0x82>
20004e0e:	683a      	ldr	r2, [r7, #0]
20004e10:	eb12 1343 	adds.w	r3, r2, r3, lsl #5
20004e14:	d011      	beq.n	20004e3a <tud_rhport_init+0x92>
20004e16:	685b      	ldr	r3, [r3, #4]
20004e18:	b17b      	cbz	r3, 20004e3a <tud_rhport_init+0x92>
20004e1a:	4798      	blx	r3
20004e1c:	f10a 0a01 	add.w	sl, sl, #1
20004e20:	7822      	ldrb	r2, [r4, #0]
20004e22:	fa5f f38a 	uxtb.w	r3, sl
20004e26:	4293      	cmp	r3, r2
20004e28:	d811      	bhi.n	20004e4e <tud_rhport_init+0xa6>
20004e2a:	4293      	cmp	r3, r2
20004e2c:	d3ef      	bcc.n	20004e0e <tud_rhport_init+0x66>
20004e2e:	1a9b      	subs	r3, r3, r2
20004e30:	eb08 1343 	add.w	r3, r8, r3, lsl #5
20004e34:	685b      	ldr	r3, [r3, #4]
20004e36:	2b00      	cmp	r3, #0
20004e38:	d1ef      	bne.n	20004e1a <tud_rhport_init+0x72>
20004e3a:	f04f 23e0 	mov.w	r3, #3758153728	@ 0xe000e000
20004e3e:	f8d3 3df0 	ldr.w	r3, [r3, #3568]	@ 0xdf0
20004e42:	07db      	lsls	r3, r3, #31
20004e44:	d500      	bpl.n	20004e48 <tud_rhport_init+0xa0>
20004e46:	be00      	bkpt	0x0000
20004e48:	2000      	movs	r0, #0
20004e4a:	e8bd 87f0 	ldmia.w	sp!, {r4, r5, r6, r7, r8, r9, sl, pc}
20004e4e:	4629      	mov	r1, r5
20004e50:	4630      	mov	r0, r6
20004e52:	f889 6000 	strb.w	r6, [r9]
20004e56:	f7ff fdcd 	bl	200049f4 <dcd_init>
20004e5a:	2800      	cmp	r0, #0
20004e5c:	d0ed      	beq.n	20004e3a <tud_rhport_init+0x92>
20004e5e:	4630      	mov	r0, r6
20004e60:	f7ff fe0e 	bl	20004a80 <dcd_int_enable>
20004e64:	2001      	movs	r0, #1
20004e66:	e8bd 87f0 	ldmia.w	sp!, {r4, r5, r6, r7, r8, r9, sl, pc}
20004e6a:	bf00      	nop
20004e6c:	20011264 	.word	0x20011264
20004e70:	2001125c 	.word	0x2001125c
20004e74:	2005afc8 	.word	0x2005afc8
20004e78:	200112b8 	.word	0x200112b8
20004e7c:	2000f940 	.word	0x2000f940
20004e80:	2000f92c 	.word	0x2000f92c
20004e84:	200112bc 	.word	0x200112bc
20004e88:	00000000 	.word	0x00000000
20004e8c:	2005afc6 	.word	0x2005afc6
20004e90:	20010954 	.word	0x20010954
20004e94:	2000f948 	.word	0x2000f948
20004e98:	2000f3d8 	.word	0x2000f3d8

20004e9c <tud_task_ext>:
20004e9c:	e92d 4ff0 	stmdb	sp!, {r4, r5, r6, r7, r8, r9, sl, fp, lr}
20004ea0:	f8df 92b0 	ldr.w	r9, [pc, #688]	@ 20005154 <tud_task_ext+0x2b8>
20004ea4:	b08b      	sub	sp, #44	@ 0x2c
20004ea6:	f899 3000 	ldrb.w	r3, [r9]
20004eaa:	2bff      	cmp	r3, #255	@ 0xff
20004eac:	f000 80ed 	beq.w	2000508a <tud_task_ext+0x1ee>
20004eb0:	4ca2      	ldr	r4, [pc, #648]	@ (2000513c <tud_task_ext+0x2a0>)
20004eb2:	4da3      	ldr	r5, [pc, #652]	@ (20005140 <tud_task_ext+0x2a4>)
20004eb4:	f8df a298 	ldr.w	sl, [pc, #664]	@ 20005150 <tud_task_ext+0x2b4>
20004eb8:	f8df b29c 	ldr.w	fp, [pc, #668]	@ 20005158 <tud_task_ext+0x2bc>
20004ebc:	6826      	ldr	r6, [r4, #0]
20004ebe:	6973      	ldr	r3, [r6, #20]
20004ec0:	f3ef 8210 	mrs	r2, PRIMASK
20004ec4:	b672      	cpsid	i
20004ec6:	e8d3 0fcf 	ldaexb	r0, [r3]
20004eca:	2101      	movs	r1, #1
20004ecc:	2800      	cmp	r0, #0
20004ece:	d1fa      	bne.n	20004ec6 <tud_task_ext+0x2a>
20004ed0:	e8c3 1f40 	strexb	r0, r1, [r3]
20004ed4:	2800      	cmp	r0, #0
20004ed6:	d1f6      	bne.n	20004ec6 <tud_task_ext+0x2a>
20004ed8:	f3bf 8f5f 	dmb	sy
20004edc:	61b2      	str	r2, [r6, #24]
20004ede:	4630      	mov	r0, r6
20004ee0:	a907      	add	r1, sp, #28
20004ee2:	f001 f961 	bl	200061a8 <tu_fifo_read>
20004ee6:	2300      	movs	r3, #0
20004ee8:	6972      	ldr	r2, [r6, #20]
20004eea:	e8c2 3f8f 	stlb	r3, [r2]
20004eee:	69b3      	ldr	r3, [r6, #24]
20004ef0:	f383 8810 	msr	PRIMASK, r3
20004ef4:	2800      	cmp	r0, #0
20004ef6:	f000 80c8 	beq.w	2000508a <tud_task_ext+0x1ee>
20004efa:	f89d 301d 	ldrb.w	r3, [sp, #29]
20004efe:	3b01      	subs	r3, #1
20004f00:	2b07      	cmp	r3, #7
20004f02:	f200 836b 	bhi.w	200055dc <tud_task_ext+0x740>
20004f06:	e8df f003 	tbb	[pc, r3]
20004f0a:	afa5      	.short	0xafa5
20004f0c:	358c9b93 	.word	0x358c9b93
20004f10:	040a      	.short	0x040a
20004f12:	9b08      	ldr	r3, [sp, #32]
20004f14:	2b00      	cmp	r3, #0
20004f16:	d0d1      	beq.n	20004ebc <tud_task_ext+0x20>
20004f18:	9809      	ldr	r0, [sp, #36]	@ 0x24
20004f1a:	4798      	blx	r3
20004f1c:	e7ce      	b.n	20004ebc <tud_task_ext+0x20>
20004f1e:	f89d 1020 	ldrb.w	r1, [sp, #32]
20004f22:	f001 067f 	and.w	r6, r1, #127	@ 0x7f
20004f26:	eb05 0046 	add.w	r0, r5, r6, lsl #1
20004f2a:	eb00 10d1 	add.w	r0, r0, r1, lsr #7
20004f2e:	f890 3034 	ldrb.w	r3, [r0, #52]	@ 0x34
20004f32:	f023 0301 	bic.w	r3, r3, #1
20004f36:	f880 3034 	strb.w	r3, [r0, #52]	@ 0x34
20004f3a:	f890 3034 	ldrb.w	r3, [r0, #52]	@ 0x34
20004f3e:	f023 0304 	bic.w	r3, r3, #4
20004f42:	f880 3034 	strb.w	r3, [r0, #52]	@ 0x34
20004f46:	2e00      	cmp	r6, #0
20004f48:	f000 80a2 	beq.w	20005090 <tud_task_ext+0x1f4>
20004f4c:	7d02      	ldrb	r2, [r0, #20]
20004f4e:	f89a 3000 	ldrb.w	r3, [sl]
20004f52:	429a      	cmp	r2, r3
20004f54:	f080 8091 	bcs.w	2000507a <tud_task_ext+0x1de>
20004f58:	4b7a      	ldr	r3, [pc, #488]	@ (20005144 <tud_task_ext+0x2a8>)
20004f5a:	681b      	ldr	r3, [r3, #0]
20004f5c:	eb13 1342 	adds.w	r3, r3, r2, lsl #5
20004f60:	f000 808c 	beq.w	2000507c <tud_task_ext+0x1e0>
20004f64:	699e      	ldr	r6, [r3, #24]
20004f66:	f89d 2021 	ldrb.w	r2, [sp, #33]	@ 0x21
20004f6a:	9b09      	ldr	r3, [sp, #36]	@ 0x24
20004f6c:	f89d 001c 	ldrb.w	r0, [sp, #28]
20004f70:	47b0      	blx	r6
20004f72:	e7a3      	b.n	20004ebc <tud_task_ext+0x20>
20004f74:	f89b 3000 	ldrb.w	r3, [fp]
20004f78:	2b00      	cmp	r3, #0
20004f7a:	d07f      	beq.n	2000507c <tud_task_ext+0x1e0>
20004f7c:	f89b 3000 	ldrb.w	r3, [fp]
20004f80:	3b01      	subs	r3, #1
20004f82:	b2db      	uxtb	r3, r3
20004f84:	f88b 3000 	strb.w	r3, [fp]
20004f88:	f89b 3000 	ldrb.w	r3, [fp]
20004f8c:	f003 00ff 	and.w	r0, r3, #255	@ 0xff
20004f90:	2b00      	cmp	r3, #0
20004f92:	d193      	bne.n	20004ebc <tud_task_ext+0x20>
20004f94:	4f6a      	ldr	r7, [pc, #424]	@ (20005140 <tud_task_ext+0x2a4>)
20004f96:	f89d 801c 	ldrb.w	r8, [sp, #28]
20004f9a:	783b      	ldrb	r3, [r7, #0]
20004f9c:	f043 0301 	orr.w	r3, r3, #1
20004fa0:	703b      	strb	r3, [r7, #0]
20004fa2:	f897 3034 	ldrb.w	r3, [r7, #52]	@ 0x34
20004fa6:	f360 0300 	bfi	r3, r0, #0, #1
20004faa:	f887 3034 	strb.w	r3, [r7, #52]	@ 0x34
20004fae:	f897 3034 	ldrb.w	r3, [r7, #52]	@ 0x34
20004fb2:	f360 0382 	bfi	r3, r0, #2, #1
20004fb6:	f887 3034 	strb.w	r3, [r7, #52]	@ 0x34
20004fba:	f897 3035 	ldrb.w	r3, [r7, #53]	@ 0x35
20004fbe:	f360 0300 	bfi	r3, r0, #0, #1
20004fc2:	f887 3035 	strb.w	r3, [r7, #53]	@ 0x35
20004fc6:	f897 3035 	ldrb.w	r3, [r7, #53]	@ 0x35
20004fca:	f360 0382 	bfi	r3, r0, #2, #1
20004fce:	f887 3035 	strb.w	r3, [r7, #53]	@ 0x35
20004fd2:	f000 fc5b 	bl	2000588c <usbd_control_set_complete_callback>
20004fd6:	f89d 3020 	ldrb.w	r3, [sp, #32]
20004fda:	f003 0260 	and.w	r2, r3, #96	@ 0x60
20004fde:	2a60      	cmp	r2, #96	@ 0x60
20004fe0:	d066      	beq.n	200050b0 <tud_task_ext+0x214>
20004fe2:	2a40      	cmp	r2, #64	@ 0x40
20004fe4:	d076      	beq.n	200050d4 <tud_task_ext+0x238>
20004fe6:	f003 031f 	and.w	r3, r3, #31
20004fea:	2b01      	cmp	r3, #1
20004fec:	f000 80b6 	beq.w	2000515c <tud_task_ext+0x2c0>
20004ff0:	2b02      	cmp	r3, #2
20004ff2:	d07b      	beq.n	200050ec <tud_task_ext+0x250>
20004ff4:	2b00      	cmp	r3, #0
20004ff6:	d15b      	bne.n	200050b0 <tud_task_ext+0x214>
20004ff8:	2a20      	cmp	r2, #32
20004ffa:	f000 81db 	beq.w	200053b4 <tud_task_ext+0x518>
20004ffe:	2a00      	cmp	r2, #0
20005000:	d156      	bne.n	200050b0 <tud_task_ext+0x214>
20005002:	f89d 3021 	ldrb.w	r3, [sp, #33]	@ 0x21
20005006:	2b09      	cmp	r3, #9
20005008:	d852      	bhi.n	200050b0 <tud_task_ext+0x214>
2000500a:	e8df f013 	tbh	[pc, r3, lsl #1]
2000500e:	01a2      	.short	0x01a2
20005010:	00510194 	.word	0x00510194
20005014:	005101b3 	.word	0x005101b3
20005018:	015d0187 	.word	0x015d0187
2000501c:	01520051 	.word	0x01520051
20005020:	00e5      	.short	0x00e5
20005022:	782b      	ldrb	r3, [r5, #0]
20005024:	07d9      	lsls	r1, r3, #31
20005026:	f57f af49 	bpl.w	20004ebc <tud_task_ext+0x20>
2000502a:	f7ff feab 	bl	20004d84 <tud_resume_cb>
2000502e:	e745      	b.n	20004ebc <tud_task_ext+0x20>
20005030:	78eb      	ldrb	r3, [r5, #3]
20005032:	07da      	lsls	r2, r3, #31
20005034:	f57f af42 	bpl.w	20004ebc <tud_task_ext+0x20>
20005038:	9808      	ldr	r0, [sp, #32]
2000503a:	f7ff fe95 	bl	20004d68 <tud_sof_cb>
2000503e:	e73d      	b.n	20004ebc <tud_task_ext+0x20>
20005040:	782b      	ldrb	r3, [r5, #0]
20005042:	07d8      	lsls	r0, r3, #31
20005044:	f57f af3a 	bpl.w	20004ebc <tud_task_ext+0x20>
20005048:	7828      	ldrb	r0, [r5, #0]
2000504a:	f3c0 00c0 	ubfx	r0, r0, #3, #1
2000504e:	f7ff fe97 	bl	20004d80 <tud_suspend_cb>
20005052:	e733      	b.n	20004ebc <tud_task_ext+0x20>
20005054:	f89d 001c 	ldrb.w	r0, [sp, #28]
20005058:	f7ff fe3e 	bl	20004cd8 <configuration_reset>
2000505c:	f000 fc0c 	bl	20005878 <usbd_control_reset>
20005060:	f89d 3020 	ldrb.w	r3, [sp, #32]
20005064:	70ab      	strb	r3, [r5, #2]
20005066:	e729      	b.n	20004ebc <tud_task_ext+0x20>
20005068:	f89d 001c 	ldrb.w	r0, [sp, #28]
2000506c:	f7ff fe34 	bl	20004cd8 <configuration_reset>
20005070:	f000 fc02 	bl	20005878 <usbd_control_reset>
20005074:	f7ff fe82 	bl	20004d7c <tud_umount_cb>
20005078:	e720      	b.n	20004ebc <tud_task_ext+0x20>
2000507a:	d011      	beq.n	200050a0 <tud_task_ext+0x204>
2000507c:	f04f 23e0 	mov.w	r3, #3758153728	@ 0xe000e000
20005080:	f8d3 3df0 	ldr.w	r3, [r3, #3568]	@ 0xdf0
20005084:	07dc      	lsls	r4, r3, #31
20005086:	d500      	bpl.n	2000508a <tud_task_ext+0x1ee>
20005088:	be00      	bkpt	0x0000
2000508a:	b00b      	add	sp, #44	@ 0x2c
2000508c:	e8bd 8ff0 	ldmia.w	sp!, {r4, r5, r6, r7, r8, r9, sl, fp, pc}
20005090:	9b09      	ldr	r3, [sp, #36]	@ 0x24
20005092:	f89d 2021 	ldrb.w	r2, [sp, #33]	@ 0x21
20005096:	f89d 001c 	ldrb.w	r0, [sp, #28]
2000509a:	f000 fc0b 	bl	200058b4 <usbd_control_xfer_cb>
2000509e:	e70d      	b.n	20004ebc <tud_task_ext+0x20>
200050a0:	4b29      	ldr	r3, [pc, #164]	@ (20005148 <tud_task_ext+0x2ac>)
200050a2:	e75f      	b.n	20004f64 <tud_task_ext+0xc8>
200050a4:	f7fd f948 	bl	20002338 <tud_descriptor_configuration_cb>
200050a8:	4602      	mov	r2, r0
200050aa:	2800      	cmp	r0, #0
200050ac:	f040 8179 	bne.w	200053a2 <tud_task_ext+0x506>
200050b0:	f04f 23e0 	mov.w	r3, #3758153728	@ 0xe000e000
200050b4:	f8d3 3df0 	ldr.w	r3, [r3, #3568]	@ 0xdf0
200050b8:	07de      	lsls	r6, r3, #31
200050ba:	d500      	bpl.n	200050be <tud_task_ext+0x222>
200050bc:	be00      	bkpt	0x0000
200050be:	f89d 001c 	ldrb.w	r0, [sp, #28]
200050c2:	2100      	movs	r1, #0
200050c4:	f7ff fd9c 	bl	20004c00 <dcd_edpt_stall>
200050c8:	2180      	movs	r1, #128	@ 0x80
200050ca:	f89d 001c 	ldrb.w	r0, [sp, #28]
200050ce:	f7ff fd97 	bl	20004c00 <dcd_edpt_stall>
200050d2:	e6f3      	b.n	20004ebc <tud_task_ext+0x20>
200050d4:	481d      	ldr	r0, [pc, #116]	@ (2000514c <tud_task_ext+0x2b0>)
200050d6:	f000 fbd9 	bl	2000588c <usbd_control_set_complete_callback>
200050da:	2101      	movs	r1, #1
200050dc:	4640      	mov	r0, r8
200050de:	aa08      	add	r2, sp, #32
200050e0:	f7ff fdf8 	bl	20004cd4 <tud_vendor_control_xfer_cb>
200050e4:	2800      	cmp	r0, #0
200050e6:	f47f aee9 	bne.w	20004ebc <tud_task_ext+0x20>
200050ea:	e7e8      	b.n	200050be <tud_task_ext+0x222>
200050ec:	f89d 1024 	ldrb.w	r1, [sp, #36]	@ 0x24
200050f0:	f011 0f70 	tst.w	r1, #112	@ 0x70
200050f4:	d1dc      	bne.n	200050b0 <tud_task_ext+0x214>
200050f6:	f001 067f 	and.w	r6, r1, #127	@ 0x7f
200050fa:	eb07 0046 	add.w	r0, r7, r6, lsl #1
200050fe:	4b14      	ldr	r3, [pc, #80]	@ (20005150 <tud_task_ext+0x2b4>)
20005100:	eb00 10d1 	add.w	r0, r0, r1, lsr #7
20005104:	781b      	ldrb	r3, [r3, #0]
20005106:	7d00      	ldrb	r0, [r0, #20]
20005108:	0076      	lsls	r6, r6, #1
2000510a:	9601      	str	r6, [sp, #4]
2000510c:	4298      	cmp	r0, r3
2000510e:	ea4f 16d1 	mov.w	r6, r1, lsr #7
20005112:	9600      	str	r6, [sp, #0]
20005114:	d34f      	bcc.n	200051b6 <tud_task_ext+0x31a>
20005116:	f040 815f 	bne.w	200053d8 <tud_task_ext+0x53c>
2000511a:	4e0b      	ldr	r6, [pc, #44]	@ (20005148 <tud_task_ext+0x2ac>)
2000511c:	2a00      	cmp	r2, #0
2000511e:	f000 815f 	beq.w	200053e0 <tud_task_ext+0x544>
20005122:	6970      	ldr	r0, [r6, #20]
20005124:	f000 fbb2 	bl	2000588c <usbd_control_set_complete_callback>
20005128:	2101      	movs	r1, #1
2000512a:	4640      	mov	r0, r8
2000512c:	6973      	ldr	r3, [r6, #20]
2000512e:	aa08      	add	r2, sp, #32
20005130:	4798      	blx	r3
20005132:	2800      	cmp	r0, #0
20005134:	f47f aec2 	bne.w	20004ebc <tud_task_ext+0x20>
20005138:	e7c1      	b.n	200050be <tud_task_ext+0x222>
2000513a:	bf00      	nop
2000513c:	200112bc 	.word	0x200112bc
20005140:	20011264 	.word	0x20011264
20005144:	20010954 	.word	0x20010954
20005148:	2000f3d8 	.word	0x2000f3d8
2000514c:	20004cd5 	.word	0x20004cd5
20005150:	2005afc6 	.word	0x2005afc6
20005154:	2000f948 	.word	0x2000f948
20005158:	2005afc8 	.word	0x2005afc8
2000515c:	f89d 3024 	ldrb.w	r3, [sp, #36]	@ 0x24
20005160:	2b0f      	cmp	r3, #15
20005162:	d8ac      	bhi.n	200050be <tud_task_ext+0x222>
20005164:	4aaa      	ldr	r2, [pc, #680]	@ (20005410 <tud_task_ext+0x574>)
20005166:	443b      	add	r3, r7
20005168:	791b      	ldrb	r3, [r3, #4]
2000516a:	7812      	ldrb	r2, [r2, #0]
2000516c:	4293      	cmp	r3, r2
2000516e:	d32d      	bcc.n	200051cc <tud_task_ext+0x330>
20005170:	d1a5      	bne.n	200050be <tud_task_ext+0x222>
20005172:	4ea8      	ldr	r6, [pc, #672]	@ (20005414 <tud_task_ext+0x578>)
20005174:	6970      	ldr	r0, [r6, #20]
20005176:	f000 fb89 	bl	2000588c <usbd_control_set_complete_callback>
2000517a:	2101      	movs	r1, #1
2000517c:	4640      	mov	r0, r8
2000517e:	6973      	ldr	r3, [r6, #20]
20005180:	aa08      	add	r2, sp, #32
20005182:	4798      	blx	r3
20005184:	2800      	cmp	r0, #0
20005186:	f47f ae99 	bne.w	20004ebc <tud_task_ext+0x20>
2000518a:	f89d 3020 	ldrb.w	r3, [sp, #32]
2000518e:	f013 0660 	ands.w	r6, r3, #96	@ 0x60
20005192:	d194      	bne.n	200050be <tud_task_ext+0x222>
20005194:	f89d 3021 	ldrb.w	r3, [sp, #33]	@ 0x21
20005198:	3b0a      	subs	r3, #10
2000519a:	2b01      	cmp	r3, #1
2000519c:	d88f      	bhi.n	200050be <tud_task_ext+0x222>
2000519e:	f000 fb75 	bl	2000588c <usbd_control_set_complete_callback>
200051a2:	f89d 3021 	ldrb.w	r3, [sp, #33]	@ 0x21
200051a6:	2b0a      	cmp	r3, #10
200051a8:	f000 81f1 	beq.w	2000558e <tud_task_ext+0x6f2>
200051ac:	4640      	mov	r0, r8
200051ae:	a908      	add	r1, sp, #32
200051b0:	f000 faf0 	bl	20005794 <tud_control_status>
200051b4:	e682      	b.n	20004ebc <tud_task_ext+0x20>
200051b6:	4b98      	ldr	r3, [pc, #608]	@ (20005418 <tud_task_ext+0x57c>)
200051b8:	681b      	ldr	r3, [r3, #0]
200051ba:	eb03 1640 	add.w	r6, r3, r0, lsl #5
200051be:	2a00      	cmp	r2, #0
200051c0:	f000 810e 	beq.w	200053e0 <tud_task_ext+0x544>
200051c4:	2e00      	cmp	r6, #0
200051c6:	f43f af7a 	beq.w	200050be <tud_task_ext+0x222>
200051ca:	e7aa      	b.n	20005122 <tud_task_ext+0x286>
200051cc:	4a92      	ldr	r2, [pc, #584]	@ (20005418 <tud_task_ext+0x57c>)
200051ce:	6816      	ldr	r6, [r2, #0]
200051d0:	eb16 1643 	adds.w	r6, r6, r3, lsl #5
200051d4:	d1ce      	bne.n	20005174 <tud_task_ext+0x2d8>
200051d6:	e772      	b.n	200050be <tud_task_ext+0x222>
200051d8:	787b      	ldrb	r3, [r7, #1]
200051da:	f89d 6022 	ldrb.w	r6, [sp, #34]	@ 0x22
200051de:	429e      	cmp	r6, r3
200051e0:	f000 814c 	beq.w	2000547c <tud_task_ext+0x5e0>
200051e4:	787b      	ldrb	r3, [r7, #1]
200051e6:	2b00      	cmp	r3, #0
200051e8:	f040 81bd 	bne.w	20005566 <tud_task_ext+0x6ca>
200051ec:	707e      	strb	r6, [r7, #1]
200051ee:	2e00      	cmp	r6, #0
200051f0:	f000 8142 	beq.w	20005478 <tud_task_ext+0x5dc>
200051f4:	1e70      	subs	r0, r6, #1
200051f6:	b2c0      	uxtb	r0, r0
200051f8:	f7fd f89e 	bl	20002338 <tud_descriptor_configuration_cb>
200051fc:	4603      	mov	r3, r0
200051fe:	2800      	cmp	r0, #0
20005200:	f000 815e 	beq.w	200054c0 <tud_task_ext+0x624>
20005204:	7842      	ldrb	r2, [r0, #1]
20005206:	2a02      	cmp	r2, #2
20005208:	f040 815a 	bne.w	200054c0 <tud_task_ext+0x624>
2000520c:	79c1      	ldrb	r1, [r0, #7]
2000520e:	f103 0609 	add.w	r6, r3, #9
20005212:	f3c1 1240 	ubfx	r2, r1, #5, #1
20005216:	0112      	lsls	r2, r2, #4
20005218:	f3c1 1180 	ubfx	r1, r1, #6, #1
2000521c:	ea42 1241 	orr.w	r2, r2, r1, lsl #5
20005220:	4631      	mov	r1, r6
20005222:	7838      	ldrb	r0, [r7, #0]
20005224:	f020 0030 	bic.w	r0, r0, #48	@ 0x30
20005228:	4302      	orrs	r2, r0
2000522a:	703a      	strb	r2, [r7, #0]
2000522c:	885a      	ldrh	r2, [r3, #2]
2000522e:	f8cd 8008 	str.w	r8, [sp, #8]
20005232:	189a      	adds	r2, r3, r2
20005234:	9200      	str	r2, [sp, #0]
20005236:	9b00      	ldr	r3, [sp, #0]
20005238:	428b      	cmp	r3, r1
2000523a:	f240 81a3 	bls.w	20005584 <tud_task_ext+0x6e8>
2000523e:	784b      	ldrb	r3, [r1, #1]
20005240:	2b0b      	cmp	r3, #11
20005242:	f000 81ae 	beq.w	200055a2 <tud_task_ext+0x706>
20005246:	f04f 0c01 	mov.w	ip, #1
2000524a:	2b04      	cmp	r3, #4
2000524c:	f040 8138 	bne.w	200054c0 <tud_task_ext+0x624>
20005250:	2300      	movs	r3, #0
20005252:	9a00      	ldr	r2, [sp, #0]
20005254:	461e      	mov	r6, r3
20005256:	1a52      	subs	r2, r2, r1
20005258:	b292      	uxth	r2, r2
2000525a:	9201      	str	r2, [sp, #4]
2000525c:	4a6c      	ldr	r2, [pc, #432]	@ (20005410 <tud_task_ext+0x574>)
2000525e:	f8cd c00c 	str.w	ip, [sp, #12]
20005262:	7812      	ldrb	r2, [r2, #0]
20005264:	e01d      	b.n	200052a2 <tud_task_ext+0x406>
20005266:	4a6c      	ldr	r2, [pc, #432]	@ (20005418 <tud_task_ext+0x57c>)
20005268:	6812      	ldr	r2, [r2, #0]
2000526a:	eb12 1846 	adds.w	r8, r2, r6, lsl #5
2000526e:	f000 8127 	beq.w	200054c0 <tud_task_ext+0x624>
20005272:	9a01      	ldr	r2, [sp, #4]
20005274:	9305      	str	r3, [sp, #20]
20005276:	9802      	ldr	r0, [sp, #8]
20005278:	f8d8 3010 	ldr.w	r3, [r8, #16]
2000527c:	9104      	str	r1, [sp, #16]
2000527e:	4798      	blx	r3
20005280:	9b05      	ldr	r3, [sp, #20]
20005282:	2808      	cmp	r0, #8
20005284:	4602      	mov	r2, r0
20005286:	9904      	ldr	r1, [sp, #16]
20005288:	f103 0301 	add.w	r3, r3, #1
2000528c:	d903      	bls.n	20005296 <tud_task_ext+0x3fa>
2000528e:	9801      	ldr	r0, [sp, #4]
20005290:	4290      	cmp	r0, r2
20005292:	f080 80f8 	bcs.w	20005486 <tud_task_ext+0x5ea>
20005296:	4a5e      	ldr	r2, [pc, #376]	@ (20005410 <tud_task_ext+0x574>)
20005298:	b2de      	uxtb	r6, r3
2000529a:	7812      	ldrb	r2, [r2, #0]
2000529c:	42b2      	cmp	r2, r6
2000529e:	f0c0 810f 	bcc.w	200054c0 <tud_task_ext+0x624>
200052a2:	42b2      	cmp	r2, r6
200052a4:	eba6 0202 	sub.w	r2, r6, r2
200052a8:	d8dd      	bhi.n	20005266 <tud_task_ext+0x3ca>
200052aa:	485a      	ldr	r0, [pc, #360]	@ (20005414 <tud_task_ext+0x578>)
200052ac:	eb00 1842 	add.w	r8, r0, r2, lsl #5
200052b0:	e7df      	b.n	20005272 <tud_task_ext+0x3d6>
200052b2:	787b      	ldrb	r3, [r7, #1]
200052b4:	4640      	mov	r0, r8
200052b6:	f88d 301a 	strb.w	r3, [sp, #26]
200052ba:	f10d 021a 	add.w	r2, sp, #26
200052be:	2301      	movs	r3, #1
200052c0:	a908      	add	r1, sp, #32
200052c2:	f000 fa81 	bl	200057c8 <tud_control_xfer>
200052c6:	e5f9      	b.n	20004ebc <tud_task_ext+0x20>
200052c8:	f8bd 0022 	ldrh.w	r0, [sp, #34]	@ 0x22
200052cc:	0a03      	lsrs	r3, r0, #8
200052ce:	3b01      	subs	r3, #1
200052d0:	0a02      	lsrs	r2, r0, #8
200052d2:	b2c0      	uxtb	r0, r0
200052d4:	2b0e      	cmp	r3, #14
200052d6:	f63f aef2 	bhi.w	200050be <tud_task_ext+0x222>
200052da:	a101      	add	r1, pc, #4	@ (adr r1, 200052e0 <tud_task_ext+0x444>)
200052dc:	f851 f023 	ldr.w	pc, [r1, r3, lsl #2]
200052e0:	200054f1 	.word	0x200054f1
200052e4:	20005391 	.word	0x20005391
200052e8:	2000552d 	.word	0x2000552d
200052ec:	200050bf 	.word	0x200050bf
200052f0:	200050bf 	.word	0x200050bf
200052f4:	2000550f 	.word	0x2000550f
200052f8:	20005391 	.word	0x20005391
200052fc:	200050bf 	.word	0x200050bf
20005300:	200050bf 	.word	0x200050bf
20005304:	200050bf 	.word	0x200050bf
20005308:	200050bf 	.word	0x200050bf
2000530c:	200050bf 	.word	0x200050bf
20005310:	200050bf 	.word	0x200050bf
20005314:	200050bf 	.word	0x200050bf
20005318:	200054e3 	.word	0x200054e3
2000531c:	a808      	add	r0, sp, #32
2000531e:	f000 fabb 	bl	20005898 <usbd_control_set_request>
20005322:	4640      	mov	r0, r8
20005324:	f89d 1022 	ldrb.w	r1, [sp, #34]	@ 0x22
20005328:	f7ff fbae 	bl	20004a88 <dcd_set_address>
2000532c:	783b      	ldrb	r3, [r7, #0]
2000532e:	f043 0302 	orr.w	r3, r3, #2
20005332:	703b      	strb	r3, [r7, #0]
20005334:	e5c2      	b.n	20004ebc <tud_task_ext+0x20>
20005336:	f8bd 3022 	ldrh.w	r3, [sp, #34]	@ 0x22
2000533a:	2b01      	cmp	r3, #1
2000533c:	f47f aebf 	bne.w	200050be <tud_task_ext+0x222>
20005340:	783b      	ldrb	r3, [r7, #0]
20005342:	4640      	mov	r0, r8
20005344:	f023 0308 	bic.w	r3, r3, #8
20005348:	a908      	add	r1, sp, #32
2000534a:	703b      	strb	r3, [r7, #0]
2000534c:	f000 fa22 	bl	20005794 <tud_control_status>
20005350:	e5b4      	b.n	20004ebc <tud_task_ext+0x20>
20005352:	4640      	mov	r0, r8
20005354:	783b      	ldrb	r3, [r7, #0]
20005356:	089a      	lsrs	r2, r3, #2
20005358:	f002 0202 	and.w	r2, r2, #2
2000535c:	f3c3 1340 	ubfx	r3, r3, #5, #1
20005360:	4313      	orrs	r3, r2
20005362:	f8ad 301a 	strh.w	r3, [sp, #26]
20005366:	f10d 021a 	add.w	r2, sp, #26
2000536a:	2302      	movs	r3, #2
2000536c:	a908      	add	r1, sp, #32
2000536e:	f000 fa2b 	bl	200057c8 <tud_control_xfer>
20005372:	e5a3      	b.n	20004ebc <tud_task_ext+0x20>
20005374:	f8bd 3022 	ldrh.w	r3, [sp, #34]	@ 0x22
20005378:	2b01      	cmp	r3, #1
2000537a:	f47f aea0 	bne.w	200050be <tud_task_ext+0x222>
2000537e:	783b      	ldrb	r3, [r7, #0]
20005380:	4640      	mov	r0, r8
20005382:	f043 0308 	orr.w	r3, r3, #8
20005386:	a908      	add	r1, sp, #32
20005388:	703b      	strb	r3, [r7, #0]
2000538a:	f000 fa03 	bl	20005794 <tud_control_status>
2000538e:	e595      	b.n	20004ebc <tud_task_ext+0x20>
20005390:	2a02      	cmp	r2, #2
20005392:	f43f ae87 	beq.w	200050a4 <tud_task_ext+0x208>
20005396:	f7ff fced 	bl	20004d74 <tud_descriptor_other_speed_configuration_cb>
2000539a:	4602      	mov	r2, r0
2000539c:	2800      	cmp	r0, #0
2000539e:	f43f ae8e 	beq.w	200050be <tud_task_ext+0x222>
200053a2:	4640      	mov	r0, r8
200053a4:	8853      	ldrh	r3, [r2, #2]
200053a6:	a908      	add	r1, sp, #32
200053a8:	f000 fa0e 	bl	200057c8 <tud_control_xfer>
200053ac:	2800      	cmp	r0, #0
200053ae:	f47f ad85 	bne.w	20004ebc <tud_task_ext+0x20>
200053b2:	e684      	b.n	200050be <tud_task_ext+0x222>
200053b4:	f89d 3024 	ldrb.w	r3, [sp, #36]	@ 0x24
200053b8:	2b0f      	cmp	r3, #15
200053ba:	f63f ae80 	bhi.w	200050be <tud_task_ext+0x222>
200053be:	4a14      	ldr	r2, [pc, #80]	@ (20005410 <tud_task_ext+0x574>)
200053c0:	443b      	add	r3, r7
200053c2:	791b      	ldrb	r3, [r3, #4]
200053c4:	7812      	ldrb	r2, [r2, #0]
200053c6:	4293      	cmp	r3, r2
200053c8:	d21d      	bcs.n	20005406 <tud_task_ext+0x56a>
200053ca:	4a13      	ldr	r2, [pc, #76]	@ (20005418 <tud_task_ext+0x57c>)
200053cc:	6816      	ldr	r6, [r2, #0]
200053ce:	eb16 1643 	adds.w	r6, r6, r3, lsl #5
200053d2:	f47f aea6 	bne.w	20005122 <tud_task_ext+0x286>
200053d6:	e672      	b.n	200050be <tud_task_ext+0x222>
200053d8:	2a00      	cmp	r2, #0
200053da:	f47f ae70 	bne.w	200050be <tud_task_ext+0x222>
200053de:	2600      	movs	r6, #0
200053e0:	f89d 2021 	ldrb.w	r2, [sp, #33]	@ 0x21
200053e4:	f002 03fd 	and.w	r3, r2, #253	@ 0xfd
200053e8:	2b01      	cmp	r3, #1
200053ea:	d017      	beq.n	2000541c <tud_task_ext+0x580>
200053ec:	2a00      	cmp	r2, #0
200053ee:	f47f ae5f 	bne.w	200050b0 <tud_task_ext+0x214>
200053f2:	9b01      	ldr	r3, [sp, #4]
200053f4:	9a00      	ldr	r2, [sp, #0]
200053f6:	443b      	add	r3, r7
200053f8:	4413      	add	r3, r2
200053fa:	f893 3034 	ldrb.w	r3, [r3, #52]	@ 0x34
200053fe:	4640      	mov	r0, r8
20005400:	f3c3 0340 	ubfx	r3, r3, #1, #1
20005404:	e7ad      	b.n	20005362 <tud_task_ext+0x4c6>
20005406:	f47f ae5a 	bne.w	200050be <tud_task_ext+0x222>
2000540a:	4e02      	ldr	r6, [pc, #8]	@ (20005414 <tud_task_ext+0x578>)
2000540c:	e689      	b.n	20005122 <tud_task_ext+0x286>
2000540e:	bf00      	nop
20005410:	2005afc6 	.word	0x2005afc6
20005414:	2000f3d8 	.word	0x2000f3d8
20005418:	20010954 	.word	0x20010954
2000541c:	f8bd 3022 	ldrh.w	r3, [sp, #34]	@ 0x22
20005420:	b9b3      	cbnz	r3, 20005450 <tud_task_ext+0x5b4>
20005422:	2a01      	cmp	r2, #1
20005424:	f899 0000 	ldrb.w	r0, [r9]
20005428:	f000 8088 	beq.w	2000553c <tud_task_ext+0x6a0>
2000542c:	f7ff fbe8 	bl	20004c00 <dcd_edpt_stall>
20005430:	9b01      	ldr	r3, [sp, #4]
20005432:	9a00      	ldr	r2, [sp, #0]
20005434:	443b      	add	r3, r7
20005436:	4413      	add	r3, r2
20005438:	f893 2034 	ldrb.w	r2, [r3, #52]	@ 0x34
2000543c:	f042 0202 	orr.w	r2, r2, #2
20005440:	f883 2034 	strb.w	r2, [r3, #52]	@ 0x34
20005444:	f893 2034 	ldrb.w	r2, [r3, #52]	@ 0x34
20005448:	f042 0201 	orr.w	r2, r2, #1
2000544c:	f883 2034 	strb.w	r2, [r3, #52]	@ 0x34
20005450:	2e00      	cmp	r6, #0
20005452:	f43f ad33 	beq.w	20004ebc <tud_task_ext+0x20>
20005456:	6970      	ldr	r0, [r6, #20]
20005458:	f000 fa18 	bl	2000588c <usbd_control_set_complete_callback>
2000545c:	6973      	ldr	r3, [r6, #20]
2000545e:	2101      	movs	r1, #1
20005460:	aa08      	add	r2, sp, #32
20005462:	4640      	mov	r0, r8
20005464:	4798      	blx	r3
20005466:	2000      	movs	r0, #0
20005468:	f000 fa10 	bl	2000588c <usbd_control_set_complete_callback>
2000546c:	f897 3035 	ldrb.w	r3, [r7, #53]	@ 0x35
20005470:	07df      	lsls	r7, r3, #31
20005472:	f53f ad23 	bmi.w	20004ebc <tud_task_ext+0x20>
20005476:	e699      	b.n	200051ac <tud_task_ext+0x310>
20005478:	f7ff fc80 	bl	20004d7c <tud_umount_cb>
2000547c:	4640      	mov	r0, r8
2000547e:	a908      	add	r1, sp, #32
20005480:	f000 f988 	bl	20005794 <tud_control_status>
20005484:	e51a      	b.n	20004ebc <tud_task_ext+0x20>
20005486:	f8dd c00c 	ldr.w	ip, [sp, #12]
2000548a:	f1bc 0f01 	cmp.w	ip, #1
2000548e:	f000 809d 	beq.w	200055cc <tud_task_ext+0x730>
20005492:	f1bc 0f00 	cmp.w	ip, #0
20005496:	f000 808a 	beq.w	200055ae <tud_task_ext+0x712>
2000549a:	2300      	movs	r3, #0
2000549c:	f891 8002 	ldrb.w	r8, [r1, #2]
200054a0:	e004      	b.n	200054ac <tud_task_ext+0x610>
200054a2:	7106      	strb	r6, [r0, #4]
200054a4:	b2d8      	uxtb	r0, r3
200054a6:	4584      	cmp	ip, r0
200054a8:	f240 8081 	bls.w	200055ae <tud_task_ext+0x712>
200054ac:	eb08 0003 	add.w	r0, r8, r3
200054b0:	fa57 f080 	uxtab	r0, r7, r0
200054b4:	f890 e004 	ldrb.w	lr, [r0, #4]
200054b8:	3301      	adds	r3, #1
200054ba:	f1be 0fff 	cmp.w	lr, #255	@ 0xff
200054be:	d0f0      	beq.n	200054a2 <tud_task_ext+0x606>
200054c0:	f04f 23e0 	mov.w	r3, #3758153728	@ 0xe000e000
200054c4:	f8d3 3df0 	ldr.w	r3, [r3, #3568]	@ 0xdf0
200054c8:	07da      	lsls	r2, r3, #31
200054ca:	d500      	bpl.n	200054ce <tud_task_ext+0x632>
200054cc:	be00      	bkpt	0x0000
200054ce:	f04f 23e0 	mov.w	r3, #3758153728	@ 0xe000e000
200054d2:	f8d3 3df0 	ldr.w	r3, [r3, #3568]	@ 0xdf0
200054d6:	07db      	lsls	r3, r3, #31
200054d8:	d500      	bpl.n	200054dc <tud_task_ext+0x640>
200054da:	be00      	bkpt	0x0000
200054dc:	2300      	movs	r3, #0
200054de:	707b      	strb	r3, [r7, #1]
200054e0:	e5ed      	b.n	200050be <tud_task_ext+0x222>
200054e2:	f7ff fc43 	bl	20004d6c <tud_descriptor_bos_cb>
200054e6:	4602      	mov	r2, r0
200054e8:	2800      	cmp	r0, #0
200054ea:	f47f af5a 	bne.w	200053a2 <tud_task_ext+0x506>
200054ee:	e5e6      	b.n	200050be <tud_task_ext+0x222>
200054f0:	f7fc ff1e 	bl	20002330 <tud_descriptor_device_cb>
200054f4:	4602      	mov	r2, r0
200054f6:	2800      	cmp	r0, #0
200054f8:	f43f adda 	beq.w	200050b0 <tud_task_ext+0x214>
200054fc:	4640      	mov	r0, r8
200054fe:	2312      	movs	r3, #18
20005500:	a908      	add	r1, sp, #32
20005502:	f000 f961 	bl	200057c8 <tud_control_xfer>
20005506:	2800      	cmp	r0, #0
20005508:	f47f acd8 	bne.w	20004ebc <tud_task_ext+0x20>
2000550c:	e5d7      	b.n	200050be <tud_task_ext+0x222>
2000550e:	f7ff fc2f 	bl	20004d70 <tud_descriptor_device_qualifier_cb>
20005512:	4602      	mov	r2, r0
20005514:	2800      	cmp	r0, #0
20005516:	f43f add2 	beq.w	200050be <tud_task_ext+0x222>
2000551a:	4640      	mov	r0, r8
2000551c:	7813      	ldrb	r3, [r2, #0]
2000551e:	a908      	add	r1, sp, #32
20005520:	f000 f952 	bl	200057c8 <tud_control_xfer>
20005524:	2800      	cmp	r0, #0
20005526:	f47f acc9 	bne.w	20004ebc <tud_task_ext+0x20>
2000552a:	e5c8      	b.n	200050be <tud_task_ext+0x222>
2000552c:	f8bd 1024 	ldrh.w	r1, [sp, #36]	@ 0x24
20005530:	f7fc ff06 	bl	20002340 <tud_descriptor_string_cb>
20005534:	4602      	mov	r2, r0
20005536:	2800      	cmp	r0, #0
20005538:	d1ef      	bne.n	2000551a <tud_task_ext+0x67e>
2000553a:	e5c0      	b.n	200050be <tud_task_ext+0x222>
2000553c:	9302      	str	r3, [sp, #8]
2000553e:	f7ff fb77 	bl	20004c30 <dcd_edpt_clear_stall>
20005542:	9a01      	ldr	r2, [sp, #4]
20005544:	9b00      	ldr	r3, [sp, #0]
20005546:	443a      	add	r2, r7
20005548:	441a      	add	r2, r3
2000554a:	f892 1034 	ldrb.w	r1, [r2, #52]	@ 0x34
2000554e:	9b02      	ldr	r3, [sp, #8]
20005550:	f363 0141 	bfi	r1, r3, #1, #1
20005554:	f882 1034 	strb.w	r1, [r2, #52]	@ 0x34
20005558:	f892 1034 	ldrb.w	r1, [r2, #52]	@ 0x34
2000555c:	f363 0100 	bfi	r1, r3, #0, #1
20005560:	f882 1034 	strb.w	r1, [r2, #52]	@ 0x34
20005564:	e774      	b.n	20005450 <tud_task_ext+0x5b4>
20005566:	2100      	movs	r1, #0
20005568:	4640      	mov	r0, r8
2000556a:	f7ff fa95 	bl	20004a98 <dcd_sof_enable>
2000556e:	4640      	mov	r0, r8
20005570:	f7ff fb30 	bl	20004bd4 <dcd_edpt_close_all>
20005574:	78bb      	ldrb	r3, [r7, #2]
20005576:	4640      	mov	r0, r8
20005578:	9300      	str	r3, [sp, #0]
2000557a:	f7ff fbad 	bl	20004cd8 <configuration_reset>
2000557e:	9b00      	ldr	r3, [sp, #0]
20005580:	70bb      	strb	r3, [r7, #2]
20005582:	e633      	b.n	200051ec <tud_task_ext+0x350>
20005584:	f8dd 8008 	ldr.w	r8, [sp, #8]
20005588:	f7ff fbf6 	bl	20004d78 <tud_mount_cb>
2000558c:	e776      	b.n	2000547c <tud_task_ext+0x5e0>
2000558e:	4640      	mov	r0, r8
20005590:	2301      	movs	r3, #1
20005592:	a908      	add	r1, sp, #32
20005594:	f10d 021a 	add.w	r2, sp, #26
20005598:	f88d 601a 	strb.w	r6, [sp, #26]
2000559c:	f000 f914 	bl	200057c8 <tud_control_xfer>
200055a0:	e48c      	b.n	20004ebc <tud_task_ext+0x20>
200055a2:	780b      	ldrb	r3, [r1, #0]
200055a4:	f891 c003 	ldrb.w	ip, [r1, #3]
200055a8:	4419      	add	r1, r3
200055aa:	784b      	ldrb	r3, [r1, #1]
200055ac:	e64d      	b.n	2000524a <tud_task_ext+0x3ae>
200055ae:	4633      	mov	r3, r6
200055b0:	480f      	ldr	r0, [pc, #60]	@ (200055f0 <tud_task_ext+0x754>)
200055b2:	9203      	str	r2, [sp, #12]
200055b4:	9101      	str	r1, [sp, #4]
200055b6:	f000 fd6f 	bl	20006098 <tu_edpt_bind_driver>
200055ba:	4b0e      	ldr	r3, [pc, #56]	@ (200055f4 <tud_task_ext+0x758>)
200055bc:	9901      	ldr	r1, [sp, #4]
200055be:	781b      	ldrb	r3, [r3, #0]
200055c0:	9a03      	ldr	r2, [sp, #12]
200055c2:	42b3      	cmp	r3, r6
200055c4:	4411      	add	r1, r2
200055c6:	f4bf ae36 	bcs.w	20005236 <tud_task_ext+0x39a>
200055ca:	e779      	b.n	200054c0 <tud_task_ext+0x624>
200055cc:	f8d8 0010 	ldr.w	r0, [r8, #16]
200055d0:	4b09      	ldr	r3, [pc, #36]	@ (200055f8 <tud_task_ext+0x75c>)
200055d2:	4298      	cmp	r0, r3
200055d4:	bf08      	it	eq
200055d6:	f04f 0c02 	moveq.w	ip, #2
200055da:	e75e      	b.n	2000549a <tud_task_ext+0x5fe>
200055dc:	f04f 23e0 	mov.w	r3, #3758153728	@ 0xe000e000
200055e0:	f8d3 3df0 	ldr.w	r3, [r3, #3568]	@ 0xdf0
200055e4:	07db      	lsls	r3, r3, #31
200055e6:	f57f ac69 	bpl.w	20004ebc <tud_task_ext+0x20>
200055ea:	be00      	bkpt	0x0000
200055ec:	e466      	b.n	20004ebc <tud_task_ext+0x20>
200055ee:	bf00      	nop
200055f0:	20011278 	.word	0x20011278
200055f4:	2005afc6 	.word	0x2005afc6
200055f8:	20005cd1 	.word	0x20005cd1

200055fc <usbd_open_edpt_pair>:
200055fc:	e92d 4ff8 	stmdb	sp!, {r3, r4, r5, r6, r7, r8, r9, sl, fp, lr}
20005600:	9f0a      	ldr	r7, [sp, #40]	@ 0x28
20005602:	2a00      	cmp	r2, #0
20005604:	d040      	beq.n	20005688 <usbd_open_edpt_pair+0x8c>
20005606:	460c      	mov	r4, r1
20005608:	461e      	mov	r6, r3
2000560a:	4615      	mov	r5, r2
2000560c:	f04f 0a00 	mov.w	sl, #0
20005610:	f8df 907c 	ldr.w	r9, [pc, #124]	@ 20005690 <usbd_open_edpt_pair+0x94>
20005614:	f8df 807c 	ldr.w	r8, [pc, #124]	@ 20005694 <usbd_open_edpt_pair+0x98>
20005618:	e018      	b.n	2000564c <usbd_open_edpt_pair+0x50>
2000561a:	4620      	mov	r0, r4
2000561c:	f898 1002 	ldrb.w	r1, [r8, #2]
20005620:	f899 b000 	ldrb.w	fp, [r9]
20005624:	f000 fd08 	bl	20006038 <tu_edpt_validate>
20005628:	b1e0      	cbz	r0, 20005664 <usbd_open_edpt_pair+0x68>
2000562a:	4621      	mov	r1, r4
2000562c:	4658      	mov	r0, fp
2000562e:	f7ff fa4f 	bl	20004ad0 <dcd_edpt_open>
20005632:	b1f0      	cbz	r0, 20005672 <usbd_open_edpt_pair+0x76>
20005634:	78a2      	ldrb	r2, [r4, #2]
20005636:	f10a 0a01 	add.w	sl, sl, #1
2000563a:	09d1      	lsrs	r1, r2, #7
2000563c:	bf16      	itet	ne
2000563e:	9b0b      	ldrne	r3, [sp, #44]	@ 0x2c
20005640:	703a      	strbeq	r2, [r7, #0]
20005642:	701a      	strbne	r2, [r3, #0]
20005644:	7822      	ldrb	r2, [r4, #0]
20005646:	45aa      	cmp	sl, r5
20005648:	4414      	add	r4, r2
2000564a:	d01d      	beq.n	20005688 <usbd_open_edpt_pair+0x8c>
2000564c:	7862      	ldrb	r2, [r4, #1]
2000564e:	2a05      	cmp	r2, #5
20005650:	d10f      	bne.n	20005672 <usbd_open_edpt_pair+0x76>
20005652:	78e1      	ldrb	r1, [r4, #3]
20005654:	f001 0103 	and.w	r1, r1, #3
20005658:	42b1      	cmp	r1, r6
2000565a:	d10a      	bne.n	20005672 <usbd_open_edpt_pair+0x76>
2000565c:	78a2      	ldrb	r2, [r4, #2]
2000565e:	f012 0f70 	tst.w	r2, #112	@ 0x70
20005662:	d0da      	beq.n	2000561a <usbd_open_edpt_pair+0x1e>
20005664:	f04f 23e0 	mov.w	r3, #3758153728	@ 0xe000e000
20005668:	f8d3 3df0 	ldr.w	r3, [r3, #3568]	@ 0xdf0
2000566c:	07da      	lsls	r2, r3, #31
2000566e:	d500      	bpl.n	20005672 <usbd_open_edpt_pair+0x76>
20005670:	be00      	bkpt	0x0000
20005672:	f04f 23e0 	mov.w	r3, #3758153728	@ 0xe000e000
20005676:	f8d3 3df0 	ldr.w	r3, [r3, #3568]	@ 0xdf0
2000567a:	07db      	lsls	r3, r3, #31
2000567c:	d402      	bmi.n	20005684 <usbd_open_edpt_pair+0x88>
2000567e:	2000      	movs	r0, #0
20005680:	e8bd 8ff8 	ldmia.w	sp!, {r3, r4, r5, r6, r7, r8, r9, sl, fp, pc}
20005684:	be00      	bkpt	0x0000
20005686:	e7fa      	b.n	2000567e <usbd_open_edpt_pair+0x82>
20005688:	2001      	movs	r0, #1
2000568a:	e8bd 8ff8 	ldmia.w	sp!, {r3, r4, r5, r6, r7, r8, r9, sl, fp, pc}
2000568e:	bf00      	nop
20005690:	2000f948 	.word	0x2000f948
20005694:	20011264 	.word	0x20011264

20005698 <usbd_edpt_open>:
20005698:	b538      	push	{r3, r4, r5, lr}
2000569a:	788b      	ldrb	r3, [r1, #2]
2000569c:	f013 0f70 	tst.w	r3, #112	@ 0x70
200056a0:	d008      	beq.n	200056b4 <usbd_edpt_open+0x1c>
200056a2:	f04f 23e0 	mov.w	r3, #3758153728	@ 0xe000e000
200056a6:	f8d3 3df0 	ldr.w	r3, [r3, #3568]	@ 0xdf0
200056aa:	07db      	lsls	r3, r3, #31
200056ac:	d500      	bpl.n	200056b0 <usbd_edpt_open+0x18>
200056ae:	be00      	bkpt	0x0000
200056b0:	2000      	movs	r0, #0
200056b2:	bd38      	pop	{r3, r4, r5, pc}
200056b4:	4a07      	ldr	r2, [pc, #28]	@ (200056d4 <usbd_edpt_open+0x3c>)
200056b6:	4b08      	ldr	r3, [pc, #32]	@ (200056d8 <usbd_edpt_open+0x40>)
200056b8:	460c      	mov	r4, r1
200056ba:	4608      	mov	r0, r1
200056bc:	7891      	ldrb	r1, [r2, #2]
200056be:	781d      	ldrb	r5, [r3, #0]
200056c0:	f000 fcba 	bl	20006038 <tu_edpt_validate>
200056c4:	2800      	cmp	r0, #0
200056c6:	d0ec      	beq.n	200056a2 <usbd_edpt_open+0xa>
200056c8:	4621      	mov	r1, r4
200056ca:	4628      	mov	r0, r5
200056cc:	e8bd 4038 	ldmia.w	sp!, {r3, r4, r5, lr}
200056d0:	f7ff b9fe 	b.w	20004ad0 <dcd_edpt_open>
200056d4:	20011264 	.word	0x20011264
200056d8:	2000f948 	.word	0x2000f948

200056dc <usbd_edpt_claim>:
200056dc:	460b      	mov	r3, r1
200056de:	4a06      	ldr	r2, [pc, #24]	@ (200056f8 <usbd_edpt_claim+0x1c>)
200056e0:	4806      	ldr	r0, [pc, #24]	@ (200056fc <usbd_edpt_claim+0x20>)
200056e2:	6811      	ldr	r1, [r2, #0]
200056e4:	09da      	lsrs	r2, r3, #7
200056e6:	3234      	adds	r2, #52	@ 0x34
200056e8:	f003 037f 	and.w	r3, r3, #127	@ 0x7f
200056ec:	eb02 0343 	add.w	r3, r2, r3, lsl #1
200056f0:	4418      	add	r0, r3
200056f2:	f000 bc5b 	b.w	20005fac <tu_edpt_claim>
200056f6:	bf00      	nop
200056f8:	200112b8 	.word	0x200112b8
200056fc:	20011264 	.word	0x20011264

20005700 <usbd_edpt_release>:
20005700:	460b      	mov	r3, r1
20005702:	4a06      	ldr	r2, [pc, #24]	@ (2000571c <usbd_edpt_release+0x1c>)
20005704:	4806      	ldr	r0, [pc, #24]	@ (20005720 <usbd_edpt_release+0x20>)
20005706:	6811      	ldr	r1, [r2, #0]
20005708:	09da      	lsrs	r2, r3, #7
2000570a:	3234      	adds	r2, #52	@ 0x34
2000570c:	f003 037f 	and.w	r3, r3, #127	@ 0x7f
20005710:	eb02 0343 	add.w	r3, r2, r3, lsl #1
20005714:	4418      	add	r0, r3
20005716:	f000 bc73 	b.w	20006000 <tu_edpt_release>
2000571a:	bf00      	nop
2000571c:	200112b8 	.word	0x200112b8
20005720:	20011264 	.word	0x20011264

20005724 <usbd_edpt_xfer>:
20005724:	b510      	push	{r4, lr}
20005726:	4819      	ldr	r0, [pc, #100]	@ (2000578c <usbd_edpt_xfer+0x68>)
20005728:	f001 0c7f 	and.w	ip, r1, #127	@ 0x7f
2000572c:	eb00 004c 	add.w	r0, r0, ip, lsl #1
20005730:	eb00 10d1 	add.w	r0, r0, r1, lsr #7
20005734:	f890 c034 	ldrb.w	ip, [r0, #52]	@ 0x34
20005738:	f01c 0f01 	tst.w	ip, #1
2000573c:	d008      	beq.n	20005750 <usbd_edpt_xfer+0x2c>
2000573e:	f04f 23e0 	mov.w	r3, #3758153728	@ 0xe000e000
20005742:	f8d3 3df0 	ldr.w	r3, [r3, #3568]	@ 0xdf0
20005746:	07da      	lsls	r2, r3, #31
20005748:	d500      	bpl.n	2000574c <usbd_edpt_xfer+0x28>
2000574a:	be00      	bkpt	0x0000
2000574c:	2000      	movs	r0, #0
2000574e:	bd10      	pop	{r4, pc}
20005750:	f100 0430 	add.w	r4, r0, #48	@ 0x30
20005754:	f894 c004 	ldrb.w	ip, [r4, #4]
20005758:	480d      	ldr	r0, [pc, #52]	@ (20005790 <usbd_edpt_xfer+0x6c>)
2000575a:	f04c 0c01 	orr.w	ip, ip, #1
2000575e:	7800      	ldrb	r0, [r0, #0]
20005760:	f884 c004 	strb.w	ip, [r4, #4]
20005764:	f7ff fa38 	bl	20004bd8 <dcd_edpt_xfer>
20005768:	2800      	cmp	r0, #0
2000576a:	d1f0      	bne.n	2000574e <usbd_edpt_xfer+0x2a>
2000576c:	f04f 21e0 	mov.w	r1, #3758153728	@ 0xe000e000
20005770:	7922      	ldrb	r2, [r4, #4]
20005772:	f360 0200 	bfi	r2, r0, #0, #1
20005776:	7122      	strb	r2, [r4, #4]
20005778:	7922      	ldrb	r2, [r4, #4]
2000577a:	f360 0282 	bfi	r2, r0, #2, #1
2000577e:	7122      	strb	r2, [r4, #4]
20005780:	f8d1 3df0 	ldr.w	r3, [r1, #3568]	@ 0xdf0
20005784:	07db      	lsls	r3, r3, #31
20005786:	d5e1      	bpl.n	2000574c <usbd_edpt_xfer+0x28>
20005788:	be00      	bkpt	0x0000
2000578a:	e7df      	b.n	2000574c <usbd_edpt_xfer+0x28>
2000578c:	20011264 	.word	0x20011264
20005790:	2000f948 	.word	0x2000f948

20005794 <tud_control_status>:
20005794:	b530      	push	{r4, r5, lr}
20005796:	4c0b      	ldr	r4, [pc, #44]	@ (200057c4 <tud_control_status+0x30>)
20005798:	468c      	mov	ip, r1
2000579a:	46a6      	mov	lr, r4
2000579c:	4605      	mov	r5, r0
2000579e:	6808      	ldr	r0, [r1, #0]
200057a0:	6849      	ldr	r1, [r1, #4]
200057a2:	2300      	movs	r3, #0
200057a4:	e8ae 0003 	stmia.w	lr!, {r0, r1}
200057a8:	f89c 1000 	ldrb.w	r1, [ip]
200057ac:	4628      	mov	r0, r5
200057ae:	43c9      	mvns	r1, r1
200057b0:	e9c4 3302 	strd	r3, r3, [r4, #8]
200057b4:	e8bd 4030 	ldmia.w	sp!, {r4, r5, lr}
200057b8:	461a      	mov	r2, r3
200057ba:	f001 0180 	and.w	r1, r1, #128	@ 0x80
200057be:	f7ff bfb1 	b.w	20005724 <usbd_edpt_xfer>
200057c2:	bf00      	nop
200057c4:	200111e4 	.word	0x200111e4

200057c8 <tud_control_xfer>:
200057c8:	e92d 41f0 	stmdb	sp!, {r4, r5, r6, r7, r8, lr}
200057cc:	4f28      	ldr	r7, [pc, #160]	@ (20005870 <tud_control_xfer+0xa8>)
200057ce:	f04f 0800 	mov.w	r8, #0
200057d2:	46be      	mov	lr, r7
200057d4:	468c      	mov	ip, r1
200057d6:	4606      	mov	r6, r0
200057d8:	6808      	ldr	r0, [r1, #0]
200057da:	6849      	ldr	r1, [r1, #4]
200057dc:	60ba      	str	r2, [r7, #8]
200057de:	e8ae 0003 	stmia.w	lr!, {r0, r1}
200057e2:	f8a7 800e 	strh.w	r8, [r7, #14]
200057e6:	4615      	mov	r5, r2
200057e8:	f8bc 2006 	ldrh.w	r2, [ip, #6]
200057ec:	4293      	cmp	r3, r2
200057ee:	bf28      	it	cs
200057f0:	4613      	movcs	r3, r2
200057f2:	81bb      	strh	r3, [r7, #12]
200057f4:	b19a      	cbz	r2, 2000581e <tud_control_xfer+0x56>
200057f6:	461c      	mov	r4, r3
200057f8:	b333      	cbz	r3, 20005848 <tud_control_xfer+0x80>
200057fa:	b1dd      	cbz	r5, 20005834 <tud_control_xfer+0x6c>
200057fc:	f997 3000 	ldrsb.w	r3, [r7]
20005800:	2c40      	cmp	r4, #64	@ 0x40
20005802:	bf28      	it	cs
20005804:	2440      	movcs	r4, #64	@ 0x40
20005806:	2b00      	cmp	r3, #0
20005808:	db29      	blt.n	2000585e <tud_control_xfer+0x96>
2000580a:	4641      	mov	r1, r8
2000580c:	4623      	mov	r3, r4
2000580e:	4630      	mov	r0, r6
20005810:	4a18      	ldr	r2, [pc, #96]	@ (20005874 <tud_control_xfer+0xac>)
20005812:	f7ff ff87 	bl	20005724 <usbd_edpt_xfer>
20005816:	b168      	cbz	r0, 20005834 <tud_control_xfer+0x6c>
20005818:	2001      	movs	r0, #1
2000581a:	e8bd 81f0 	ldmia.w	sp!, {r4, r5, r6, r7, r8, pc}
2000581e:	f89c 1000 	ldrb.w	r1, [ip]
20005822:	4613      	mov	r3, r2
20005824:	43c9      	mvns	r1, r1
20005826:	4630      	mov	r0, r6
20005828:	f001 0180 	and.w	r1, r1, #128	@ 0x80
2000582c:	f7ff ff7a 	bl	20005724 <usbd_edpt_xfer>
20005830:	2800      	cmp	r0, #0
20005832:	d1f1      	bne.n	20005818 <tud_control_xfer+0x50>
20005834:	f04f 23e0 	mov.w	r3, #3758153728	@ 0xe000e000
20005838:	f8d3 3df0 	ldr.w	r3, [r3, #3568]	@ 0xdf0
2000583c:	07db      	lsls	r3, r3, #31
2000583e:	d500      	bpl.n	20005842 <tud_control_xfer+0x7a>
20005840:	be00      	bkpt	0x0000
20005842:	2000      	movs	r0, #0
20005844:	e8bd 81f0 	ldmia.w	sp!, {r4, r5, r6, r7, r8, pc}
20005848:	461a      	mov	r2, r3
2000584a:	7839      	ldrb	r1, [r7, #0]
2000584c:	f001 0180 	and.w	r1, r1, #128	@ 0x80
20005850:	4623      	mov	r3, r4
20005852:	4630      	mov	r0, r6
20005854:	f7ff ff66 	bl	20005724 <usbd_edpt_xfer>
20005858:	2800      	cmp	r0, #0
2000585a:	d1dd      	bne.n	20005818 <tud_control_xfer+0x50>
2000585c:	e7ea      	b.n	20005834 <tud_control_xfer+0x6c>
2000585e:	4622      	mov	r2, r4
20005860:	4629      	mov	r1, r5
20005862:	4804      	ldr	r0, [pc, #16]	@ (20005874 <tud_control_xfer+0xac>)
20005864:	f003 ff3c 	bl	200096e0 <memcpy>
20005868:	2180      	movs	r1, #128	@ 0x80
2000586a:	4a02      	ldr	r2, [pc, #8]	@ (20005874 <tud_control_xfer+0xac>)
2000586c:	e7f0      	b.n	20005850 <tud_control_xfer+0x88>
2000586e:	bf00      	nop
20005870:	200111e4 	.word	0x200111e4
20005874:	200111a4 	.word	0x200111a4

20005878 <usbd_control_reset>:
20005878:	2200      	movs	r2, #0
2000587a:	4b03      	ldr	r3, [pc, #12]	@ (20005888 <usbd_control_reset+0x10>)
2000587c:	e9c3 2200 	strd	r2, r2, [r3]
20005880:	e9c3 2202 	strd	r2, r2, [r3, #8]
20005884:	611a      	str	r2, [r3, #16]
20005886:	4770      	bx	lr
20005888:	200111e4 	.word	0x200111e4

2000588c <usbd_control_set_complete_callback>:
2000588c:	4b01      	ldr	r3, [pc, #4]	@ (20005894 <usbd_control_set_complete_callback+0x8>)
2000588e:	6118      	str	r0, [r3, #16]
20005890:	4770      	bx	lr
20005892:	bf00      	nop
20005894:	200111e4 	.word	0x200111e4

20005898 <usbd_control_set_request>:
20005898:	b430      	push	{r4, r5}
2000589a:	4602      	mov	r2, r0
2000589c:	4c04      	ldr	r4, [pc, #16]	@ (200058b0 <usbd_control_set_request+0x18>)
2000589e:	2500      	movs	r5, #0
200058a0:	4623      	mov	r3, r4
200058a2:	6800      	ldr	r0, [r0, #0]
200058a4:	6851      	ldr	r1, [r2, #4]
200058a6:	e9c4 5502 	strd	r5, r5, [r4, #8]
200058aa:	bc30      	pop	{r4, r5}
200058ac:	c303      	stmia	r3!, {r0, r1}
200058ae:	4770      	bx	lr
200058b0:	200111e4 	.word	0x200111e4

200058b4 <usbd_control_xfer_cb>:
200058b4:	b570      	push	{r4, r5, r6, lr}
200058b6:	4c3d      	ldr	r4, [pc, #244]	@ (200059ac <usbd_control_xfer_cb+0xf8>)
200058b8:	09c9      	lsrs	r1, r1, #7
200058ba:	7822      	ldrb	r2, [r4, #0]
200058bc:	4606      	mov	r6, r0
200058be:	ebb1 1fd2 	cmp.w	r1, r2, lsr #7
200058c2:	461d      	mov	r5, r3
200058c4:	b082      	sub	sp, #8
200058c6:	d017      	beq.n	200058f8 <usbd_control_xfer_cb+0x44>
200058c8:	b153      	cbz	r3, 200058e0 <usbd_control_xfer_cb+0x2c>
200058ca:	f04f 23e0 	mov.w	r3, #3758153728	@ 0xe000e000
200058ce:	f8d3 3df0 	ldr.w	r3, [r3, #3568]	@ 0xdf0
200058d2:	07db      	lsls	r3, r3, #31
200058d4:	d402      	bmi.n	200058dc <usbd_control_xfer_cb+0x28>
200058d6:	2000      	movs	r0, #0
200058d8:	b002      	add	sp, #8
200058da:	bd70      	pop	{r4, r5, r6, pc}
200058dc:	be00      	bkpt	0x0000
200058de:	e7fa      	b.n	200058d6 <usbd_control_xfer_cb+0x22>
200058e0:	4621      	mov	r1, r4
200058e2:	f7ff f8e7 	bl	20004ab4 <dcd_edpt0_status_complete>
200058e6:	6923      	ldr	r3, [r4, #16]
200058e8:	b11b      	cbz	r3, 200058f2 <usbd_control_xfer_cb+0x3e>
200058ea:	4622      	mov	r2, r4
200058ec:	2103      	movs	r1, #3
200058ee:	4630      	mov	r0, r6
200058f0:	4798      	blx	r3
200058f2:	2001      	movs	r0, #1
200058f4:	b002      	add	sp, #8
200058f6:	bd70      	pop	{r4, r5, r6, pc}
200058f8:	f994 3000 	ldrsb.w	r3, [r4]
200058fc:	2b00      	cmp	r3, #0
200058fe:	db06      	blt.n	2000590e <usbd_control_xfer_cb+0x5a>
20005900:	68a0      	ldr	r0, [r4, #8]
20005902:	2800      	cmp	r0, #0
20005904:	d0e7      	beq.n	200058d6 <usbd_control_xfer_cb+0x22>
20005906:	462a      	mov	r2, r5
20005908:	4929      	ldr	r1, [pc, #164]	@ (200059b0 <usbd_control_xfer_cb+0xfc>)
2000590a:	f003 fee9 	bl	200096e0 <memcpy>
2000590e:	89e0      	ldrh	r0, [r4, #14]
20005910:	68a1      	ldr	r1, [r4, #8]
20005912:	88e3      	ldrh	r3, [r4, #6]
20005914:	4428      	add	r0, r5
20005916:	b280      	uxth	r0, r0
20005918:	4429      	add	r1, r5
2000591a:	4283      	cmp	r3, r0
2000591c:	81e0      	strh	r0, [r4, #14]
2000591e:	60a1      	str	r1, [r4, #8]
20005920:	d016      	beq.n	20005950 <usbd_control_xfer_cb+0x9c>
20005922:	2d3f      	cmp	r5, #63	@ 0x3f
20005924:	d914      	bls.n	20005950 <usbd_control_xfer_cb+0x9c>
20005926:	89a2      	ldrh	r2, [r4, #12]
20005928:	f994 4000 	ldrsb.w	r4, [r4]
2000592c:	1a13      	subs	r3, r2, r0
2000592e:	b29b      	uxth	r3, r3
20005930:	2b40      	cmp	r3, #64	@ 0x40
20005932:	bf28      	it	cs
20005934:	2340      	movcs	r3, #64	@ 0x40
20005936:	2c00      	cmp	r4, #0
20005938:	db27      	blt.n	2000598a <usbd_control_xfer_cb+0xd6>
2000593a:	4290      	cmp	r0, r2
2000593c:	f04f 0100 	mov.w	r1, #0
20005940:	d031      	beq.n	200059a6 <usbd_control_xfer_cb+0xf2>
20005942:	4a1b      	ldr	r2, [pc, #108]	@ (200059b0 <usbd_control_xfer_cb+0xfc>)
20005944:	4630      	mov	r0, r6
20005946:	f7ff feed 	bl	20005724 <usbd_edpt_xfer>
2000594a:	2800      	cmp	r0, #0
2000594c:	d1d1      	bne.n	200058f2 <usbd_control_xfer_cb+0x3e>
2000594e:	e7bc      	b.n	200058ca <usbd_control_xfer_cb+0x16>
20005950:	6923      	ldr	r3, [r4, #16]
20005952:	b123      	cbz	r3, 2000595e <usbd_control_xfer_cb+0xaa>
20005954:	2102      	movs	r1, #2
20005956:	4630      	mov	r0, r6
20005958:	4a14      	ldr	r2, [pc, #80]	@ (200059ac <usbd_control_xfer_cb+0xf8>)
2000595a:	4798      	blx	r3
2000595c:	b160      	cbz	r0, 20005978 <usbd_control_xfer_cb+0xc4>
2000595e:	7821      	ldrb	r1, [r4, #0]
20005960:	2300      	movs	r3, #0
20005962:	43c9      	mvns	r1, r1
20005964:	4630      	mov	r0, r6
20005966:	461a      	mov	r2, r3
20005968:	f001 0180 	and.w	r1, r1, #128	@ 0x80
2000596c:	f7ff feda 	bl	20005724 <usbd_edpt_xfer>
20005970:	2800      	cmp	r0, #0
20005972:	d0aa      	beq.n	200058ca <usbd_control_xfer_cb+0x16>
20005974:	2001      	movs	r0, #1
20005976:	e7bd      	b.n	200058f4 <usbd_control_xfer_cb+0x40>
20005978:	4601      	mov	r1, r0
2000597a:	4630      	mov	r0, r6
2000597c:	f7ff f940 	bl	20004c00 <dcd_edpt_stall>
20005980:	2180      	movs	r1, #128	@ 0x80
20005982:	4630      	mov	r0, r6
20005984:	f7ff f93c 	bl	20004c00 <dcd_edpt_stall>
20005988:	e7b3      	b.n	200058f2 <usbd_control_xfer_cb+0x3e>
2000598a:	4290      	cmp	r0, r2
2000598c:	d008      	beq.n	200059a0 <usbd_control_xfer_cb+0xec>
2000598e:	461a      	mov	r2, r3
20005990:	4807      	ldr	r0, [pc, #28]	@ (200059b0 <usbd_control_xfer_cb+0xfc>)
20005992:	9301      	str	r3, [sp, #4]
20005994:	f003 fea4 	bl	200096e0 <memcpy>
20005998:	2180      	movs	r1, #128	@ 0x80
2000599a:	4a05      	ldr	r2, [pc, #20]	@ (200059b0 <usbd_control_xfer_cb+0xfc>)
2000599c:	9b01      	ldr	r3, [sp, #4]
2000599e:	e7d1      	b.n	20005944 <usbd_control_xfer_cb+0x90>
200059a0:	2180      	movs	r1, #128	@ 0x80
200059a2:	2200      	movs	r2, #0
200059a4:	e7ce      	b.n	20005944 <usbd_control_xfer_cb+0x90>
200059a6:	460a      	mov	r2, r1
200059a8:	e7cc      	b.n	20005944 <usbd_control_xfer_cb+0x90>
200059aa:	bf00      	nop
200059ac:	200111e4 	.word	0x200111e4
200059b0:	200111a4 	.word	0x200111a4

200059b4 <_prep_out_transaction.isra.0>:
200059b4:	e92d 41f0 	stmdb	sp!, {r4, r5, r6, r7, r8, lr}
200059b8:	4604      	mov	r4, r0
200059ba:	f7ff f9e5 	bl	20004d88 <tud_mounted>
200059be:	b908      	cbnz	r0, 200059c4 <_prep_out_transaction.isra.0+0x10>
200059c0:	e8bd 81f0 	ldmia.w	sp!, {r4, r5, r6, r7, r8, pc}
200059c4:	f7ff f9e8 	bl	20004d98 <tud_suspended>
200059c8:	4605      	mov	r5, r0
200059ca:	2800      	cmp	r0, #0
200059cc:	d1f8      	bne.n	200059c0 <_prep_out_transaction.isra.0+0xc>
200059ce:	f44f 6389 	mov.w	r3, #1096	@ 0x448
200059d2:	fb04 f303 	mul.w	r3, r4, r3
200059d6:	4e14      	ldr	r6, [pc, #80]	@ (20005a28 <_prep_out_transaction.isra.0+0x74>)
200059d8:	18f7      	adds	r7, r6, r3
200059da:	78f9      	ldrb	r1, [r7, #3]
200059dc:	2900      	cmp	r1, #0
200059de:	d0ef      	beq.n	200059c0 <_prep_out_transaction.isra.0+0xc>
200059e0:	3310      	adds	r3, #16
200059e2:	441e      	add	r6, r3
200059e4:	4630      	mov	r0, r6
200059e6:	f000 fbcd 	bl	20006184 <tu_fifo_remaining>
200059ea:	f5b0 7f00 	cmp.w	r0, #512	@ 0x200
200059ee:	d3e7      	bcc.n	200059c0 <_prep_out_transaction.isra.0+0xc>
200059f0:	4628      	mov	r0, r5
200059f2:	78f9      	ldrb	r1, [r7, #3]
200059f4:	f7ff fe72 	bl	200056dc <usbd_edpt_claim>
200059f8:	2800      	cmp	r0, #0
200059fa:	d0e1      	beq.n	200059c0 <_prep_out_transaction.isra.0+0xc>
200059fc:	4630      	mov	r0, r6
200059fe:	f000 fbc1 	bl	20006184 <tu_fifo_remaining>
20005a02:	f5b0 7f00 	cmp.w	r0, #512	@ 0x200
20005a06:	78f9      	ldrb	r1, [r7, #3]
20005a08:	d309      	bcc.n	20005a1e <_prep_out_transaction.isra.0+0x6a>
20005a0a:	4a08      	ldr	r2, [pc, #32]	@ (20005a2c <_prep_out_transaction.isra.0+0x78>)
20005a0c:	4628      	mov	r0, r5
20005a0e:	eb02 2284 	add.w	r2, r2, r4, lsl #10
20005a12:	f44f 7300 	mov.w	r3, #512	@ 0x200
20005a16:	e8bd 41f0 	ldmia.w	sp!, {r4, r5, r6, r7, r8, lr}
20005a1a:	f7ff be83 	b.w	20005724 <usbd_edpt_xfer>
20005a1e:	4628      	mov	r0, r5
20005a20:	e8bd 41f0 	ldmia.w	sp!, {r4, r5, r6, r7, r8, lr}
20005a24:	f7ff be6c 	b.w	20005700 <usbd_edpt_release>
20005a28:	20010d5c 	.word	0x20010d5c
20005a2c:	20010958 	.word	0x20010958

20005a30 <tud_cdc_n_connected>:
20005a30:	b510      	push	{r4, lr}
20005a32:	4604      	mov	r4, r0
20005a34:	f7ff f9a8 	bl	20004d88 <tud_mounted>
20005a38:	b908      	cbnz	r0, 20005a3e <tud_cdc_n_connected+0xe>
20005a3a:	2000      	movs	r0, #0
20005a3c:	bd10      	pop	{r4, pc}
20005a3e:	f7ff f9ab 	bl	20004d98 <tud_suspended>
20005a42:	2800      	cmp	r0, #0
20005a44:	d1f9      	bne.n	20005a3a <tud_cdc_n_connected+0xa>
20005a46:	f44f 6289 	mov.w	r2, #1096	@ 0x448
20005a4a:	4b03      	ldr	r3, [pc, #12]	@ (20005a58 <tud_cdc_n_connected+0x28>)
20005a4c:	fb02 3304 	mla	r3, r2, r4, r3
20005a50:	7918      	ldrb	r0, [r3, #4]
20005a52:	f000 0001 	and.w	r0, r0, #1
20005a56:	bd10      	pop	{r4, pc}
20005a58:	20010d5c 	.word	0x20010d5c

20005a5c <tud_cdc_n_available>:
20005a5c:	f44f 6289 	mov.w	r2, #1096	@ 0x448
20005a60:	b508      	push	{r3, lr}
20005a62:	4b03      	ldr	r3, [pc, #12]	@ (20005a70 <tud_cdc_n_available+0x14>)
20005a64:	fb02 3000 	mla	r0, r2, r0, r3
20005a68:	f000 fb72 	bl	20006150 <tu_fifo_count>
20005a6c:	bd08      	pop	{r3, pc}
20005a6e:	bf00      	nop
20005a70:	20010d6c 	.word	0x20010d6c

20005a74 <tud_cdc_n_read>:
20005a74:	e92d 43f8 	stmdb	sp!, {r3, r4, r5, r6, r7, r8, r9, lr}
20005a78:	f64f 73ff 	movw	r3, #65535	@ 0xffff
20005a7c:	f44f 6489 	mov.w	r4, #1096	@ 0x448
20005a80:	429a      	cmp	r2, r3
20005a82:	bf28      	it	cs
20005a84:	461a      	movcs	r2, r3
20005a86:	fb00 f404 	mul.w	r4, r0, r4
20005a8a:	f8df 807c 	ldr.w	r8, [pc, #124]	@ 20005b08 <tud_cdc_n_read+0x94>
20005a8e:	f104 0510 	add.w	r5, r4, #16
20005a92:	4445      	add	r5, r8
20005a94:	4606      	mov	r6, r0
20005a96:	b292      	uxth	r2, r2
20005a98:	4628      	mov	r0, r5
20005a9a:	f000 fbcf 	bl	2000623c <tu_fifo_read_n>
20005a9e:	4607      	mov	r7, r0
20005aa0:	f7ff f972 	bl	20004d88 <tud_mounted>
20005aa4:	b910      	cbnz	r0, 20005aac <tud_cdc_n_read+0x38>
20005aa6:	4638      	mov	r0, r7
20005aa8:	e8bd 83f8 	ldmia.w	sp!, {r3, r4, r5, r6, r7, r8, r9, pc}
20005aac:	f7ff f974 	bl	20004d98 <tud_suspended>
20005ab0:	4681      	mov	r9, r0
20005ab2:	2800      	cmp	r0, #0
20005ab4:	d1f7      	bne.n	20005aa6 <tud_cdc_n_read+0x32>
20005ab6:	44a0      	add	r8, r4
20005ab8:	f898 3003 	ldrb.w	r3, [r8, #3]
20005abc:	2b00      	cmp	r3, #0
20005abe:	d0f2      	beq.n	20005aa6 <tud_cdc_n_read+0x32>
20005ac0:	4628      	mov	r0, r5
20005ac2:	f000 fb5f 	bl	20006184 <tu_fifo_remaining>
20005ac6:	f5b0 7f00 	cmp.w	r0, #512	@ 0x200
20005aca:	d3ec      	bcc.n	20005aa6 <tud_cdc_n_read+0x32>
20005acc:	4648      	mov	r0, r9
20005ace:	f898 1003 	ldrb.w	r1, [r8, #3]
20005ad2:	f7ff fe03 	bl	200056dc <usbd_edpt_claim>
20005ad6:	2800      	cmp	r0, #0
20005ad8:	d0e5      	beq.n	20005aa6 <tud_cdc_n_read+0x32>
20005ada:	4628      	mov	r0, r5
20005adc:	f000 fb52 	bl	20006184 <tu_fifo_remaining>
20005ae0:	f5b0 7f00 	cmp.w	r0, #512	@ 0x200
20005ae4:	f898 1003 	ldrb.w	r1, [r8, #3]
20005ae8:	d308      	bcc.n	20005afc <tud_cdc_n_read+0x88>
20005aea:	4a06      	ldr	r2, [pc, #24]	@ (20005b04 <tud_cdc_n_read+0x90>)
20005aec:	4648      	mov	r0, r9
20005aee:	f44f 7300 	mov.w	r3, #512	@ 0x200
20005af2:	eb02 2286 	add.w	r2, r2, r6, lsl #10
20005af6:	f7ff fe15 	bl	20005724 <usbd_edpt_xfer>
20005afa:	e7d4      	b.n	20005aa6 <tud_cdc_n_read+0x32>
20005afc:	4648      	mov	r0, r9
20005afe:	f7ff fdff 	bl	20005700 <usbd_edpt_release>
20005b02:	e7d0      	b.n	20005aa6 <tud_cdc_n_read+0x32>
20005b04:	20010958 	.word	0x20010958
20005b08:	20010d5c 	.word	0x20010d5c

20005b0c <tud_cdc_n_write_flush>:
20005b0c:	e92d 41f0 	stmdb	sp!, {r4, r5, r6, r7, r8, lr}
20005b10:	4604      	mov	r4, r0
20005b12:	f7ff f939 	bl	20004d88 <tud_mounted>
20005b16:	b910      	cbnz	r0, 20005b1e <tud_cdc_n_write_flush+0x12>
20005b18:	2000      	movs	r0, #0
20005b1a:	e8bd 81f0 	ldmia.w	sp!, {r4, r5, r6, r7, r8, pc}
20005b1e:	f7ff f93b 	bl	20004d98 <tud_suspended>
20005b22:	4605      	mov	r5, r0
20005b24:	2800      	cmp	r0, #0
20005b26:	d1f7      	bne.n	20005b18 <tud_cdc_n_write_flush+0xc>
20005b28:	f44f 6689 	mov.w	r6, #1096	@ 0x448
20005b2c:	fb04 f606 	mul.w	r6, r4, r6
20005b30:	f8df 8064 	ldr.w	r8, [pc, #100]	@ 20005b98 <tud_cdc_n_write_flush+0x8c>
20005b34:	f106 0724 	add.w	r7, r6, #36	@ 0x24
20005b38:	4447      	add	r7, r8
20005b3a:	4638      	mov	r0, r7
20005b3c:	f000 fb08 	bl	20006150 <tu_fifo_count>
20005b40:	2800      	cmp	r0, #0
20005b42:	d0e9      	beq.n	20005b18 <tud_cdc_n_write_flush+0xc>
20005b44:	44b0      	add	r8, r6
20005b46:	4628      	mov	r0, r5
20005b48:	f898 1002 	ldrb.w	r1, [r8, #2]
20005b4c:	f7ff fdc6 	bl	200056dc <usbd_edpt_claim>
20005b50:	2800      	cmp	r0, #0
20005b52:	d0e1      	beq.n	20005b18 <tud_cdc_n_write_flush+0xc>
20005b54:	4e0f      	ldr	r6, [pc, #60]	@ (20005b94 <tud_cdc_n_write_flush+0x88>)
20005b56:	4638      	mov	r0, r7
20005b58:	eb06 2684 	add.w	r6, r6, r4, lsl #10
20005b5c:	4631      	mov	r1, r6
20005b5e:	f44f 7200 	mov.w	r2, #512	@ 0x200
20005b62:	f000 fb6b 	bl	2000623c <tu_fifo_read_n>
20005b66:	f898 1002 	ldrb.w	r1, [r8, #2]
20005b6a:	4604      	mov	r4, r0
20005b6c:	b168      	cbz	r0, 20005b8a <tud_cdc_n_write_flush+0x7e>
20005b6e:	4603      	mov	r3, r0
20005b70:	4632      	mov	r2, r6
20005b72:	4628      	mov	r0, r5
20005b74:	f7ff fdd6 	bl	20005724 <usbd_edpt_xfer>
20005b78:	b950      	cbnz	r0, 20005b90 <tud_cdc_n_write_flush+0x84>
20005b7a:	f04f 23e0 	mov.w	r3, #3758153728	@ 0xe000e000
20005b7e:	f8d3 3df0 	ldr.w	r3, [r3, #3568]	@ 0xdf0
20005b82:	07db      	lsls	r3, r3, #31
20005b84:	d5c8      	bpl.n	20005b18 <tud_cdc_n_write_flush+0xc>
20005b86:	be00      	bkpt	0x0000
20005b88:	e7c6      	b.n	20005b18 <tud_cdc_n_write_flush+0xc>
20005b8a:	f7ff fdb9 	bl	20005700 <usbd_edpt_release>
20005b8e:	e7c3      	b.n	20005b18 <tud_cdc_n_write_flush+0xc>
20005b90:	4620      	mov	r0, r4
20005b92:	e7c2      	b.n	20005b1a <tud_cdc_n_write_flush+0xe>
20005b94:	20010b58 	.word	0x20010b58
20005b98:	20010d5c 	.word	0x20010d5c

20005b9c <tud_cdc_n_write>:
20005b9c:	b538      	push	{r3, r4, r5, lr}
20005b9e:	f64f 75ff 	movw	r5, #65535	@ 0xffff
20005ba2:	f44f 6389 	mov.w	r3, #1096	@ 0x448
20005ba6:	42aa      	cmp	r2, r5
20005ba8:	bf28      	it	cs
20005baa:	462a      	movcs	r2, r5
20005bac:	4c0a      	ldr	r4, [pc, #40]	@ (20005bd8 <tud_cdc_n_write+0x3c>)
20005bae:	b292      	uxth	r2, r2
20005bb0:	fb03 4400 	mla	r4, r3, r0, r4
20005bb4:	4605      	mov	r5, r0
20005bb6:	4620      	mov	r0, r4
20005bb8:	f000 fbfe 	bl	200063b8 <tu_fifo_write_n>
20005bbc:	4603      	mov	r3, r0
20005bbe:	4620      	mov	r0, r4
20005bc0:	461c      	mov	r4, r3
20005bc2:	f000 fac5 	bl	20006150 <tu_fifo_count>
20005bc6:	283f      	cmp	r0, #63	@ 0x3f
20005bc8:	d801      	bhi.n	20005bce <tud_cdc_n_write+0x32>
20005bca:	4620      	mov	r0, r4
20005bcc:	bd38      	pop	{r3, r4, r5, pc}
20005bce:	4628      	mov	r0, r5
20005bd0:	f7ff ff9c 	bl	20005b0c <tud_cdc_n_write_flush>
20005bd4:	4620      	mov	r0, r4
20005bd6:	bd38      	pop	{r3, r4, r5, pc}
20005bd8:	20010d80 	.word	0x20010d80

20005bdc <cdcd_init>:
20005bdc:	b5f0      	push	{r4, r5, r6, r7, lr}
20005bde:	2400      	movs	r4, #0
20005be0:	b083      	sub	sp, #12
20005be2:	f44f 6289 	mov.w	r2, #1096	@ 0x448
20005be6:	2100      	movs	r1, #0
20005be8:	4818      	ldr	r0, [pc, #96]	@ (20005c4c <cdcd_init+0x70>)
20005bea:	f003 fcc7 	bl	2000957c <memset>
20005bee:	23ff      	movs	r3, #255	@ 0xff
20005bf0:	f44f 31e1 	mov.w	r1, #115200	@ 0x1c200
20005bf4:	2208      	movs	r2, #8
20005bf6:	4816      	ldr	r0, [pc, #88]	@ (20005c50 <cdcd_init+0x74>)
20005bf8:	7004      	strb	r4, [r0, #0]
20005bfa:	4814      	ldr	r0, [pc, #80]	@ (20005c4c <cdcd_init+0x70>)
20005bfc:	9400      	str	r4, [sp, #0]
20005bfe:	4607      	mov	r7, r0
20005c00:	7143      	strb	r3, [r0, #5]
20005c02:	6081      	str	r1, [r0, #8]
20005c04:	7382      	strb	r2, [r0, #14]
20005c06:	f100 0138 	add.w	r1, r0, #56	@ 0x38
20005c0a:	2301      	movs	r3, #1
20005c0c:	f44f 7200 	mov.w	r2, #512	@ 0x200
20005c10:	3010      	adds	r0, #16
20005c12:	f000 fa6d 	bl	200060f0 <tu_fifo_config>
20005c16:	2301      	movs	r3, #1
20005c18:	f44f 7200 	mov.w	r2, #512	@ 0x200
20005c1c:	f507 710e 	add.w	r1, r7, #568	@ 0x238
20005c20:	9300      	str	r3, [sp, #0]
20005c22:	f507 6687 	add.w	r6, r7, #1080	@ 0x438
20005c26:	f107 0024 	add.w	r0, r7, #36	@ 0x24
20005c2a:	f000 fa61 	bl	200060f0 <tu_fifo_config>
20005c2e:	f507 6588 	add.w	r5, r7, #1088	@ 0x440
20005c32:	4630      	mov	r0, r6
20005c34:	f7fd f91c 	bl	20002e70 <mutex_init>
20005c38:	4628      	mov	r0, r5
20005c3a:	f7fd f919 	bl	20002e70 <mutex_init>
20005c3e:	e9c7 4607 	strd	r4, r6, [r7, #28]
20005c42:	e9c7 540c 	strd	r5, r4, [r7, #48]	@ 0x30
20005c46:	b003      	add	sp, #12
20005c48:	bdf0      	pop	{r4, r5, r6, r7, pc}
20005c4a:	bf00      	nop
20005c4c:	20010d5c 	.word	0x20010d5c
20005c50:	20010d58 	.word	0x20010d58

20005c54 <cdcd_deinit>:
20005c54:	4a0a      	ldr	r2, [pc, #40]	@ (20005c80 <cdcd_deinit+0x2c>)
20005c56:	6b11      	ldr	r1, [r2, #48]	@ 0x30
20005c58:	6a13      	ldr	r3, [r2, #32]
20005c5a:	b161      	cbz	r1, 20005c76 <cdcd_deinit+0x22>
20005c5c:	b13b      	cbz	r3, 20005c6e <cdcd_deinit+0x1a>
20005c5e:	2300      	movs	r3, #0
20005c60:	e9c2 330c 	strd	r3, r3, [r2, #48]	@ 0x30
20005c64:	61d3      	str	r3, [r2, #28]
20005c66:	2300      	movs	r3, #0
20005c68:	6213      	str	r3, [r2, #32]
20005c6a:	2001      	movs	r0, #1
20005c6c:	4770      	bx	lr
20005c6e:	2001      	movs	r0, #1
20005c70:	e9c2 330c 	strd	r3, r3, [r2, #48]	@ 0x30
20005c74:	4770      	bx	lr
20005c76:	2b00      	cmp	r3, #0
20005c78:	d0f7      	beq.n	20005c6a <cdcd_deinit+0x16>
20005c7a:	61d1      	str	r1, [r2, #28]
20005c7c:	e7f3      	b.n	20005c66 <cdcd_deinit+0x12>
20005c7e:	bf00      	nop
20005c80:	20010d5c 	.word	0x20010d5c

20005c84 <cdcd_reset>:
20005c84:	2200      	movs	r2, #0
20005c86:	b510      	push	{r4, lr}
20005c88:	4c0e      	ldr	r4, [pc, #56]	@ (20005cc4 <cdcd_reset+0x40>)
20005c8a:	480f      	ldr	r0, [pc, #60]	@ (20005cc8 <cdcd_reset+0x44>)
20005c8c:	7823      	ldrb	r3, [r4, #0]
20005c8e:	6002      	str	r2, [r0, #0]
20005c90:	7102      	strb	r2, [r0, #4]
20005c92:	07da      	lsls	r2, r3, #31
20005c94:	d507      	bpl.n	20005ca6 <cdcd_reset+0x22>
20005c96:	079b      	lsls	r3, r3, #30
20005c98:	d50b      	bpl.n	20005cb2 <cdcd_reset+0x2e>
20005c9a:	e8bd 4010 	ldmia.w	sp!, {r4, lr}
20005c9e:	2101      	movs	r1, #1
20005ca0:	480a      	ldr	r0, [pc, #40]	@ (20005ccc <cdcd_reset+0x48>)
20005ca2:	f000 bc53 	b.w	2000654c <tu_fifo_set_overwritable>
20005ca6:	3010      	adds	r0, #16
20005ca8:	f000 fc34 	bl	20006514 <tu_fifo_clear>
20005cac:	7823      	ldrb	r3, [r4, #0]
20005cae:	079b      	lsls	r3, r3, #30
20005cb0:	d4f3      	bmi.n	20005c9a <cdcd_reset+0x16>
20005cb2:	4806      	ldr	r0, [pc, #24]	@ (20005ccc <cdcd_reset+0x48>)
20005cb4:	f000 fc2e 	bl	20006514 <tu_fifo_clear>
20005cb8:	e8bd 4010 	ldmia.w	sp!, {r4, lr}
20005cbc:	2101      	movs	r1, #1
20005cbe:	4803      	ldr	r0, [pc, #12]	@ (20005ccc <cdcd_reset+0x48>)
20005cc0:	f000 bc44 	b.w	2000654c <tu_fifo_set_overwritable>
20005cc4:	20010d58 	.word	0x20010d58
20005cc8:	20010d5c 	.word	0x20010d5c
20005ccc:	20010d80 	.word	0x20010d80

20005cd0 <cdcd_open>:
20005cd0:	b5f0      	push	{r4, r5, r6, r7, lr}
20005cd2:	794b      	ldrb	r3, [r1, #5]
20005cd4:	b083      	sub	sp, #12
20005cd6:	2b02      	cmp	r3, #2
20005cd8:	d102      	bne.n	20005ce0 <cdcd_open+0x10>
20005cda:	798b      	ldrb	r3, [r1, #6]
20005cdc:	2b02      	cmp	r3, #2
20005cde:	d003      	beq.n	20005ce8 <cdcd_open+0x18>
20005ce0:	2500      	movs	r5, #0
20005ce2:	4628      	mov	r0, r5
20005ce4:	b003      	add	sp, #12
20005ce6:	bdf0      	pop	{r4, r5, r6, r7, pc}
20005ce8:	4f27      	ldr	r7, [pc, #156]	@ (20005d88 <cdcd_open+0xb8>)
20005cea:	78bb      	ldrb	r3, [r7, #2]
20005cec:	b13b      	cbz	r3, 20005cfe <cdcd_open+0x2e>
20005cee:	f04f 23e0 	mov.w	r3, #3758153728	@ 0xe000e000
20005cf2:	f8d3 3df0 	ldr.w	r3, [r3, #3568]	@ 0xdf0
20005cf6:	07db      	lsls	r3, r3, #31
20005cf8:	d5f2      	bpl.n	20005ce0 <cdcd_open+0x10>
20005cfa:	be00      	bkpt	0x0000
20005cfc:	e7f0      	b.n	20005ce0 <cdcd_open+0x10>
20005cfe:	788b      	ldrb	r3, [r1, #2]
20005d00:	4606      	mov	r6, r0
20005d02:	703b      	strb	r3, [r7, #0]
20005d04:	780b      	ldrb	r3, [r1, #0]
20005d06:	18cc      	adds	r4, r1, r3
20005d08:	7861      	ldrb	r1, [r4, #1]
20005d0a:	2924      	cmp	r1, #36	@ 0x24
20005d0c:	bf08      	it	eq
20005d0e:	2509      	moveq	r5, #9
20005d10:	d007      	beq.n	20005d22 <cdcd_open+0x52>
20005d12:	e036      	b.n	20005d82 <cdcd_open+0xb2>
20005d14:	7823      	ldrb	r3, [r4, #0]
20005d16:	441c      	add	r4, r3
20005d18:	7861      	ldrb	r1, [r4, #1]
20005d1a:	442b      	add	r3, r5
20005d1c:	2924      	cmp	r1, #36	@ 0x24
20005d1e:	b29d      	uxth	r5, r3
20005d20:	d107      	bne.n	20005d32 <cdcd_open+0x62>
20005d22:	42aa      	cmp	r2, r5
20005d24:	d2f6      	bcs.n	20005d14 <cdcd_open+0x44>
20005d26:	2000      	movs	r0, #0
20005d28:	f7ff fe44 	bl	200059b4 <_prep_out_transaction.isra.0>
20005d2c:	4628      	mov	r0, r5
20005d2e:	b003      	add	sp, #12
20005d30:	bdf0      	pop	{r4, r5, r6, r7, pc}
20005d32:	460b      	mov	r3, r1
20005d34:	2905      	cmp	r1, #5
20005d36:	d016      	beq.n	20005d66 <cdcd_open+0x96>
20005d38:	2b04      	cmp	r3, #4
20005d3a:	d1f4      	bne.n	20005d26 <cdcd_open+0x56>
20005d3c:	7963      	ldrb	r3, [r4, #5]
20005d3e:	2b0a      	cmp	r3, #10
20005d40:	d1f1      	bne.n	20005d26 <cdcd_open+0x56>
20005d42:	4b12      	ldr	r3, [pc, #72]	@ (20005d8c <cdcd_open+0xbc>)
20005d44:	7827      	ldrb	r7, [r4, #0]
20005d46:	9301      	str	r3, [sp, #4]
20005d48:	3301      	adds	r3, #1
20005d4a:	9300      	str	r3, [sp, #0]
20005d4c:	2302      	movs	r3, #2
20005d4e:	4630      	mov	r0, r6
20005d50:	461a      	mov	r2, r3
20005d52:	19e1      	adds	r1, r4, r7
20005d54:	f7ff fc52 	bl	200055fc <usbd_open_edpt_pair>
20005d58:	2800      	cmp	r0, #0
20005d5a:	d0c8      	beq.n	20005cee <cdcd_open+0x1e>
20005d5c:	350e      	adds	r5, #14
20005d5e:	fa17 f585 	uxtah	r5, r7, r5
20005d62:	b2ad      	uxth	r5, r5
20005d64:	e7df      	b.n	20005d26 <cdcd_open+0x56>
20005d66:	4621      	mov	r1, r4
20005d68:	4630      	mov	r0, r6
20005d6a:	f7ff fc95 	bl	20005698 <usbd_edpt_open>
20005d6e:	2800      	cmp	r0, #0
20005d70:	d0bd      	beq.n	20005cee <cdcd_open+0x1e>
20005d72:	78a3      	ldrb	r3, [r4, #2]
20005d74:	707b      	strb	r3, [r7, #1]
20005d76:	7823      	ldrb	r3, [r4, #0]
20005d78:	195a      	adds	r2, r3, r5
20005d7a:	441c      	add	r4, r3
20005d7c:	7863      	ldrb	r3, [r4, #1]
20005d7e:	b295      	uxth	r5, r2
20005d80:	e7da      	b.n	20005d38 <cdcd_open+0x68>
20005d82:	460b      	mov	r3, r1
20005d84:	2509      	movs	r5, #9
20005d86:	e7d5      	b.n	20005d34 <cdcd_open+0x64>
20005d88:	20010d5c 	.word	0x20010d5c
20005d8c:	20010d5e 	.word	0x20010d5e

20005d90 <cdcd_control_xfer_cb>:
20005d90:	7813      	ldrb	r3, [r2, #0]
20005d92:	f003 0360 	and.w	r3, r3, #96	@ 0x60
20005d96:	2b20      	cmp	r3, #32
20005d98:	d108      	bne.n	20005dac <cdcd_control_xfer_cb+0x1c>
20005d9a:	b570      	push	{r4, r5, r6, lr}
20005d9c:	4c26      	ldr	r4, [pc, #152]	@ (20005e38 <cdcd_control_xfer_cb+0xa8>)
20005d9e:	8893      	ldrh	r3, [r2, #4]
20005da0:	f894 c000 	ldrb.w	ip, [r4]
20005da4:	459c      	cmp	ip, r3
20005da6:	d003      	beq.n	20005db0 <cdcd_control_xfer_cb+0x20>
20005da8:	2000      	movs	r0, #0
20005daa:	bd70      	pop	{r4, r5, r6, pc}
20005dac:	2000      	movs	r0, #0
20005dae:	4770      	bx	lr
20005db0:	7853      	ldrb	r3, [r2, #1]
20005db2:	3b20      	subs	r3, #32
20005db4:	2b03      	cmp	r3, #3
20005db6:	d8f7      	bhi.n	20005da8 <cdcd_control_xfer_cb+0x18>
20005db8:	e8df f003 	tbb	[pc, r3]
20005dbc:	020d2327 	.word	0x020d2327
20005dc0:	2901      	cmp	r1, #1
20005dc2:	d02e      	beq.n	20005e22 <cdcd_control_xfer_cb+0x92>
20005dc4:	2903      	cmp	r1, #3
20005dc6:	d11e      	bne.n	20005e06 <cdcd_control_xfer_cb+0x76>
20005dc8:	4b1c      	ldr	r3, [pc, #112]	@ (20005e3c <cdcd_control_xfer_cb+0xac>)
20005dca:	b1e3      	cbz	r3, 20005e06 <cdcd_control_xfer_cb+0x76>
20005dcc:	2000      	movs	r0, #0
20005dce:	8851      	ldrh	r1, [r2, #2]
20005dd0:	f3af 8000 	nop.w
20005dd4:	e017      	b.n	20005e06 <cdcd_control_xfer_cb+0x76>
20005dd6:	2901      	cmp	r1, #1
20005dd8:	d023      	beq.n	20005e22 <cdcd_control_xfer_cb+0x92>
20005dda:	2903      	cmp	r1, #3
20005ddc:	d113      	bne.n	20005e06 <cdcd_control_xfer_cb+0x76>
20005dde:	8855      	ldrh	r5, [r2, #2]
20005de0:	4817      	ldr	r0, [pc, #92]	@ (20005e40 <cdcd_control_xfer_cb+0xb0>)
20005de2:	f005 0601 	and.w	r6, r5, #1
20005de6:	f086 0101 	eor.w	r1, r6, #1
20005dea:	7125      	strb	r5, [r4, #4]
20005dec:	f000 fbae 	bl	2000654c <tu_fifo_set_overwritable>
20005df0:	4b14      	ldr	r3, [pc, #80]	@ (20005e44 <cdcd_control_xfer_cb+0xb4>)
20005df2:	b143      	cbz	r3, 20005e06 <cdcd_control_xfer_cb+0x76>
20005df4:	4631      	mov	r1, r6
20005df6:	2000      	movs	r0, #0
20005df8:	f3c5 0240 	ubfx	r2, r5, #1, #1
20005dfc:	f3af 8000 	nop.w
20005e00:	e001      	b.n	20005e06 <cdcd_control_xfer_cb+0x76>
20005e02:	2901      	cmp	r1, #1
20005e04:	d011      	beq.n	20005e2a <cdcd_control_xfer_cb+0x9a>
20005e06:	2001      	movs	r0, #1
20005e08:	bd70      	pop	{r4, r5, r6, pc}
20005e0a:	2901      	cmp	r1, #1
20005e0c:	d00d      	beq.n	20005e2a <cdcd_control_xfer_cb+0x9a>
20005e0e:	2903      	cmp	r1, #3
20005e10:	d1f9      	bne.n	20005e06 <cdcd_control_xfer_cb+0x76>
20005e12:	4b0d      	ldr	r3, [pc, #52]	@ (20005e48 <cdcd_control_xfer_cb+0xb8>)
20005e14:	2b00      	cmp	r3, #0
20005e16:	d0f6      	beq.n	20005e06 <cdcd_control_xfer_cb+0x76>
20005e18:	2000      	movs	r0, #0
20005e1a:	490c      	ldr	r1, [pc, #48]	@ (20005e4c <cdcd_control_xfer_cb+0xbc>)
20005e1c:	f3af 8000 	nop.w
20005e20:	e7f1      	b.n	20005e06 <cdcd_control_xfer_cb+0x76>
20005e22:	4611      	mov	r1, r2
20005e24:	f7ff fcb6 	bl	20005794 <tud_control_status>
20005e28:	e7ed      	b.n	20005e06 <cdcd_control_xfer_cb+0x76>
20005e2a:	4611      	mov	r1, r2
20005e2c:	2307      	movs	r3, #7
20005e2e:	4a07      	ldr	r2, [pc, #28]	@ (20005e4c <cdcd_control_xfer_cb+0xbc>)
20005e30:	f7ff fcca 	bl	200057c8 <tud_control_xfer>
20005e34:	e7e7      	b.n	20005e06 <cdcd_control_xfer_cb+0x76>
20005e36:	bf00      	nop
20005e38:	20010d5c 	.word	0x20010d5c
20005e3c:	00000000 	.word	0x00000000
20005e40:	20010d80 	.word	0x20010d80
	...
20005e4c:	20010d64 	.word	0x20010d64

20005e50 <cdcd_xfer_cb>:
20005e50:	e92d 43f8 	stmdb	sp!, {r3, r4, r5, r6, r7, r8, r9, lr}
20005e54:	4e35      	ldr	r6, [pc, #212]	@ (20005f2c <cdcd_xfer_cb+0xdc>)
20005e56:	460c      	mov	r4, r1
20005e58:	78f2      	ldrb	r2, [r6, #3]
20005e5a:	4607      	mov	r7, r0
20005e5c:	428a      	cmp	r2, r1
20005e5e:	461d      	mov	r5, r3
20005e60:	d03d      	beq.n	20005ede <cdcd_xfer_cb+0x8e>
20005e62:	78b3      	ldrb	r3, [r6, #2]
20005e64:	428b      	cmp	r3, r1
20005e66:	d012      	beq.n	20005e8e <cdcd_xfer_cb+0x3e>
20005e68:	f04f 23e0 	mov.w	r3, #3758153728	@ 0xe000e000
20005e6c:	f8d3 3df0 	ldr.w	r3, [r3, #3568]	@ 0xdf0
20005e70:	07db      	lsls	r3, r3, #31
20005e72:	d432      	bmi.n	20005eda <cdcd_xfer_cb+0x8a>
20005e74:	2000      	movs	r0, #0
20005e76:	e8bd 83f8 	ldmia.w	sp!, {r3, r4, r5, r6, r7, r8, r9, pc}
20005e7a:	4b2d      	ldr	r3, [pc, #180]	@ (20005f30 <cdcd_xfer_cb+0xe0>)
20005e7c:	b123      	cbz	r3, 20005e88 <cdcd_xfer_cb+0x38>
20005e7e:	482d      	ldr	r0, [pc, #180]	@ (20005f34 <cdcd_xfer_cb+0xe4>)
20005e80:	f000 f976 	bl	20006170 <tu_fifo_empty>
20005e84:	2800      	cmp	r0, #0
20005e86:	d04d      	beq.n	20005f24 <cdcd_xfer_cb+0xd4>
20005e88:	2000      	movs	r0, #0
20005e8a:	f7ff fd93 	bl	200059b4 <_prep_out_transaction.isra.0>
20005e8e:	78b3      	ldrb	r3, [r6, #2]
20005e90:	42a3      	cmp	r3, r4
20005e92:	d001      	beq.n	20005e98 <cdcd_xfer_cb+0x48>
20005e94:	2001      	movs	r0, #1
20005e96:	e7ee      	b.n	20005e76 <cdcd_xfer_cb+0x26>
20005e98:	4b27      	ldr	r3, [pc, #156]	@ (20005f38 <cdcd_xfer_cb+0xe8>)
20005e9a:	b113      	cbz	r3, 20005ea2 <cdcd_xfer_cb+0x52>
20005e9c:	2000      	movs	r0, #0
20005e9e:	f3af 8000 	nop.w
20005ea2:	2000      	movs	r0, #0
20005ea4:	f7ff fe32 	bl	20005b0c <tud_cdc_n_write_flush>
20005ea8:	2800      	cmp	r0, #0
20005eaa:	d1f3      	bne.n	20005e94 <cdcd_xfer_cb+0x44>
20005eac:	4823      	ldr	r0, [pc, #140]	@ (20005f3c <cdcd_xfer_cb+0xec>)
20005eae:	f000 f94f 	bl	20006150 <tu_fifo_count>
20005eb2:	2800      	cmp	r0, #0
20005eb4:	d1ee      	bne.n	20005e94 <cdcd_xfer_cb+0x44>
20005eb6:	2d00      	cmp	r5, #0
20005eb8:	d0ec      	beq.n	20005e94 <cdcd_xfer_cb+0x44>
20005eba:	f015 053f 	ands.w	r5, r5, #63	@ 0x3f
20005ebe:	d1e9      	bne.n	20005e94 <cdcd_xfer_cb+0x44>
20005ec0:	4638      	mov	r0, r7
20005ec2:	78b1      	ldrb	r1, [r6, #2]
20005ec4:	f7ff fc0a 	bl	200056dc <usbd_edpt_claim>
20005ec8:	2800      	cmp	r0, #0
20005eca:	d0e3      	beq.n	20005e94 <cdcd_xfer_cb+0x44>
20005ecc:	462b      	mov	r3, r5
20005ece:	462a      	mov	r2, r5
20005ed0:	4638      	mov	r0, r7
20005ed2:	78b1      	ldrb	r1, [r6, #2]
20005ed4:	f7ff fc26 	bl	20005724 <usbd_edpt_xfer>
20005ed8:	e7dc      	b.n	20005e94 <cdcd_xfer_cb+0x44>
20005eda:	be00      	bkpt	0x0000
20005edc:	e7ca      	b.n	20005e74 <cdcd_xfer_cb+0x24>
20005ede:	b29a      	uxth	r2, r3
20005ee0:	4917      	ldr	r1, [pc, #92]	@ (20005f40 <cdcd_xfer_cb+0xf0>)
20005ee2:	f106 0010 	add.w	r0, r6, #16
20005ee6:	f000 fa67 	bl	200063b8 <tu_fifo_write_n>
20005eea:	4b16      	ldr	r3, [pc, #88]	@ (20005f44 <cdcd_xfer_cb+0xf4>)
20005eec:	2b00      	cmp	r3, #0
20005eee:	d0c4      	beq.n	20005e7a <cdcd_xfer_cb+0x2a>
20005ef0:	7973      	ldrb	r3, [r6, #5]
20005ef2:	2bff      	cmp	r3, #255	@ 0xff
20005ef4:	d0c1      	beq.n	20005e7a <cdcd_xfer_cb+0x2a>
20005ef6:	2d00      	cmp	r5, #0
20005ef8:	d0bf      	beq.n	20005e7a <cdcd_xfer_cb+0x2a>
20005efa:	f8df 8044 	ldr.w	r8, [pc, #68]	@ 20005f40 <cdcd_xfer_cb+0xf0>
20005efe:	eb08 0905 	add.w	r9, r8, r5
20005f02:	e002      	b.n	20005f0a <cdcd_xfer_cb+0xba>
20005f04:	45c8      	cmp	r8, r9
20005f06:	d0b8      	beq.n	20005e7a <cdcd_xfer_cb+0x2a>
20005f08:	7973      	ldrb	r3, [r6, #5]
20005f0a:	f818 2b01 	ldrb.w	r2, [r8], #1
20005f0e:	429a      	cmp	r2, r3
20005f10:	d1f8      	bne.n	20005f04 <cdcd_xfer_cb+0xb4>
20005f12:	4808      	ldr	r0, [pc, #32]	@ (20005f34 <cdcd_xfer_cb+0xe4>)
20005f14:	f000 f92c 	bl	20006170 <tu_fifo_empty>
20005f18:	2800      	cmp	r0, #0
20005f1a:	d1f3      	bne.n	20005f04 <cdcd_xfer_cb+0xb4>
20005f1c:	7971      	ldrb	r1, [r6, #5]
20005f1e:	f3af 8000 	nop.w
20005f22:	e7ef      	b.n	20005f04 <cdcd_xfer_cb+0xb4>
20005f24:	f3af 8000 	nop.w
20005f28:	e7ae      	b.n	20005e88 <cdcd_xfer_cb+0x38>
20005f2a:	bf00      	nop
20005f2c:	20010d5c 	.word	0x20010d5c
20005f30:	00000000 	.word	0x00000000
20005f34:	20010d6c 	.word	0x20010d6c
20005f38:	00000000 	.word	0x00000000
20005f3c:	20010d80 	.word	0x20010d80
20005f40:	20010958 	.word	0x20010958
20005f44:	00000000 	.word	0x00000000

20005f48 <tusb_rhport_init>:
20005f48:	b510      	push	{r4, lr}
20005f4a:	b082      	sub	sp, #8
20005f4c:	b1c9      	cbz	r1, 20005f82 <tusb_rhport_init+0x3a>
20005f4e:	2801      	cmp	r0, #1
20005f50:	d80c      	bhi.n	20005f6c <tusb_rhport_init+0x24>
20005f52:	780b      	ldrb	r3, [r1, #0]
20005f54:	b153      	cbz	r3, 20005f6c <tusb_rhport_init+0x24>
20005f56:	4c14      	ldr	r4, [pc, #80]	@ (20005fa8 <tusb_rhport_init+0x60>)
20005f58:	2b01      	cmp	r3, #1
20005f5a:	5423      	strb	r3, [r4, r0]
20005f5c:	d002      	beq.n	20005f64 <tusb_rhport_init+0x1c>
20005f5e:	2001      	movs	r0, #1
20005f60:	b002      	add	sp, #8
20005f62:	bd10      	pop	{r4, pc}
20005f64:	f7fe ff20 	bl	20004da8 <tud_rhport_init>
20005f68:	2800      	cmp	r0, #0
20005f6a:	d1f8      	bne.n	20005f5e <tusb_rhport_init+0x16>
20005f6c:	f04f 23e0 	mov.w	r3, #3758153728	@ 0xe000e000
20005f70:	f8d3 3df0 	ldr.w	r3, [r3, #3568]	@ 0xdf0
20005f74:	07db      	lsls	r3, r3, #31
20005f76:	d402      	bmi.n	20005f7e <tusb_rhport_init+0x36>
20005f78:	2000      	movs	r0, #0
20005f7a:	b002      	add	sp, #8
20005f7c:	bd10      	pop	{r4, pc}
20005f7e:	be00      	bkpt	0x0000
20005f80:	e7fa      	b.n	20005f78 <tusb_rhport_init+0x30>
20005f82:	2401      	movs	r4, #1
20005f84:	4608      	mov	r0, r1
20005f86:	a901      	add	r1, sp, #4
20005f88:	f8ad 4004 	strh.w	r4, [sp, #4]
20005f8c:	f7fe ff0c 	bl	20004da8 <tud_rhport_init>
20005f90:	b938      	cbnz	r0, 20005fa2 <tusb_rhport_init+0x5a>
20005f92:	f04f 23e0 	mov.w	r3, #3758153728	@ 0xe000e000
20005f96:	f8d3 3df0 	ldr.w	r3, [r3, #3568]	@ 0xdf0
20005f9a:	07da      	lsls	r2, r3, #31
20005f9c:	d5ed      	bpl.n	20005f7a <tusb_rhport_init+0x32>
20005f9e:	be00      	bkpt	0x0000
20005fa0:	e7eb      	b.n	20005f7a <tusb_rhport_init+0x32>
20005fa2:	4b01      	ldr	r3, [pc, #4]	@ (20005fa8 <tusb_rhport_init+0x60>)
20005fa4:	701c      	strb	r4, [r3, #0]
20005fa6:	e7e8      	b.n	20005f7a <tusb_rhport_init+0x32>
20005fa8:	20011258 	.word	0x20011258

20005fac <tu_edpt_claim>:
20005fac:	b5f8      	push	{r3, r4, r5, r6, r7, lr}
20005fae:	7803      	ldrb	r3, [r0, #0]
20005fb0:	f013 0401 	ands.w	r4, r3, #1
20005fb4:	d11a      	bne.n	20005fec <tu_edpt_claim+0x40>
20005fb6:	7803      	ldrb	r3, [r0, #0]
20005fb8:	4605      	mov	r5, r0
20005fba:	075a      	lsls	r2, r3, #29
20005fbc:	f3c3 0780 	ubfx	r7, r3, #2, #1
20005fc0:	d501      	bpl.n	20005fc6 <tu_edpt_claim+0x1a>
20005fc2:	4620      	mov	r0, r4
20005fc4:	bdf8      	pop	{r3, r4, r5, r6, r7, pc}
20005fc6:	460e      	mov	r6, r1
20005fc8:	f04f 31ff 	mov.w	r1, #4294967295
20005fcc:	4630      	mov	r0, r6
20005fce:	f007 fd91 	bl	2000daf4 <mutex_enter_timeout_ms>
20005fd2:	782b      	ldrb	r3, [r5, #0]
20005fd4:	f013 0401 	ands.w	r4, r3, #1
20005fd8:	d10b      	bne.n	20005ff2 <tu_edpt_claim+0x46>
20005fda:	782b      	ldrb	r3, [r5, #0]
20005fdc:	075b      	lsls	r3, r3, #29
20005fde:	d409      	bmi.n	20005ff4 <tu_edpt_claim+0x48>
20005fe0:	782b      	ldrb	r3, [r5, #0]
20005fe2:	2401      	movs	r4, #1
20005fe4:	f043 0304 	orr.w	r3, r3, #4
20005fe8:	702b      	strb	r3, [r5, #0]
20005fea:	e003      	b.n	20005ff4 <tu_edpt_claim+0x48>
20005fec:	2400      	movs	r4, #0
20005fee:	4620      	mov	r0, r4
20005ff0:	bdf8      	pop	{r3, r4, r5, r6, r7, pc}
20005ff2:	463c      	mov	r4, r7
20005ff4:	4630      	mov	r0, r6
20005ff6:	f007 fd99 	bl	2000db2c <mutex_exit>
20005ffa:	4620      	mov	r0, r4
20005ffc:	bdf8      	pop	{r3, r4, r5, r6, r7, pc}
20005ffe:	bf00      	nop

20006000 <tu_edpt_release>:
20006000:	b570      	push	{r4, r5, r6, lr}
20006002:	460c      	mov	r4, r1
20006004:	4605      	mov	r5, r0
20006006:	f04f 31ff 	mov.w	r1, #4294967295
2000600a:	4620      	mov	r0, r4
2000600c:	f007 fd72 	bl	2000daf4 <mutex_enter_timeout_ms>
20006010:	782b      	ldrb	r3, [r5, #0]
20006012:	f3c3 0680 	ubfx	r6, r3, #2, #1
20006016:	075b      	lsls	r3, r3, #29
20006018:	d508      	bpl.n	2000602c <tu_edpt_release+0x2c>
2000601a:	782b      	ldrb	r3, [r5, #0]
2000601c:	f013 0301 	ands.w	r3, r3, #1
20006020:	bf11      	iteee	ne
20006022:	2600      	movne	r6, #0
20006024:	782a      	ldrbeq	r2, [r5, #0]
20006026:	f363 0282 	bfieq	r2, r3, #2, #1
2000602a:	702a      	strbeq	r2, [r5, #0]
2000602c:	4620      	mov	r0, r4
2000602e:	f007 fd7d 	bl	2000db2c <mutex_exit>
20006032:	4630      	mov	r0, r6
20006034:	bd70      	pop	{r4, r5, r6, pc}
20006036:	bf00      	nop

20006038 <tu_edpt_validate>:
20006038:	78c3      	ldrb	r3, [r0, #3]
2000603a:	8882      	ldrh	r2, [r0, #4]
2000603c:	f003 0003 	and.w	r0, r3, #3
20006040:	2802      	cmp	r0, #2
20006042:	f3c2 020a 	ubfx	r2, r2, #0, #11
20006046:	d015      	beq.n	20006074 <tu_edpt_validate+0x3c>
20006048:	2803      	cmp	r0, #3
2000604a:	d00a      	beq.n	20006062 <tu_edpt_validate+0x2a>
2000604c:	2801      	cmp	r0, #1
2000604e:	d11c      	bne.n	2000608a <tu_edpt_validate+0x52>
20006050:	2902      	cmp	r1, #2
20006052:	f240 33ff 	movw	r3, #1023	@ 0x3ff
20006056:	bf08      	it	eq
20006058:	f44f 6380 	moveq.w	r3, #1024	@ 0x400
2000605c:	4293      	cmp	r3, r2
2000605e:	d30d      	bcc.n	2000607c <tu_edpt_validate+0x44>
20006060:	4770      	bx	lr
20006062:	2902      	cmp	r1, #2
20006064:	bf14      	ite	ne
20006066:	2340      	movne	r3, #64	@ 0x40
20006068:	f44f 6380 	moveq.w	r3, #1024	@ 0x400
2000606c:	4293      	cmp	r3, r2
2000606e:	d305      	bcc.n	2000607c <tu_edpt_validate+0x44>
20006070:	2001      	movs	r0, #1
20006072:	4770      	bx	lr
20006074:	2902      	cmp	r1, #2
20006076:	d00a      	beq.n	2000608e <tu_edpt_validate+0x56>
20006078:	2a40      	cmp	r2, #64	@ 0x40
2000607a:	d9f9      	bls.n	20006070 <tu_edpt_validate+0x38>
2000607c:	f04f 23e0 	mov.w	r3, #3758153728	@ 0xe000e000
20006080:	f8d3 3df0 	ldr.w	r3, [r3, #3568]	@ 0xdf0
20006084:	07db      	lsls	r3, r3, #31
20006086:	d500      	bpl.n	2000608a <tu_edpt_validate+0x52>
20006088:	be00      	bkpt	0x0000
2000608a:	2000      	movs	r0, #0
2000608c:	4770      	bx	lr
2000608e:	f5b2 7f00 	cmp.w	r2, #512	@ 0x200
20006092:	d0ed      	beq.n	20006070 <tu_edpt_validate+0x38>
20006094:	e7f2      	b.n	2000607c <tu_edpt_validate+0x44>
20006096:	bf00      	nop

20006098 <tu_edpt_bind_driver>:
20006098:	440a      	add	r2, r1
2000609a:	4291      	cmp	r1, r2
2000609c:	d226      	bcs.n	200060ec <tu_edpt_bind_driver+0x54>
2000609e:	f891 c001 	ldrb.w	ip, [r1, #1]
200060a2:	f1bc 0f05 	cmp.w	ip, #5
200060a6:	d005      	beq.n	200060b4 <tu_edpt_bind_driver+0x1c>
200060a8:	f891 c000 	ldrb.w	ip, [r1]
200060ac:	4461      	add	r1, ip
200060ae:	428a      	cmp	r2, r1
200060b0:	d8f5      	bhi.n	2000609e <tu_edpt_bind_driver+0x6>
200060b2:	4770      	bx	lr
200060b4:	b500      	push	{lr}
200060b6:	f891 c002 	ldrb.w	ip, [r1, #2]
200060ba:	f00c 0e7f 	and.w	lr, ip, #127	@ 0x7f
200060be:	eb00 0e4e 	add.w	lr, r0, lr, lsl #1
200060c2:	ea4f 1cdc 	mov.w	ip, ip, lsr #7
200060c6:	f80e 300c 	strb.w	r3, [lr, ip]
200060ca:	f891 c000 	ldrb.w	ip, [r1]
200060ce:	4461      	add	r1, ip
200060d0:	428a      	cmp	r2, r1
200060d2:	d909      	bls.n	200060e8 <tu_edpt_bind_driver+0x50>
200060d4:	f891 c001 	ldrb.w	ip, [r1, #1]
200060d8:	f1bc 0f05 	cmp.w	ip, #5
200060dc:	d0eb      	beq.n	200060b6 <tu_edpt_bind_driver+0x1e>
200060de:	f891 c000 	ldrb.w	ip, [r1]
200060e2:	4461      	add	r1, ip
200060e4:	428a      	cmp	r2, r1
200060e6:	d8f5      	bhi.n	200060d4 <tu_edpt_bind_driver+0x3c>
200060e8:	f85d fb04 	ldr.w	pc, [sp], #4
200060ec:	4770      	bx	lr
200060ee:	bf00      	nop

200060f0 <tu_fifo_config>:
200060f0:	e92d 41f0 	stmdb	sp!, {r4, r5, r6, r7, r8, lr}
200060f4:	f5b2 4f00 	cmp.w	r2, #32768	@ 0x8000
200060f8:	f89d 8018 	ldrb.w	r8, [sp, #24]
200060fc:	d824      	bhi.n	20006148 <tu_fifo_config+0x58>
200060fe:	4604      	mov	r4, r0
20006100:	68c0      	ldr	r0, [r0, #12]
20006102:	4617      	mov	r7, r2
20006104:	460e      	mov	r6, r1
20006106:	461d      	mov	r5, r3
20006108:	b118      	cbz	r0, 20006112 <tu_fifo_config+0x22>
2000610a:	f04f 31ff 	mov.w	r1, #4294967295
2000610e:	f007 fcf1 	bl	2000daf4 <mutex_enter_timeout_ms>
20006112:	6920      	ldr	r0, [r4, #16]
20006114:	b118      	cbz	r0, 2000611e <tu_fifo_config+0x2e>
20006116:	f04f 31ff 	mov.w	r1, #4294967295
2000611a:	f007 fceb 	bl	2000daf4 <mutex_enter_timeout_ms>
2000611e:	2200      	movs	r2, #0
20006120:	f3c5 030e 	ubfx	r3, r5, #0, #15
20006124:	68e0      	ldr	r0, [r4, #12]
20006126:	ea43 33c8 	orr.w	r3, r3, r8, lsl #15
2000612a:	8162      	strh	r2, [r4, #10]
2000612c:	6026      	str	r6, [r4, #0]
2000612e:	80a7      	strh	r7, [r4, #4]
20006130:	80e3      	strh	r3, [r4, #6]
20006132:	8122      	strh	r2, [r4, #8]
20006134:	b108      	cbz	r0, 2000613a <tu_fifo_config+0x4a>
20006136:	f007 fcf9 	bl	2000db2c <mutex_exit>
2000613a:	6920      	ldr	r0, [r4, #16]
2000613c:	b108      	cbz	r0, 20006142 <tu_fifo_config+0x52>
2000613e:	f007 fcf5 	bl	2000db2c <mutex_exit>
20006142:	2001      	movs	r0, #1
20006144:	e8bd 81f0 	ldmia.w	sp!, {r4, r5, r6, r7, r8, pc}
20006148:	2000      	movs	r0, #0
2000614a:	e8bd 81f0 	ldmia.w	sp!, {r4, r5, r6, r7, r8, pc}
2000614e:	bf00      	nop

20006150 <tu_fifo_count>:
20006150:	8903      	ldrh	r3, [r0, #8]
20006152:	8942      	ldrh	r2, [r0, #10]
20006154:	b29b      	uxth	r3, r3
20006156:	b292      	uxth	r2, r2
20006158:	8880      	ldrh	r0, [r0, #4]
2000615a:	4293      	cmp	r3, r2
2000615c:	bf36      	itet	cc
2000615e:	ebc2 0240 	rsbcc	r2, r2, r0, lsl #1
20006162:	1a9b      	subcs	r3, r3, r2
20006164:	189b      	addcc	r3, r3, r2
20006166:	b29b      	uxth	r3, r3
20006168:	4298      	cmp	r0, r3
2000616a:	bf28      	it	cs
2000616c:	4618      	movcs	r0, r3
2000616e:	4770      	bx	lr

20006170 <tu_fifo_empty>:
20006170:	8902      	ldrh	r2, [r0, #8]
20006172:	8943      	ldrh	r3, [r0, #10]
20006174:	b290      	uxth	r0, r2
20006176:	b29b      	uxth	r3, r3
20006178:	1ac0      	subs	r0, r0, r3
2000617a:	fab0 f080 	clz	r0, r0
2000617e:	0940      	lsrs	r0, r0, #5
20006180:	4770      	bx	lr
20006182:	bf00      	nop

20006184 <tu_fifo_remaining>:
20006184:	8903      	ldrh	r3, [r0, #8]
20006186:	8942      	ldrh	r2, [r0, #10]
20006188:	b29b      	uxth	r3, r3
2000618a:	8880      	ldrh	r0, [r0, #4]
2000618c:	b292      	uxth	r2, r2
2000618e:	4293      	cmp	r3, r2
20006190:	bf36      	itet	cc
20006192:	ebc2 0240 	rsbcc	r2, r2, r0, lsl #1
20006196:	1a9b      	subcs	r3, r3, r2
20006198:	189b      	addcc	r3, r3, r2
2000619a:	b29b      	uxth	r3, r3
2000619c:	4298      	cmp	r0, r3
2000619e:	bf86      	itte	hi
200061a0:	1ac0      	subhi	r0, r0, r3
200061a2:	b280      	uxthhi	r0, r0
200061a4:	2000      	movls	r0, #0
200061a6:	4770      	bx	lr

200061a8 <tu_fifo_read>:
200061a8:	b538      	push	{r3, r4, r5, lr}
200061aa:	4604      	mov	r4, r0
200061ac:	6900      	ldr	r0, [r0, #16]
200061ae:	460d      	mov	r5, r1
200061b0:	b118      	cbz	r0, 200061ba <tu_fifo_read+0x12>
200061b2:	f04f 31ff 	mov.w	r1, #4294967295
200061b6:	f007 fc9d 	bl	2000daf4 <mutex_enter_timeout_ms>
200061ba:	8921      	ldrh	r1, [r4, #8]
200061bc:	8963      	ldrh	r3, [r4, #10]
200061be:	b289      	uxth	r1, r1
200061c0:	b29b      	uxth	r3, r3
200061c2:	88a2      	ldrh	r2, [r4, #4]
200061c4:	4299      	cmp	r1, r3
200061c6:	bf36      	itet	cc
200061c8:	ebc3 0042 	rsbcc	r0, r3, r2, lsl #1
200061cc:	1ac8      	subcs	r0, r1, r3
200061ce:	1840      	addcc	r0, r0, r1
200061d0:	b280      	uxth	r0, r0
200061d2:	b350      	cbz	r0, 2000622a <tu_fifo_read+0x82>
200061d4:	4282      	cmp	r2, r0
200061d6:	d209      	bcs.n	200061ec <tu_fifo_read+0x44>
200061d8:	4291      	cmp	r1, r2
200061da:	bf2c      	ite	cs
200061dc:	1a89      	subcs	r1, r1, r2
200061de:	1889      	addcc	r1, r1, r2
200061e0:	b28b      	uxth	r3, r1
200061e2:	429a      	cmp	r2, r3
200061e4:	8163      	strh	r3, [r4, #10]
200061e6:	d803      	bhi.n	200061f0 <tu_fifo_read+0x48>
200061e8:	1a9b      	subs	r3, r3, r2
200061ea:	b29b      	uxth	r3, r3
200061ec:	429a      	cmp	r2, r3
200061ee:	d9fb      	bls.n	200061e8 <tu_fifo_read+0x40>
200061f0:	88e2      	ldrh	r2, [r4, #6]
200061f2:	6821      	ldr	r1, [r4, #0]
200061f4:	f3c2 020e 	ubfx	r2, r2, #0, #15
200061f8:	fb02 1103 	mla	r1, r2, r3, r1
200061fc:	4628      	mov	r0, r5
200061fe:	f003 fa6f 	bl	200096e0 <memcpy>
20006202:	8961      	ldrh	r1, [r4, #10]
20006204:	2501      	movs	r5, #1
20006206:	b289      	uxth	r1, r1
20006208:	1c4b      	adds	r3, r1, #1
2000620a:	b29b      	uxth	r3, r3
2000620c:	4299      	cmp	r1, r3
2000620e:	88a2      	ldrh	r2, [r4, #4]
20006210:	d90e      	bls.n	20006230 <tu_fifo_read+0x88>
20006212:	2300      	movs	r3, #0
20006214:	fa02 f105 	lsl.w	r1, r2, r5
20006218:	1a5b      	subs	r3, r3, r1
2000621a:	b29b      	uxth	r3, r3
2000621c:	6920      	ldr	r0, [r4, #16]
2000621e:	8163      	strh	r3, [r4, #10]
20006220:	b108      	cbz	r0, 20006226 <tu_fifo_read+0x7e>
20006222:	f007 fc83 	bl	2000db2c <mutex_exit>
20006226:	4628      	mov	r0, r5
20006228:	bd38      	pop	{r3, r4, r5, pc}
2000622a:	4605      	mov	r5, r0
2000622c:	8963      	ldrh	r3, [r4, #10]
2000622e:	b29b      	uxth	r3, r3
20006230:	ebb3 0f42 	cmp.w	r3, r2, lsl #1
20006234:	ea4f 0142 	mov.w	r1, r2, lsl #1
20006238:	dbf0      	blt.n	2000621c <tu_fifo_read+0x74>
2000623a:	e7ed      	b.n	20006218 <tu_fifo_read+0x70>

2000623c <tu_fifo_read_n>:
2000623c:	e92d 47f0 	stmdb	sp!, {r4, r5, r6, r7, r8, r9, sl, lr}
20006240:	4606      	mov	r6, r0
20006242:	6900      	ldr	r0, [r0, #16]
20006244:	4688      	mov	r8, r1
20006246:	4691      	mov	r9, r2
20006248:	b118      	cbz	r0, 20006252 <tu_fifo_read_n+0x16>
2000624a:	f04f 31ff 	mov.w	r1, #4294967295
2000624e:	f007 fc51 	bl	2000daf4 <mutex_enter_timeout_ms>
20006252:	8933      	ldrh	r3, [r6, #8]
20006254:	8974      	ldrh	r4, [r6, #10]
20006256:	b29b      	uxth	r3, r3
20006258:	b2a4      	uxth	r4, r4
2000625a:	88b5      	ldrh	r5, [r6, #4]
2000625c:	42a3      	cmp	r3, r4
2000625e:	bf36      	itet	cc
20006260:	ebc4 0745 	rsbcc	r7, r4, r5, lsl #1
20006264:	1b1f      	subcs	r7, r3, r4
20006266:	18ff      	addcc	r7, r7, r3
20006268:	b2bf      	uxth	r7, r7
2000626a:	2f00      	cmp	r7, #0
2000626c:	d04a      	beq.n	20006304 <tu_fifo_read_n+0xc8>
2000626e:	42bd      	cmp	r5, r7
20006270:	d340      	bcc.n	200062f4 <tu_fifo_read_n+0xb8>
20006272:	45b9      	cmp	r9, r7
20006274:	bf28      	it	cs
20006276:	46b9      	movcs	r9, r7
20006278:	42a5      	cmp	r5, r4
2000627a:	fa1f f789 	uxth.w	r7, r9
2000627e:	d803      	bhi.n	20006288 <tu_fifo_read_n+0x4c>
20006280:	1b64      	subs	r4, r4, r5
20006282:	b2a4      	uxth	r4, r4
20006284:	42a5      	cmp	r5, r4
20006286:	d9fb      	bls.n	20006280 <tu_fifo_read_n+0x44>
20006288:	f8b6 a006 	ldrh.w	sl, [r6, #6]
2000628c:	1b2b      	subs	r3, r5, r4
2000628e:	6831      	ldr	r1, [r6, #0]
20006290:	b29b      	uxth	r3, r3
20006292:	f3ca 020e 	ubfx	r2, sl, #0, #15
20006296:	429f      	cmp	r7, r3
20006298:	4692      	mov	sl, r2
2000629a:	fb02 1104 	mla	r1, r2, r4, r1
2000629e:	d923      	bls.n	200062e8 <tu_fifo_read_n+0xac>
200062a0:	fb13 f302 	smulbb	r3, r3, r2
200062a4:	fa1f f983 	uxth.w	r9, r3
200062a8:	464a      	mov	r2, r9
200062aa:	4640      	mov	r0, r8
200062ac:	1b7d      	subs	r5, r7, r5
200062ae:	f003 fa17 	bl	200096e0 <memcpy>
200062b2:	1962      	adds	r2, r4, r5
200062b4:	fb12 f20a 	smulbb	r2, r2, sl
200062b8:	6831      	ldr	r1, [r6, #0]
200062ba:	eb08 0009 	add.w	r0, r8, r9
200062be:	b292      	uxth	r2, r2
200062c0:	f003 fa0e 	bl	200096e0 <memcpy>
200062c4:	8972      	ldrh	r2, [r6, #10]
200062c6:	88b5      	ldrh	r5, [r6, #4]
200062c8:	b292      	uxth	r2, r2
200062ca:	19d3      	adds	r3, r2, r7
200062cc:	b29b      	uxth	r3, r3
200062ce:	429a      	cmp	r2, r3
200062d0:	d91a      	bls.n	20006308 <tu_fifo_read_n+0xcc>
200062d2:	006a      	lsls	r2, r5, #1
200062d4:	1a9b      	subs	r3, r3, r2
200062d6:	b29b      	uxth	r3, r3
200062d8:	6930      	ldr	r0, [r6, #16]
200062da:	8173      	strh	r3, [r6, #10]
200062dc:	b108      	cbz	r0, 200062e2 <tu_fifo_read_n+0xa6>
200062de:	f007 fc25 	bl	2000db2c <mutex_exit>
200062e2:	4638      	mov	r0, r7
200062e4:	e8bd 87f0 	ldmia.w	sp!, {r4, r5, r6, r7, r8, r9, sl, pc}
200062e8:	4640      	mov	r0, r8
200062ea:	fb07 f202 	mul.w	r2, r7, r2
200062ee:	f003 f9f7 	bl	200096e0 <memcpy>
200062f2:	e7e7      	b.n	200062c4 <tu_fifo_read_n+0x88>
200062f4:	42ab      	cmp	r3, r5
200062f6:	bf2c      	ite	cs
200062f8:	1b5b      	subcs	r3, r3, r5
200062fa:	195b      	addcc	r3, r3, r5
200062fc:	b29c      	uxth	r4, r3
200062fe:	462f      	mov	r7, r5
20006300:	8174      	strh	r4, [r6, #10]
20006302:	e7b6      	b.n	20006272 <tu_fifo_read_n+0x36>
20006304:	8973      	ldrh	r3, [r6, #10]
20006306:	b29b      	uxth	r3, r3
20006308:	ebb3 0f45 	cmp.w	r3, r5, lsl #1
2000630c:	ea4f 0245 	mov.w	r2, r5, lsl #1
20006310:	dbe2      	blt.n	200062d8 <tu_fifo_read_n+0x9c>
20006312:	e7df      	b.n	200062d4 <tu_fifo_read_n+0x98>

20006314 <tu_fifo_write>:
20006314:	b5f8      	push	{r3, r4, r5, r6, r7, lr}
20006316:	4604      	mov	r4, r0
20006318:	68c0      	ldr	r0, [r0, #12]
2000631a:	460e      	mov	r6, r1
2000631c:	b118      	cbz	r0, 20006326 <tu_fifo_write+0x12>
2000631e:	f04f 31ff 	mov.w	r1, #4294967295
20006322:	f007 fbe7 	bl	2000daf4 <mutex_enter_timeout_ms>
20006326:	8925      	ldrh	r5, [r4, #8]
20006328:	8923      	ldrh	r3, [r4, #8]
2000632a:	8961      	ldrh	r1, [r4, #10]
2000632c:	b29b      	uxth	r3, r3
2000632e:	b289      	uxth	r1, r1
20006330:	88a2      	ldrh	r2, [r4, #4]
20006332:	428b      	cmp	r3, r1
20006334:	bf36      	itet	cc
20006336:	ebc1 0142 	rsbcc	r1, r1, r2, lsl #1
2000633a:	1a5b      	subcs	r3, r3, r1
2000633c:	185b      	addcc	r3, r3, r1
2000633e:	b29b      	uxth	r3, r3
20006340:	429a      	cmp	r2, r3
20006342:	b2ad      	uxth	r5, r5
20006344:	d808      	bhi.n	20006358 <tu_fifo_write+0x44>
20006346:	79e7      	ldrb	r7, [r4, #7]
20006348:	09ff      	lsrs	r7, r7, #7
2000634a:	d105      	bne.n	20006358 <tu_fifo_write+0x44>
2000634c:	68e0      	ldr	r0, [r4, #12]
2000634e:	b108      	cbz	r0, 20006354 <tu_fifo_write+0x40>
20006350:	f007 fbec 	bl	2000db2c <mutex_exit>
20006354:	4638      	mov	r0, r7
20006356:	bdf8      	pop	{r3, r4, r5, r6, r7, pc}
20006358:	4295      	cmp	r5, r2
2000635a:	bf28      	it	cs
2000635c:	462b      	movcs	r3, r5
2000635e:	d318      	bcc.n	20006392 <tu_fifo_write+0x7e>
20006360:	1a9b      	subs	r3, r3, r2
20006362:	b29b      	uxth	r3, r3
20006364:	4293      	cmp	r3, r2
20006366:	d2fb      	bcs.n	20006360 <tu_fifo_write+0x4c>
20006368:	88e2      	ldrh	r2, [r4, #6]
2000636a:	6820      	ldr	r0, [r4, #0]
2000636c:	f3c2 020e 	ubfx	r2, r2, #0, #15
20006370:	fb02 0003 	mla	r0, r2, r3, r0
20006374:	4631      	mov	r1, r6
20006376:	f003 f9b3 	bl	200096e0 <memcpy>
2000637a:	1c6b      	adds	r3, r5, #1
2000637c:	b29b      	uxth	r3, r3
2000637e:	429d      	cmp	r5, r3
20006380:	88a2      	ldrh	r2, [r4, #4]
20006382:	d912      	bls.n	200063aa <tu_fifo_write+0x96>
20006384:	2300      	movs	r3, #0
20006386:	0051      	lsls	r1, r2, #1
20006388:	1a5b      	subs	r3, r3, r1
2000638a:	b29b      	uxth	r3, r3
2000638c:	2701      	movs	r7, #1
2000638e:	8123      	strh	r3, [r4, #8]
20006390:	e7dc      	b.n	2000634c <tu_fifo_write+0x38>
20006392:	88e2      	ldrh	r2, [r4, #6]
20006394:	6820      	ldr	r0, [r4, #0]
20006396:	f3c2 020e 	ubfx	r2, r2, #0, #15
2000639a:	fb05 0002 	mla	r0, r5, r2, r0
2000639e:	4631      	mov	r1, r6
200063a0:	f003 f99e 	bl	200096e0 <memcpy>
200063a4:	3501      	adds	r5, #1
200063a6:	88a2      	ldrh	r2, [r4, #4]
200063a8:	b2ab      	uxth	r3, r5
200063aa:	ebb3 0f42 	cmp.w	r3, r2, lsl #1
200063ae:	ea4f 0142 	mov.w	r1, r2, lsl #1
200063b2:	dbeb      	blt.n	2000638c <tu_fifo_write+0x78>
200063b4:	e7e8      	b.n	20006388 <tu_fifo_write+0x74>
200063b6:	bf00      	nop

200063b8 <tu_fifo_write_n>:
200063b8:	e92d 4ff0 	stmdb	sp!, {r4, r5, r6, r7, r8, r9, sl, fp, lr}
200063bc:	4617      	mov	r7, r2
200063be:	b083      	sub	sp, #12
200063c0:	2a00      	cmp	r2, #0
200063c2:	d075      	beq.n	200064b0 <tu_fifo_write_n+0xf8>
200063c4:	4606      	mov	r6, r0
200063c6:	68c0      	ldr	r0, [r0, #12]
200063c8:	4689      	mov	r9, r1
200063ca:	b118      	cbz	r0, 200063d4 <tu_fifo_write_n+0x1c>
200063cc:	f04f 31ff 	mov.w	r1, #4294967295
200063d0:	f007 fb90 	bl	2000daf4 <mutex_enter_timeout_ms>
200063d4:	79f3      	ldrb	r3, [r6, #7]
200063d6:	f8b6 8008 	ldrh.w	r8, [r6, #8]
200063da:	8972      	ldrh	r2, [r6, #10]
200063dc:	09db      	lsrs	r3, r3, #7
200063de:	88b5      	ldrh	r5, [r6, #4]
200063e0:	fa1f f888 	uxth.w	r8, r8
200063e4:	b292      	uxth	r2, r2
200063e6:	d13c      	bne.n	20006462 <tu_fifo_write_n+0xaa>
200063e8:	4590      	cmp	r8, r2
200063ea:	bf36      	itet	cc
200063ec:	ebc2 0245 	rsbcc	r2, r2, r5, lsl #1
200063f0:	eba8 0202 	subcs.w	r2, r8, r2
200063f4:	4442      	addcc	r2, r8
200063f6:	b292      	uxth	r2, r2
200063f8:	42aa      	cmp	r2, r5
200063fa:	d25e      	bcs.n	200064ba <tu_fifo_write_n+0x102>
200063fc:	1aaa      	subs	r2, r5, r2
200063fe:	b292      	uxth	r2, r2
20006400:	42ba      	cmp	r2, r7
20006402:	bf28      	it	cs
20006404:	463a      	movcs	r2, r7
20006406:	f8b6 b006 	ldrh.w	fp, [r6, #6]
2000640a:	b297      	uxth	r7, r2
2000640c:	1b7b      	subs	r3, r7, r5
2000640e:	eb08 0a07 	add.w	sl, r8, r7
20006412:	f3cb 0b0e 	ubfx	fp, fp, #0, #15
20006416:	b29b      	uxth	r3, r3
20006418:	fa1f fa8a 	uxth.w	sl, sl
2000641c:	45a8      	cmp	r8, r5
2000641e:	4644      	mov	r4, r8
20006420:	d303      	bcc.n	2000642a <tu_fifo_write_n+0x72>
20006422:	1b64      	subs	r4, r4, r5
20006424:	b2a4      	uxth	r4, r4
20006426:	42ac      	cmp	r4, r5
20006428:	d2fb      	bcs.n	20006422 <tu_fifo_write_n+0x6a>
2000642a:	1b2d      	subs	r5, r5, r4
2000642c:	6830      	ldr	r0, [r6, #0]
2000642e:	b2ad      	uxth	r5, r5
20006430:	42bd      	cmp	r5, r7
20006432:	fb0b 0004 	mla	r0, fp, r4, r0
20006436:	d357      	bcc.n	200064e8 <tu_fifo_write_n+0x130>
20006438:	4649      	mov	r1, r9
2000643a:	fb0b f207 	mul.w	r2, fp, r7
2000643e:	f003 f94f 	bl	200096e0 <memcpy>
20006442:	88b2      	ldrh	r2, [r6, #4]
20006444:	45d0      	cmp	r8, sl
20006446:	ea4f 0342 	mov.w	r3, r2, lsl #1
2000644a:	d802      	bhi.n	20006452 <tu_fifo_write_n+0x9a>
2000644c:	ebba 0f42 	cmp.w	sl, r2, lsl #1
20006450:	db03      	blt.n	2000645a <tu_fifo_write_n+0xa2>
20006452:	ebaa 0303 	sub.w	r3, sl, r3
20006456:	fa1f fa83 	uxth.w	sl, r3
2000645a:	463d      	mov	r5, r7
2000645c:	f8a6 a008 	strh.w	sl, [r6, #8]
20006460:	e02c      	b.n	200064bc <tu_fifo_write_n+0x104>
20006462:	f8b6 b006 	ldrh.w	fp, [r6, #6]
20006466:	42af      	cmp	r7, r5
20006468:	f3cb 0b0e 	ubfx	fp, fp, #0, #15
2000646c:	d22f      	bcs.n	200064ce <tu_fifo_write_n+0x116>
2000646e:	4590      	cmp	r8, r2
20006470:	bf36      	itet	cc
20006472:	ebc2 0145 	rsbcc	r1, r2, r5, lsl #1
20006476:	eba8 0102 	subcs.w	r1, r8, r2
2000647a:	4441      	addcc	r1, r8
2000647c:	b289      	uxth	r1, r1
2000647e:	0068      	lsls	r0, r5, #1
20006480:	4439      	add	r1, r7
20006482:	1b7b      	subs	r3, r7, r5
20006484:	4281      	cmp	r1, r0
20006486:	b29b      	uxth	r3, r3
20006488:	db0d      	blt.n	200064a6 <tu_fifo_write_n+0xee>
2000648a:	eb02 0a05 	add.w	sl, r2, r5
2000648e:	fa1f fa8a 	uxth.w	sl, sl
20006492:	ebaa 0807 	sub.w	r8, sl, r7
20006496:	fa1f f888 	uxth.w	r8, r8
2000649a:	4542      	cmp	r2, r8
2000649c:	d937      	bls.n	2000650e <tu_fifo_write_n+0x156>
2000649e:	eba8 0000 	sub.w	r0, r8, r0
200064a2:	fa1f f880 	uxth.w	r8, r0
200064a6:	eb07 0a08 	add.w	sl, r7, r8
200064aa:	fa1f fa8a 	uxth.w	sl, sl
200064ae:	e7b5      	b.n	2000641c <tu_fifo_write_n+0x64>
200064b0:	4615      	mov	r5, r2
200064b2:	4628      	mov	r0, r5
200064b4:	b003      	add	sp, #12
200064b6:	e8bd 8ff0 	ldmia.w	sp!, {r4, r5, r6, r7, r8, r9, sl, fp, pc}
200064ba:	2500      	movs	r5, #0
200064bc:	68f0      	ldr	r0, [r6, #12]
200064be:	2800      	cmp	r0, #0
200064c0:	d0f7      	beq.n	200064b2 <tu_fifo_write_n+0xfa>
200064c2:	f007 fb33 	bl	2000db2c <mutex_exit>
200064c6:	4628      	mov	r0, r5
200064c8:	b003      	add	sp, #12
200064ca:	e8bd 8ff0 	ldmia.w	sp!, {r4, r5, r6, r7, r8, r9, sl, fp, pc}
200064ce:	2d00      	cmp	r5, #0
200064d0:	d0f4      	beq.n	200064bc <tu_fifo_write_n+0x104>
200064d2:	1b7f      	subs	r7, r7, r5
200064d4:	eb02 0a05 	add.w	sl, r2, r5
200064d8:	fb0b 9907 	mla	r9, fp, r7, r9
200064dc:	4690      	mov	r8, r2
200064de:	462f      	mov	r7, r5
200064e0:	2300      	movs	r3, #0
200064e2:	fa1f fa8a 	uxth.w	sl, sl
200064e6:	e799      	b.n	2000641c <tu_fifo_write_n+0x64>
200064e8:	fb15 f50b 	smulbb	r5, r5, fp
200064ec:	b2ad      	uxth	r5, r5
200064ee:	462a      	mov	r2, r5
200064f0:	4649      	mov	r1, r9
200064f2:	9301      	str	r3, [sp, #4]
200064f4:	f003 f8f4 	bl	200096e0 <memcpy>
200064f8:	9b01      	ldr	r3, [sp, #4]
200064fa:	6830      	ldr	r0, [r6, #0]
200064fc:	18e2      	adds	r2, r4, r3
200064fe:	fb12 f20b 	smulbb	r2, r2, fp
20006502:	eb09 0105 	add.w	r1, r9, r5
20006506:	b292      	uxth	r2, r2
20006508:	f003 f8ea 	bl	200096e0 <memcpy>
2000650c:	e799      	b.n	20006442 <tu_fifo_write_n+0x8a>
2000650e:	4540      	cmp	r0, r8
20006510:	dc84      	bgt.n	2000641c <tu_fifo_write_n+0x64>
20006512:	e7c4      	b.n	2000649e <tu_fifo_write_n+0xe6>

20006514 <tu_fifo_clear>:
20006514:	b510      	push	{r4, lr}
20006516:	4604      	mov	r4, r0
20006518:	68c0      	ldr	r0, [r0, #12]
2000651a:	b118      	cbz	r0, 20006524 <tu_fifo_clear+0x10>
2000651c:	f04f 31ff 	mov.w	r1, #4294967295
20006520:	f007 fae8 	bl	2000daf4 <mutex_enter_timeout_ms>
20006524:	6920      	ldr	r0, [r4, #16]
20006526:	b118      	cbz	r0, 20006530 <tu_fifo_clear+0x1c>
20006528:	f04f 31ff 	mov.w	r1, #4294967295
2000652c:	f007 fae2 	bl	2000daf4 <mutex_enter_timeout_ms>
20006530:	2300      	movs	r3, #0
20006532:	68e0      	ldr	r0, [r4, #12]
20006534:	8163      	strh	r3, [r4, #10]
20006536:	8123      	strh	r3, [r4, #8]
20006538:	b108      	cbz	r0, 2000653e <tu_fifo_clear+0x2a>
2000653a:	f007 faf7 	bl	2000db2c <mutex_exit>
2000653e:	6920      	ldr	r0, [r4, #16]
20006540:	b108      	cbz	r0, 20006546 <tu_fifo_clear+0x32>
20006542:	f007 faf3 	bl	2000db2c <mutex_exit>
20006546:	2001      	movs	r0, #1
20006548:	bd10      	pop	{r4, pc}
2000654a:	bf00      	nop

2000654c <tu_fifo_set_overwritable>:
2000654c:	b538      	push	{r3, r4, r5, lr}
2000654e:	4604      	mov	r4, r0
20006550:	68c0      	ldr	r0, [r0, #12]
20006552:	460d      	mov	r5, r1
20006554:	b118      	cbz	r0, 2000655e <tu_fifo_set_overwritable+0x12>
20006556:	f04f 31ff 	mov.w	r1, #4294967295
2000655a:	f007 facb 	bl	2000daf4 <mutex_enter_timeout_ms>
2000655e:	6920      	ldr	r0, [r4, #16]
20006560:	b118      	cbz	r0, 2000656a <tu_fifo_set_overwritable+0x1e>
20006562:	f04f 31ff 	mov.w	r1, #4294967295
20006566:	f007 fac5 	bl	2000daf4 <mutex_enter_timeout_ms>
2000656a:	79e3      	ldrb	r3, [r4, #7]
2000656c:	68e0      	ldr	r0, [r4, #12]
2000656e:	f365 13c7 	bfi	r3, r5, #7, #1
20006572:	71e3      	strb	r3, [r4, #7]
20006574:	b108      	cbz	r0, 2000657a <tu_fifo_set_overwritable+0x2e>
20006576:	f007 fad9 	bl	2000db2c <mutex_exit>
2000657a:	6920      	ldr	r0, [r4, #16]
2000657c:	b108      	cbz	r0, 20006582 <tu_fifo_set_overwritable+0x36>
2000657e:	f007 fad5 	bl	2000db2c <mutex_exit>
20006582:	2001      	movs	r0, #1
20006584:	bd38      	pop	{r3, r4, r5, pc}
20006586:	bf00      	nop

20006588 <pio_add_program>:
20006588:	e92d 47f0 	stmdb	sp!, {r4, r5, r6, r7, r8, r9, sl, lr}
2000658c:	460f      	mov	r7, r1
2000658e:	4605      	mov	r5, r0
20006590:	f7fc f8c8 	bl	20002724 <hw_claim_lock>
20006594:	2201      	movs	r2, #1
20006596:	f897 a004 	ldrb.w	sl, [r7, #4]
2000659a:	f997 c005 	ldrsb.w	ip, [r7, #5]
2000659e:	f105 4e2f 	add.w	lr, r5, #2936012800	@ 0xaf000000
200065a2:	f8df 80d4 	ldr.w	r8, [pc, #212]	@ 20006678 <pio_add_program+0xf0>
200065a6:	f50e 0e60 	add.w	lr, lr, #14680064	@ 0xe00000
200065aa:	fa02 f20a 	lsl.w	r2, r2, sl
200065ae:	ea4f 5e1e 	mov.w	lr, lr, lsr #20
200065b2:	f1bc 0f00 	cmp.w	ip, #0
200065b6:	f858 602e 	ldr.w	r6, [r8, lr, lsl #2]
200065ba:	f102 32ff 	add.w	r2, r2, #4294967295
200065be:	f1ca 0420 	rsb	r4, sl, #32
200065c2:	db35      	blt.n	20006630 <pio_add_program+0xa8>
200065c4:	45a4      	cmp	ip, r4
200065c6:	dc03      	bgt.n	200065d0 <pio_add_program+0x48>
200065c8:	fa02 f30c 	lsl.w	r3, r2, ip
200065cc:	4233      	tst	r3, r6
200065ce:	d006      	beq.n	200065de <pio_add_program+0x56>
200065d0:	f04f 34ff 	mov.w	r4, #4294967295
200065d4:	f7fc f8b8 	bl	20002748 <hw_claim_unlock>
200065d8:	4620      	mov	r0, r4
200065da:	e8bd 87f0 	ldmia.w	sp!, {r4, r5, r6, r7, r8, r9, sl, pc}
200065de:	f8d5 3168 	ldr.w	r3, [r5, #360]	@ 0x168
200065e2:	79f9      	ldrb	r1, [r7, #7]
200065e4:	2b00      	cmp	r3, #0
200065e6:	d141      	bne.n	2000666c <pio_add_program+0xe4>
200065e8:	074b      	lsls	r3, r1, #29
200065ea:	d431      	bmi.n	20006650 <pio_add_program+0xc8>
200065ec:	4664      	mov	r4, ip
200065ee:	fa02 f20c 	lsl.w	r2, r2, ip
200065f2:	4216      	tst	r6, r2
200065f4:	d133      	bne.n	2000665e <pio_add_program+0xd6>
200065f6:	6839      	ldr	r1, [r7, #0]
200065f8:	f1ba 0f00 	cmp.w	sl, #0
200065fc:	d010      	beq.n	20006620 <pio_add_program+0x98>
200065fe:	4667      	mov	r7, ip
20006600:	eb01 0a4a 	add.w	sl, r1, sl, lsl #1
20006604:	f831 3b02 	ldrh.w	r3, [r1], #2
20006608:	f107 0912 	add.w	r9, r7, #18
2000660c:	f5b3 5f00 	cmp.w	r3, #8192	@ 0x2000
20006610:	bf38      	it	cc
20006612:	4463      	addcc	r3, ip
20006614:	4551      	cmp	r1, sl
20006616:	f107 0701 	add.w	r7, r7, #1
2000661a:	f845 3029 	str.w	r3, [r5, r9, lsl #2]
2000661e:	d1f1      	bne.n	20006604 <pio_add_program+0x7c>
20006620:	4332      	orrs	r2, r6
20006622:	f848 202e 	str.w	r2, [r8, lr, lsl #2]
20006626:	f7fc f88f 	bl	20002748 <hw_claim_unlock>
2000662a:	4620      	mov	r0, r4
2000662c:	e8bd 87f0 	ldmia.w	sp!, {r4, r5, r6, r7, r8, r9, sl, pc}
20006630:	2c00      	cmp	r4, #0
20006632:	da02      	bge.n	2000663a <pio_add_program+0xb2>
20006634:	e013      	b.n	2000665e <pio_add_program+0xd6>
20006636:	3c01      	subs	r4, #1
20006638:	d311      	bcc.n	2000665e <pio_add_program+0xd6>
2000663a:	fa02 f304 	lsl.w	r3, r2, r4
2000663e:	4233      	tst	r3, r6
20006640:	46a4      	mov	ip, r4
20006642:	d1f8      	bne.n	20006636 <pio_add_program+0xae>
20006644:	f8d5 1168 	ldr.w	r1, [r5, #360]	@ 0x168
20006648:	79fb      	ldrb	r3, [r7, #7]
2000664a:	b991      	cbnz	r1, 20006672 <pio_add_program+0xea>
2000664c:	075b      	lsls	r3, r3, #29
2000664e:	d5ce      	bpl.n	200065ee <pio_add_program+0x66>
20006650:	f06f 040a 	mvn.w	r4, #10
20006654:	f7fc f878 	bl	20002748 <hw_claim_unlock>
20006658:	4620      	mov	r0, r4
2000665a:	e8bd 87f0 	ldmia.w	sp!, {r4, r5, r6, r7, r8, r9, sl, pc}
2000665e:	f06f 0408 	mvn.w	r4, #8
20006662:	f7fc f871 	bl	20002748 <hw_claim_unlock>
20006666:	4620      	mov	r0, r4
20006668:	e8bd 87f0 	ldmia.w	sp!, {r4, r5, r6, r7, r8, r9, sl, pc}
2000666c:	07c9      	lsls	r1, r1, #31
2000666e:	d5bd      	bpl.n	200065ec <pio_add_program+0x64>
20006670:	e7ee      	b.n	20006650 <pio_add_program+0xc8>
20006672:	07d9      	lsls	r1, r3, #31
20006674:	d5bb      	bpl.n	200065ee <pio_add_program+0x66>
20006676:	e7eb      	b.n	20006650 <pio_add_program+0xc8>
20006678:	20011380 	.word	0x20011380

2000667c <pio_sm_set_consecutive_pindirs>:
2000667c:	e92d 41f0 	stmdb	sp!, {r4, r5, r6, r7, r8, lr}
20006680:	f8d0 4168 	ldr.w	r4, [r0, #360]	@ 0x168
20006684:	f89d 6018 	ldrb.w	r6, [sp, #24]
20006688:	1b12      	subs	r2, r2, r4
2000668a:	2a1f      	cmp	r2, #31
2000668c:	d838      	bhi.n	20006700 <pio_sm_set_consecutive_pindirs+0x84>
2000668e:	f24e 049f 	movw	r4, #57503	@ 0xe09f
20006692:	f24e 0580 	movw	r5, #57472	@ 0xe080
20006696:	f44f 3800 	mov.w	r8, #131072	@ 0x20000
2000669a:	eb01 0c41 	add.w	ip, r1, r1, lsl #1
2000669e:	2e00      	cmp	r6, #0
200066a0:	bf18      	it	ne
200066a2:	4625      	movne	r5, r4
200066a4:	eb00 04cc 	add.w	r4, r0, ip, lsl #3
200066a8:	f504 5443 	add.w	r4, r4, #12480	@ 0x30c0
200066ac:	eb00 0ccc 	add.w	ip, r0, ip, lsl #3
200066b0:	2b05      	cmp	r3, #5
200066b2:	f8dc 70dc 	ldr.w	r7, [ip, #220]	@ 0xdc
200066b6:	ea4f 0e41 	mov.w	lr, r1, lsl #1
200066ba:	f8dc 60cc 	ldr.w	r6, [ip, #204]	@ 0xcc
200066be:	f8c4 800c 	str.w	r8, [r4, #12]
200066c2:	d90c      	bls.n	200066de <pio_sm_set_consecutive_pindirs+0x62>
200066c4:	0154      	lsls	r4, r2, #5
200066c6:	3b05      	subs	r3, #5
200066c8:	f044 54a0 	orr.w	r4, r4, #335544320	@ 0x14000000
200066cc:	3205      	adds	r2, #5
200066ce:	2b05      	cmp	r3, #5
200066d0:	f8cc 40dc 	str.w	r4, [ip, #220]	@ 0xdc
200066d4:	f002 021f 	and.w	r2, r2, #31
200066d8:	f8cc 50d8 	str.w	r5, [ip, #216]	@ 0xd8
200066dc:	d8f2      	bhi.n	200066c4 <pio_sm_set_consecutive_pindirs+0x48>
200066de:	4471      	add	r1, lr
200066e0:	eb00 01c1 	add.w	r1, r0, r1, lsl #3
200066e4:	2000      	movs	r0, #0
200066e6:	0152      	lsls	r2, r2, #5
200066e8:	ea42 6383 	orr.w	r3, r2, r3, lsl #26
200066ec:	f8c1 30dc 	str.w	r3, [r1, #220]	@ 0xdc
200066f0:	f8c1 50d8 	str.w	r5, [r1, #216]	@ 0xd8
200066f4:	f8c1 70dc 	str.w	r7, [r1, #220]	@ 0xdc
200066f8:	f8c1 60cc 	str.w	r6, [r1, #204]	@ 0xcc
200066fc:	e8bd 81f0 	ldmia.w	sp!, {r4, r5, r6, r7, r8, pc}
20006700:	f06f 0004 	mvn.w	r0, #4
20006704:	e7fa      	b.n	200066fc <pio_sm_set_consecutive_pindirs+0x80>
20006706:	bf00      	nop

20006708 <pio_sm_init>:
20006708:	b5f0      	push	{r4, r5, r6, r7, lr}
2000670a:	2501      	movs	r5, #1
2000670c:	6804      	ldr	r4, [r0, #0]
2000670e:	408d      	lsls	r5, r1
20006710:	ea24 0405 	bic.w	r4, r4, r5
20006714:	6004      	str	r4, [r0, #0]
20006716:	b3b3      	cbz	r3, 20006786 <pio_sm_init+0x7e>
20006718:	e9d3 5601 	ldrd	r5, r6, [r3, #4]
2000671c:	681f      	ldr	r7, [r3, #0]
2000671e:	68dc      	ldr	r4, [r3, #12]
20006720:	eb01 0341 	add.w	r3, r1, r1, lsl #1
20006724:	eb00 03c3 	add.w	r3, r0, r3, lsl #3
20006728:	f8c3 70c8 	str.w	r7, [r3, #200]	@ 0xc8
2000672c:	ea4f 0c41 	mov.w	ip, r1, lsl #1
20006730:	f8c3 60d0 	str.w	r6, [r3, #208]	@ 0xd0
20006734:	f8c3 50cc 	str.w	r5, [r3, #204]	@ 0xcc
20006738:	f8c3 40dc 	str.w	r4, [r3, #220]	@ 0xdc
2000673c:	eb0c 0301 	add.w	r3, ip, r1
20006740:	f04f 3501 	mov.w	r5, #16843009	@ 0x1010101
20006744:	eb00 0cc3 	add.w	ip, r0, r3, lsl #3
20006748:	f04f 4600 	mov.w	r6, #2147483648	@ 0x80000000
2000674c:	eb00 0ec3 	add.w	lr, r0, r3, lsl #3
20006750:	2301      	movs	r3, #1
20006752:	f50e 5e86 	add.w	lr, lr, #4288	@ 0x10c0
20006756:	1d0c      	adds	r4, r1, #4
20006758:	f101 0708 	add.w	r7, r1, #8
2000675c:	408d      	lsls	r5, r1
2000675e:	f8ce 6010 	str.w	r6, [lr, #16]
20006762:	fa03 f404 	lsl.w	r4, r3, r4
20006766:	f8ce 6010 	str.w	r6, [lr, #16]
2000676a:	f002 021f 	and.w	r2, r2, #31
2000676e:	6085      	str	r5, [r0, #8]
20006770:	40bb      	lsls	r3, r7
20006772:	f500 5000 	add.w	r0, r0, #8192	@ 0x2000
20006776:	6004      	str	r4, [r0, #0]
20006778:	f10e 0e10 	add.w	lr, lr, #16
2000677c:	6003      	str	r3, [r0, #0]
2000677e:	2000      	movs	r0, #0
20006780:	f8cc 20d8 	str.w	r2, [ip, #216]	@ 0xd8
20006784:	bdf0      	pop	{r4, r5, r6, r7, pc}
20006786:	f44f 3780 	mov.w	r7, #65536	@ 0x10000
2000678a:	f44f 2640 	mov.w	r6, #786432	@ 0xc0000
2000678e:	f44f 35f8 	mov.w	r5, #126976	@ 0x1f000
20006792:	eb01 0441 	add.w	r4, r1, r1, lsl #1
20006796:	eb00 04c4 	add.w	r4, r0, r4, lsl #3
2000679a:	f8c4 70c8 	str.w	r7, [r4, #200]	@ 0xc8
2000679e:	ea4f 0c41 	mov.w	ip, r1, lsl #1
200067a2:	f8c4 60d0 	str.w	r6, [r4, #208]	@ 0xd0
200067a6:	f8c4 50cc 	str.w	r5, [r4, #204]	@ 0xcc
200067aa:	f8c4 30dc 	str.w	r3, [r4, #220]	@ 0xdc
200067ae:	e7c5      	b.n	2000673c <pio_sm_init+0x34>

200067b0 <dma_claim_unused_channel>:
200067b0:	b510      	push	{r4, lr}
200067b2:	4c05      	ldr	r4, [pc, #20]	@ (200067c8 <dma_claim_unused_channel+0x18>)
200067b4:	b082      	sub	sp, #8
200067b6:	4601      	mov	r1, r0
200067b8:	230f      	movs	r3, #15
200067ba:	2200      	movs	r2, #0
200067bc:	9400      	str	r4, [sp, #0]
200067be:	4803      	ldr	r0, [pc, #12]	@ (200067cc <dma_claim_unused_channel+0x1c>)
200067c0:	f7fb fff8 	bl	200027b4 <hw_claim_unused_from_range>
200067c4:	b002      	add	sp, #8
200067c6:	bd10      	pop	{r4, pc}
200067c8:	2000eb74 	.word	0x2000eb74
200067cc:	2005afc2 	.word	0x2005afc2

200067d0 <get_fat>:
200067d0:	2801      	cmp	r0, #1
200067d2:	d91d      	bls.n	20006810 <get_fat+0x40>
200067d4:	4b18      	ldr	r3, [pc, #96]	@ (20006838 <get_fat+0x68>)
200067d6:	681a      	ldr	r2, [r3, #0]
200067d8:	6893      	ldr	r3, [r2, #8]
200067da:	4283      	cmp	r3, r0
200067dc:	d918      	bls.n	20006810 <get_fat+0x40>
200067de:	b500      	push	{lr}
200067e0:	7813      	ldrb	r3, [r2, #0]
200067e2:	b083      	sub	sp, #12
200067e4:	2b02      	cmp	r3, #2
200067e6:	d019      	beq.n	2000681c <get_fat+0x4c>
200067e8:	2b03      	cmp	r3, #3
200067ea:	d113      	bne.n	20006814 <get_fat+0x44>
200067ec:	2304      	movs	r3, #4
200067ee:	68d1      	ldr	r1, [r2, #12]
200067f0:	f000 027f 	and.w	r2, r0, #127	@ 0x7f
200067f4:	eb01 11d0 	add.w	r1, r1, r0, lsr #7
200067f8:	0092      	lsls	r2, r2, #2
200067fa:	eb0d 0003 	add.w	r0, sp, r3
200067fe:	f000 fceb 	bl	200071d8 <disk_readp>
20006802:	b938      	cbnz	r0, 20006814 <get_fat+0x44>
20006804:	9801      	ldr	r0, [sp, #4]
20006806:	f020 4070 	bic.w	r0, r0, #4026531840	@ 0xf0000000
2000680a:	b003      	add	sp, #12
2000680c:	f85d fb04 	ldr.w	pc, [sp], #4
20006810:	2001      	movs	r0, #1
20006812:	4770      	bx	lr
20006814:	2001      	movs	r0, #1
20006816:	b003      	add	sp, #12
20006818:	f85d fb04 	ldr.w	pc, [sp], #4
2000681c:	68d1      	ldr	r1, [r2, #12]
2000681e:	b2c2      	uxtb	r2, r0
20006820:	eb01 2110 	add.w	r1, r1, r0, lsr #8
20006824:	0052      	lsls	r2, r2, #1
20006826:	a801      	add	r0, sp, #4
20006828:	f000 fcd6 	bl	200071d8 <disk_readp>
2000682c:	2800      	cmp	r0, #0
2000682e:	d1f1      	bne.n	20006814 <get_fat+0x44>
20006830:	f8bd 0004 	ldrh.w	r0, [sp, #4]
20006834:	e7e9      	b.n	2000680a <get_fat+0x3a>
20006836:	bf00      	nop
20006838:	200107e0 	.word	0x200107e0

2000683c <check_fs>:
2000683c:	b538      	push	{r3, r4, r5, lr}
2000683e:	f44f 72ff 	mov.w	r2, #510	@ 0x1fe
20006842:	2302      	movs	r3, #2
20006844:	4604      	mov	r4, r0
20006846:	460d      	mov	r5, r1
20006848:	f000 fcc6 	bl	200071d8 <disk_readp>
2000684c:	bb00      	cbnz	r0, 20006890 <check_fs+0x54>
2000684e:	f64a 2355 	movw	r3, #43605	@ 0xaa55
20006852:	8822      	ldrh	r2, [r4, #0]
20006854:	429a      	cmp	r2, r3
20006856:	d001      	beq.n	2000685c <check_fs+0x20>
20006858:	2002      	movs	r0, #2
2000685a:	bd38      	pop	{r3, r4, r5, pc}
2000685c:	2302      	movs	r3, #2
2000685e:	2236      	movs	r2, #54	@ 0x36
20006860:	4629      	mov	r1, r5
20006862:	4620      	mov	r0, r4
20006864:	f000 fcb8 	bl	200071d8 <disk_readp>
20006868:	b920      	cbnz	r0, 20006874 <check_fs+0x38>
2000686a:	f244 1346 	movw	r3, #16710	@ 0x4146
2000686e:	8822      	ldrh	r2, [r4, #0]
20006870:	429a      	cmp	r2, r3
20006872:	d0f2      	beq.n	2000685a <check_fs+0x1e>
20006874:	2302      	movs	r3, #2
20006876:	2252      	movs	r2, #82	@ 0x52
20006878:	4629      	mov	r1, r5
2000687a:	4620      	mov	r0, r4
2000687c:	f000 fcac 	bl	200071d8 <disk_readp>
20006880:	b940      	cbnz	r0, 20006894 <check_fs+0x58>
20006882:	f244 1346 	movw	r3, #16710	@ 0x4146
20006886:	8820      	ldrh	r0, [r4, #0]
20006888:	1ac0      	subs	r0, r0, r3
2000688a:	bf18      	it	ne
2000688c:	2001      	movne	r0, #1
2000688e:	bd38      	pop	{r3, r4, r5, pc}
20006890:	2003      	movs	r0, #3
20006892:	bd38      	pop	{r3, r4, r5, pc}
20006894:	2001      	movs	r0, #1
20006896:	bd38      	pop	{r3, r4, r5, pc}

20006898 <pf_mount>:
20006898:	2300      	movs	r3, #0
2000689a:	b570      	push	{r4, r5, r6, lr}
2000689c:	4d39      	ldr	r5, [pc, #228]	@ (20006984 <pf_mount+0xec>)
2000689e:	b08a      	sub	sp, #40	@ 0x28
200068a0:	4606      	mov	r6, r0
200068a2:	602b      	str	r3, [r5, #0]
200068a4:	f000 fbbc 	bl	20007020 <disk_initialize>
200068a8:	f010 0401 	ands.w	r4, r0, #1
200068ac:	d14d      	bne.n	2000694a <pf_mount+0xb2>
200068ae:	4621      	mov	r1, r4
200068b0:	a801      	add	r0, sp, #4
200068b2:	f7ff ffc3 	bl	2000683c <check_fs>
200068b6:	2801      	cmp	r0, #1
200068b8:	d04a      	beq.n	20006950 <pf_mount+0xb8>
200068ba:	2803      	cmp	r0, #3
200068bc:	d042      	beq.n	20006944 <pf_mount+0xac>
200068be:	2800      	cmp	r0, #0
200068c0:	d152      	bne.n	20006968 <pf_mount+0xd0>
200068c2:	2324      	movs	r3, #36	@ 0x24
200068c4:	220d      	movs	r2, #13
200068c6:	4621      	mov	r1, r4
200068c8:	a801      	add	r0, sp, #4
200068ca:	f000 fc85 	bl	200071d8 <disk_readp>
200068ce:	bbc8      	cbnz	r0, 20006944 <pf_mount+0xac>
200068d0:	f8bd 300d 	ldrh.w	r3, [sp, #13]
200068d4:	b90b      	cbnz	r3, 200068da <pf_mount+0x42>
200068d6:	f8dd 301b 	ldr.w	r3, [sp, #27]
200068da:	f89d c007 	ldrb.w	ip, [sp, #7]
200068de:	f8bd 2005 	ldrh.w	r2, [sp, #5]
200068e2:	fb03 fc0c 	mul.w	ip, r3, ip
200068e6:	f89d e004 	ldrb.w	lr, [sp, #4]
200068ea:	f8bd 1008 	ldrh.w	r1, [sp, #8]
200068ee:	f8bd 300a 	ldrh.w	r3, [sp, #10]
200068f2:	4414      	add	r4, r2
200068f4:	60f4      	str	r4, [r6, #12]
200068f6:	f886 e002 	strb.w	lr, [r6, #2]
200068fa:	80b1      	strh	r1, [r6, #4]
200068fc:	b90b      	cbnz	r3, 20006902 <pf_mount+0x6a>
200068fe:	f8dd 3017 	ldr.w	r3, [sp, #23]
20006902:	eb02 1211 	add.w	r2, r2, r1, lsr #4
20006906:	4462      	add	r2, ip
20006908:	1a9b      	subs	r3, r3, r2
2000690a:	fbb3 f3fe 	udiv	r3, r3, lr
2000690e:	f64e 7efe 	movw	lr, #61438	@ 0xeffe
20006912:	1c9a      	adds	r2, r3, #2
20006914:	f6a3 73f6 	subw	r3, r3, #4086	@ 0xff6
20006918:	4573      	cmp	r3, lr
2000691a:	ea4f 1111 	mov.w	r1, r1, lsr #4
2000691e:	60b2      	str	r2, [r6, #8]
20006920:	d925      	bls.n	2000696e <pf_mount+0xd6>
20006922:	f64f 73f6 	movw	r3, #65526	@ 0xfff6
20006926:	429a      	cmp	r2, r3
20006928:	d91e      	bls.n	20006968 <pf_mount+0xd0>
2000692a:	2303      	movs	r3, #3
2000692c:	7033      	strb	r3, [r6, #0]
2000692e:	f8dd 3023 	ldr.w	r3, [sp, #35]	@ 0x23
20006932:	440c      	add	r4, r1
20006934:	4464      	add	r4, ip
20006936:	e9c6 3404 	strd	r3, r4, [r6, #16]
2000693a:	2300      	movs	r3, #0
2000693c:	602e      	str	r6, [r5, #0]
2000693e:	7073      	strb	r3, [r6, #1]
20006940:	b00a      	add	sp, #40	@ 0x28
20006942:	bd70      	pop	{r4, r5, r6, pc}
20006944:	2001      	movs	r0, #1
20006946:	b00a      	add	sp, #40	@ 0x28
20006948:	bd70      	pop	{r4, r5, r6, pc}
2000694a:	2002      	movs	r0, #2
2000694c:	b00a      	add	sp, #40	@ 0x28
2000694e:	bd70      	pop	{r4, r5, r6, pc}
20006950:	2310      	movs	r3, #16
20006952:	4621      	mov	r1, r4
20006954:	f44f 72df 	mov.w	r2, #446	@ 0x1be
20006958:	a801      	add	r0, sp, #4
2000695a:	f000 fc3d 	bl	200071d8 <disk_readp>
2000695e:	2800      	cmp	r0, #0
20006960:	d1f0      	bne.n	20006944 <pf_mount+0xac>
20006962:	f89d 3008 	ldrb.w	r3, [sp, #8]
20006966:	b93b      	cbnz	r3, 20006978 <pf_mount+0xe0>
20006968:	2006      	movs	r0, #6
2000696a:	b00a      	add	sp, #40	@ 0x28
2000696c:	bd70      	pop	{r4, r5, r6, pc}
2000696e:	2302      	movs	r3, #2
20006970:	7033      	strb	r3, [r6, #0]
20006972:	eb04 030c 	add.w	r3, r4, ip
20006976:	e7dc      	b.n	20006932 <pf_mount+0x9a>
20006978:	9c03      	ldr	r4, [sp, #12]
2000697a:	a801      	add	r0, sp, #4
2000697c:	4621      	mov	r1, r4
2000697e:	f7ff ff5d 	bl	2000683c <check_fs>
20006982:	e79a      	b.n	200068ba <pf_mount+0x22>
20006984:	200107e0 	.word	0x200107e0

20006988 <pf_open>:
20006988:	e92d 4ff0 	stmdb	sp!, {r4, r5, r6, r7, r8, r9, sl, fp, lr}
2000698c:	f8df 8280 	ldr.w	r8, [pc, #640]	@ 20006c10 <pf_open+0x288>
20006990:	b08f      	sub	sp, #60	@ 0x3c
20006992:	f8d8 9000 	ldr.w	r9, [r8]
20006996:	f1b9 0f00 	cmp.w	r9, #0
2000699a:	f000 8132 	beq.w	20006c02 <pf_open+0x27a>
2000699e:	2300      	movs	r3, #0
200069a0:	f889 3001 	strb.w	r3, [r9, #1]
200069a4:	7805      	ldrb	r5, [r0, #0]
200069a6:	4607      	mov	r7, r0
200069a8:	2d20      	cmp	r5, #32
200069aa:	d103      	bne.n	200069b4 <pf_open+0x2c>
200069ac:	f817 5f01 	ldrb.w	r5, [r7, #1]!
200069b0:	2d20      	cmp	r5, #32
200069b2:	d0fb      	beq.n	200069ac <pf_open+0x24>
200069b4:	2d2f      	cmp	r5, #47	@ 0x2f
200069b6:	bf04      	itt	eq
200069b8:	787d      	ldrbeq	r5, [r7, #1]
200069ba:	3701      	addeq	r7, #1
200069bc:	2d1f      	cmp	r5, #31
200069be:	f240 811a 	bls.w	20006bf6 <pf_open+0x26e>
200069c2:	464a      	mov	r2, r9
200069c4:	2600      	movs	r6, #0
200069c6:	2120      	movs	r1, #32
200069c8:	f04f 3320 	mov.w	r3, #538976288	@ 0x20202020
200069cc:	f242 0020 	movw	r0, #8224	@ 0x2020
200069d0:	428d      	cmp	r5, r1
200069d2:	e9cd 3303 	strd	r3, r3, [sp, #12]
200069d6:	f8ad 0014 	strh.w	r0, [sp, #20]
200069da:	f88d 1016 	strb.w	r1, [sp, #22]
200069de:	f240 8112 	bls.w	20006c06 <pf_open+0x27e>
200069e2:	2100      	movs	r1, #0
200069e4:	2408      	movs	r4, #8
200069e6:	2301      	movs	r3, #1
200069e8:	2d2f      	cmp	r5, #47	@ 0x2f
200069ea:	d024      	beq.n	20006a36 <pf_open+0xae>
200069ec:	2d2e      	cmp	r5, #46	@ 0x2e
200069ee:	f000 80d1 	beq.w	20006b94 <pf_open+0x20c>
200069f2:	42a1      	cmp	r1, r4
200069f4:	d21f      	bcs.n	20006a36 <pf_open+0xae>
200069f6:	0628      	lsls	r0, r5, #24
200069f8:	d502      	bpl.n	20006a00 <pf_open+0x78>
200069fa:	4884      	ldr	r0, [pc, #528]	@ (20006c0c <pf_open+0x284>)
200069fc:	3d80      	subs	r5, #128	@ 0x80
200069fe:	5d45      	ldrb	r5, [r0, r5]
20006a00:	f1a5 0061 	sub.w	r0, r5, #97	@ 0x61
20006a04:	2819      	cmp	r0, #25
20006a06:	bf98      	it	ls
20006a08:	3d20      	subls	r5, #32
20006a0a:	f101 0001 	add.w	r0, r1, #1
20006a0e:	bf98      	it	ls
20006a10:	b2ed      	uxtbls	r5, r5
20006a12:	4469      	add	r1, sp
20006a14:	730d      	strb	r5, [r1, #12]
20006a16:	b2c1      	uxtb	r1, r0
20006a18:	5cfd      	ldrb	r5, [r7, r3]
20006a1a:	3301      	adds	r3, #1
20006a1c:	2d20      	cmp	r5, #32
20006a1e:	b2db      	uxtb	r3, r3
20006a20:	d8e2      	bhi.n	200069e8 <pf_open+0x60>
20006a22:	2101      	movs	r1, #1
20006a24:	2e01      	cmp	r6, #1
20006a26:	f88d 1017 	strb.w	r1, [sp, #23]
20006a2a:	441f      	add	r7, r3
20006a2c:	d109      	bne.n	20006a42 <pf_open+0xba>
20006a2e:	2001      	movs	r0, #1
20006a30:	b00f      	add	sp, #60	@ 0x3c
20006a32:	e8bd 8ff0 	ldmia.w	sp!, {r4, r5, r6, r7, r8, r9, sl, fp, pc}
20006a36:	2100      	movs	r1, #0
20006a38:	2e01      	cmp	r6, #1
20006a3a:	f88d 1017 	strb.w	r1, [sp, #23]
20006a3e:	441f      	add	r7, r3
20006a40:	d0f5      	beq.n	20006a2e <pf_open+0xa6>
20006a42:	6893      	ldr	r3, [r2, #8]
20006a44:	429e      	cmp	r6, r3
20006a46:	d2f2      	bcs.n	20006a2e <pf_open+0xa6>
20006a48:	2e00      	cmp	r6, #0
20006a4a:	f040 80ae 	bne.w	20006baa <pf_open+0x222>
20006a4e:	7811      	ldrb	r1, [r2, #0]
20006a50:	f8d2 b010 	ldr.w	fp, [r2, #16]
20006a54:	2903      	cmp	r1, #3
20006a56:	f000 80a3 	beq.w	20006ba0 <pf_open+0x218>
20006a5a:	2400      	movs	r4, #0
20006a5c:	46a2      	mov	sl, r4
20006a5e:	2320      	movs	r3, #32
20006a60:	4659      	mov	r1, fp
20006a62:	a806      	add	r0, sp, #24
20006a64:	ea4f 124a 	mov.w	r2, sl, lsl #5
20006a68:	f000 fbb6 	bl	200071d8 <disk_readp>
20006a6c:	2800      	cmp	r0, #0
20006a6e:	d1de      	bne.n	20006a2e <pf_open+0xa6>
20006a70:	f89d 1018 	ldrb.w	r1, [sp, #24]
20006a74:	b1b1      	cbz	r1, 20006aa4 <pf_open+0x11c>
20006a76:	f89d 2023 	ldrb.w	r2, [sp, #35]	@ 0x23
20006a7a:	0710      	lsls	r0, r2, #28
20006a7c:	d516      	bpl.n	20006aac <pf_open+0x124>
20006a7e:	3401      	adds	r4, #1
20006a80:	b2a4      	uxth	r4, r4
20006a82:	b17c      	cbz	r4, 20006aa4 <pf_open+0x11c>
20006a84:	f1bb 0f00 	cmp.w	fp, #0
20006a88:	d00c      	beq.n	20006aa4 <pf_open+0x11c>
20006a8a:	0721      	lsls	r1, r4, #28
20006a8c:	f004 0a0f 	and.w	sl, r4, #15
20006a90:	d1e5      	bne.n	20006a5e <pf_open+0xd6>
20006a92:	f8d8 1000 	ldr.w	r1, [r8]
20006a96:	f10b 0b01 	add.w	fp, fp, #1
20006a9a:	2e00      	cmp	r6, #0
20006a9c:	d159      	bne.n	20006b52 <pf_open+0x1ca>
20006a9e:	888b      	ldrh	r3, [r1, #4]
20006aa0:	42a3      	cmp	r3, r4
20006aa2:	d8dc      	bhi.n	20006a5e <pf_open+0xd6>
20006aa4:	2003      	movs	r0, #3
20006aa6:	b00f      	add	sp, #60	@ 0x3c
20006aa8:	e8bd 8ff0 	ldmia.w	sp!, {r4, r5, r6, r7, r8, r9, sl, fp, pc}
20006aac:	f89d 000f 	ldrb.w	r0, [sp, #15]
20006ab0:	f89d 301b 	ldrb.w	r3, [sp, #27]
20006ab4:	f89d c010 	ldrb.w	ip, [sp, #16]
20006ab8:	1a1b      	subs	r3, r3, r0
20006aba:	f89d 001c 	ldrb.w	r0, [sp, #28]
20006abe:	eba0 000c 	sub.w	r0, r0, ip
20006ac2:	4303      	orrs	r3, r0
20006ac4:	f89d 000c 	ldrb.w	r0, [sp, #12]
20006ac8:	f89d c00e 	ldrb.w	ip, [sp, #14]
20006acc:	1a09      	subs	r1, r1, r0
20006ace:	430b      	orrs	r3, r1
20006ad0:	f89d 001d 	ldrb.w	r0, [sp, #29]
20006ad4:	f89d 1011 	ldrb.w	r1, [sp, #17]
20006ad8:	1a41      	subs	r1, r0, r1
20006ada:	430b      	orrs	r3, r1
20006adc:	f89d 001e 	ldrb.w	r0, [sp, #30]
20006ae0:	f89d 1012 	ldrb.w	r1, [sp, #18]
20006ae4:	1a40      	subs	r0, r0, r1
20006ae6:	4303      	orrs	r3, r0
20006ae8:	f89d 101f 	ldrb.w	r1, [sp, #31]
20006aec:	f89d 0013 	ldrb.w	r0, [sp, #19]
20006af0:	1a09      	subs	r1, r1, r0
20006af2:	430b      	orrs	r3, r1
20006af4:	f89d 0020 	ldrb.w	r0, [sp, #32]
20006af8:	f89d 1014 	ldrb.w	r1, [sp, #20]
20006afc:	1a40      	subs	r0, r0, r1
20006afe:	4303      	orrs	r3, r0
20006b00:	f89d 1021 	ldrb.w	r1, [sp, #33]	@ 0x21
20006b04:	f89d 0015 	ldrb.w	r0, [sp, #21]
20006b08:	1a09      	subs	r1, r1, r0
20006b0a:	430b      	orrs	r3, r1
20006b0c:	f89d 0022 	ldrb.w	r0, [sp, #34]	@ 0x22
20006b10:	f89d 1016 	ldrb.w	r1, [sp, #22]
20006b14:	1a40      	subs	r0, r0, r1
20006b16:	4303      	orrs	r3, r0
20006b18:	f89d 1019 	ldrb.w	r1, [sp, #25]
20006b1c:	f89d 000d 	ldrb.w	r0, [sp, #13]
20006b20:	1a09      	subs	r1, r1, r0
20006b22:	f89d 001a 	ldrb.w	r0, [sp, #26]
20006b26:	eba0 000c 	sub.w	r0, r0, ip
20006b2a:	4301      	orrs	r1, r0
20006b2c:	430b      	orrs	r3, r1
20006b2e:	d1a6      	bne.n	20006a7e <pf_open+0xf6>
20006b30:	2d20      	cmp	r5, #32
20006b32:	d945      	bls.n	20006bc0 <pf_open+0x238>
20006b34:	06d2      	lsls	r2, r2, #27
20006b36:	d5b5      	bpl.n	20006aa4 <pf_open+0x11c>
20006b38:	f8d8 2000 	ldr.w	r2, [r8]
20006b3c:	f8bd 6032 	ldrh.w	r6, [sp, #50]	@ 0x32
20006b40:	7811      	ldrb	r1, [r2, #0]
20006b42:	783d      	ldrb	r5, [r7, #0]
20006b44:	2903      	cmp	r1, #3
20006b46:	bf04      	itt	eq
20006b48:	f8bd 302c 	ldrheq.w	r3, [sp, #44]	@ 0x2c
20006b4c:	041b      	lsleq	r3, r3, #16
20006b4e:	431e      	orrs	r6, r3
20006b50:	e739      	b.n	200069c6 <pf_open+0x3e>
20006b52:	788b      	ldrb	r3, [r1, #2]
20006b54:	3b01      	subs	r3, #1
20006b56:	ea13 1314 	ands.w	r3, r3, r4, lsr #4
20006b5a:	d180      	bne.n	20006a5e <pf_open+0xd6>
20006b5c:	4630      	mov	r0, r6
20006b5e:	e9cd 1300 	strd	r1, r3, [sp]
20006b62:	f7ff fe35 	bl	200067d0 <get_fat>
20006b66:	2801      	cmp	r0, #1
20006b68:	4606      	mov	r6, r0
20006b6a:	f67f af60 	bls.w	20006a2e <pf_open+0xa6>
20006b6e:	9900      	ldr	r1, [sp, #0]
20006b70:	6889      	ldr	r1, [r1, #8]
20006b72:	4288      	cmp	r0, r1
20006b74:	d296      	bcs.n	20006aa4 <pf_open+0x11c>
20006b76:	f8d8 0000 	ldr.w	r0, [r8]
20006b7a:	f1a6 0c02 	sub.w	ip, r6, #2
20006b7e:	6881      	ldr	r1, [r0, #8]
20006b80:	9b01      	ldr	r3, [sp, #4]
20006b82:	3902      	subs	r1, #2
20006b84:	458c      	cmp	ip, r1
20006b86:	bf3b      	ittet	cc
20006b88:	7881      	ldrbcc	r1, [r0, #2]
20006b8a:	6943      	ldrcc	r3, [r0, #20]
20006b8c:	469b      	movcs	fp, r3
20006b8e:	fb0c 3b01 	mlacc	fp, ip, r1, r3
20006b92:	e764      	b.n	20006a5e <pf_open+0xd6>
20006b94:	2c08      	cmp	r4, #8
20006b96:	f47f af4e 	bne.w	20006a36 <pf_open+0xae>
20006b9a:	4621      	mov	r1, r4
20006b9c:	240b      	movs	r4, #11
20006b9e:	e73b      	b.n	20006a18 <pf_open+0x90>
20006ba0:	f1bb 0f00 	cmp.w	fp, #0
20006ba4:	f43f af59 	beq.w	20006a5a <pf_open+0xd2>
20006ba8:	465e      	mov	r6, fp
20006baa:	3b02      	subs	r3, #2
20006bac:	1eb1      	subs	r1, r6, #2
20006bae:	4299      	cmp	r1, r3
20006bb0:	bf3b      	ittet	cc
20006bb2:	7890      	ldrbcc	r0, [r2, #2]
20006bb4:	6953      	ldrcc	r3, [r2, #20]
20006bb6:	f04f 0b00 	movcs.w	fp, #0
20006bba:	fb01 3b00 	mlacc	fp, r1, r0, r3
20006bbe:	e74c      	b.n	20006a5a <pf_open+0xd2>
20006bc0:	f012 0010 	ands.w	r0, r2, #16
20006bc4:	f47f af6e 	bne.w	20006aa4 <pf_open+0x11c>
20006bc8:	f8d8 3000 	ldr.w	r3, [r8]
20006bcc:	2400      	movs	r4, #0
20006bce:	781b      	ldrb	r3, [r3, #0]
20006bd0:	2101      	movs	r1, #1
20006bd2:	2b03      	cmp	r3, #3
20006bd4:	bf14      	ite	ne
20006bd6:	4602      	movne	r2, r0
20006bd8:	f8bd 202c 	ldrheq.w	r2, [sp, #44]	@ 0x2c
20006bdc:	f8bd 3032 	ldrh.w	r3, [sp, #50]	@ 0x32
20006be0:	bf08      	it	eq
20006be2:	0412      	lsleq	r2, r2, #16
20006be4:	4313      	orrs	r3, r2
20006be6:	f8c9 3020 	str.w	r3, [r9, #32]
20006bea:	9b0d      	ldr	r3, [sp, #52]	@ 0x34
20006bec:	f889 1001 	strb.w	r1, [r9, #1]
20006bf0:	e9c9 4306 	strd	r4, r3, [r9, #24]
20006bf4:	e757      	b.n	20006aa6 <pf_open+0x11e>
20006bf6:	f8d9 3008 	ldr.w	r3, [r9, #8]
20006bfa:	2b00      	cmp	r3, #0
20006bfc:	f47f af52 	bne.w	20006aa4 <pf_open+0x11c>
20006c00:	e715      	b.n	20006a2e <pf_open+0xa6>
20006c02:	2005      	movs	r0, #5
20006c04:	e74f      	b.n	20006aa6 <pf_open+0x11e>
20006c06:	2101      	movs	r1, #1
20006c08:	460b      	mov	r3, r1
20006c0a:	e715      	b.n	20006a38 <pf_open+0xb0>
20006c0c:	2000f40c 	.word	0x2000f40c
20006c10:	200107e0 	.word	0x200107e0

20006c14 <pf_read>:
20006c14:	2300      	movs	r3, #0
20006c16:	e92d 47f0 	stmdb	sp!, {r4, r5, r6, r7, r8, r9, sl, lr}
20006c1a:	f8df 90c8 	ldr.w	r9, [pc, #200]	@ 20006ce4 <pf_read+0xd0>
20006c1e:	6013      	str	r3, [r2, #0]
20006c20:	f8d9 4000 	ldr.w	r4, [r9]
20006c24:	2c00      	cmp	r4, #0
20006c26:	d052      	beq.n	20006cce <pf_read+0xba>
20006c28:	f894 8001 	ldrb.w	r8, [r4, #1]
20006c2c:	f018 0801 	ands.w	r8, r8, #1
20006c30:	d048      	beq.n	20006cc4 <pf_read+0xb0>
20006c32:	4606      	mov	r6, r0
20006c34:	e9d4 0506 	ldrd	r0, r5, [r4, #24]
20006c38:	1a2d      	subs	r5, r5, r0
20006c3a:	428d      	cmp	r5, r1
20006c3c:	4617      	mov	r7, r2
20006c3e:	bf28      	it	cs
20006c40:	460d      	movcs	r5, r1
20006c42:	2d00      	cmp	r5, #0
20006c44:	d04b      	beq.n	20006cde <pf_read+0xca>
20006c46:	f3c0 0208 	ubfx	r2, r0, #0, #9
20006c4a:	2a00      	cmp	r2, #0
20006c4c:	d134      	bne.n	20006cb8 <pf_read+0xa4>
20006c4e:	78a3      	ldrb	r3, [r4, #2]
20006c50:	3b01      	subs	r3, #1
20006c52:	ea03 2350 	and.w	r3, r3, r0, lsr #9
20006c56:	f013 0aff 	ands.w	sl, r3, #255	@ 0xff
20006c5a:	d027      	beq.n	20006cac <pf_read+0x98>
20006c5c:	6a60      	ldr	r0, [r4, #36]	@ 0x24
20006c5e:	f8d9 2000 	ldr.w	r2, [r9]
20006c62:	3802      	subs	r0, #2
20006c64:	6893      	ldr	r3, [r2, #8]
20006c66:	3b02      	subs	r3, #2
20006c68:	4298      	cmp	r0, r3
20006c6a:	d235      	bcs.n	20006cd8 <pf_read+0xc4>
20006c6c:	7891      	ldrb	r1, [r2, #2]
20006c6e:	6953      	ldr	r3, [r2, #20]
20006c70:	fb00 3101 	mla	r1, r0, r1, r3
20006c74:	b381      	cbz	r1, 20006cd8 <pf_read+0xc4>
20006c76:	69a3      	ldr	r3, [r4, #24]
20006c78:	4451      	add	r1, sl
20006c7a:	62a1      	str	r1, [r4, #40]	@ 0x28
20006c7c:	f3c3 0208 	ubfx	r2, r3, #0, #9
20006c80:	f5c2 7a00 	rsb	sl, r2, #512	@ 0x200
20006c84:	45aa      	cmp	sl, r5
20006c86:	bf28      	it	cs
20006c88:	46aa      	movcs	sl, r5
20006c8a:	4630      	mov	r0, r6
20006c8c:	4653      	mov	r3, sl
20006c8e:	f000 faa3 	bl	200071d8 <disk_readp>
20006c92:	bb08      	cbnz	r0, 20006cd8 <pf_read+0xc4>
20006c94:	69a0      	ldr	r0, [r4, #24]
20006c96:	683b      	ldr	r3, [r7, #0]
20006c98:	4450      	add	r0, sl
20006c9a:	4453      	add	r3, sl
20006c9c:	61a0      	str	r0, [r4, #24]
20006c9e:	eba5 050a 	sub.w	r5, r5, sl
20006ca2:	603b      	str	r3, [r7, #0]
20006ca4:	2e00      	cmp	r6, #0
20006ca6:	d0cc      	beq.n	20006c42 <pf_read+0x2e>
20006ca8:	4456      	add	r6, sl
20006caa:	e7ca      	b.n	20006c42 <pf_read+0x2e>
20006cac:	b930      	cbnz	r0, 20006cbc <pf_read+0xa8>
20006cae:	6a20      	ldr	r0, [r4, #32]
20006cb0:	2801      	cmp	r0, #1
20006cb2:	d911      	bls.n	20006cd8 <pf_read+0xc4>
20006cb4:	6260      	str	r0, [r4, #36]	@ 0x24
20006cb6:	e7d2      	b.n	20006c5e <pf_read+0x4a>
20006cb8:	6aa1      	ldr	r1, [r4, #40]	@ 0x28
20006cba:	e7e1      	b.n	20006c80 <pf_read+0x6c>
20006cbc:	6a60      	ldr	r0, [r4, #36]	@ 0x24
20006cbe:	f7ff fd87 	bl	200067d0 <get_fat>
20006cc2:	e7f5      	b.n	20006cb0 <pf_read+0x9c>
20006cc4:	f04f 0804 	mov.w	r8, #4
20006cc8:	4640      	mov	r0, r8
20006cca:	e8bd 87f0 	ldmia.w	sp!, {r4, r5, r6, r7, r8, r9, sl, pc}
20006cce:	f04f 0805 	mov.w	r8, #5
20006cd2:	4640      	mov	r0, r8
20006cd4:	e8bd 87f0 	ldmia.w	sp!, {r4, r5, r6, r7, r8, r9, sl, pc}
20006cd8:	2300      	movs	r3, #0
20006cda:	7063      	strb	r3, [r4, #1]
20006cdc:	e7f4      	b.n	20006cc8 <pf_read+0xb4>
20006cde:	f04f 0800 	mov.w	r8, #0
20006ce2:	e7f1      	b.n	20006cc8 <pf_read+0xb4>
20006ce4:	200107e0 	.word	0x200107e0

20006ce8 <pf_write>:
20006ce8:	2300      	movs	r3, #0
20006cea:	e92d 47f0 	stmdb	sp!, {r4, r5, r6, r7, r8, r9, sl, lr}
20006cee:	f8df 8124 	ldr.w	r8, [pc, #292]	@ 20006e14 <pf_write+0x12c>
20006cf2:	6013      	str	r3, [r2, #0]
20006cf4:	f8d8 5000 	ldr.w	r5, [r8]
20006cf8:	2d00      	cmp	r5, #0
20006cfa:	f000 8086 	beq.w	20006e0a <pf_write+0x122>
20006cfe:	786b      	ldrb	r3, [r5, #1]
20006d00:	f013 0901 	ands.w	r9, r3, #1
20006d04:	d078      	beq.n	20006df8 <pf_write+0x110>
20006d06:	4607      	mov	r7, r0
20006d08:	f003 0440 	and.w	r4, r3, #64	@ 0x40
20006d0c:	4608      	mov	r0, r1
20006d0e:	b949      	cbnz	r1, 20006d24 <pf_write+0x3c>
20006d10:	2c00      	cmp	r4, #0
20006d12:	d16b      	bne.n	20006dec <pf_write+0x104>
20006d14:	f023 0340 	bic.w	r3, r3, #64	@ 0x40
20006d18:	706b      	strb	r3, [r5, #1]
20006d1a:	f04f 0900 	mov.w	r9, #0
20006d1e:	4648      	mov	r0, r9
20006d20:	e8bd 87f0 	ldmia.w	sp!, {r4, r5, r6, r7, r8, r9, sl, pc}
20006d24:	4616      	mov	r6, r2
20006d26:	69aa      	ldr	r2, [r5, #24]
20006d28:	2c00      	cmp	r4, #0
20006d2a:	d05b      	beq.n	20006de4 <pf_write+0xfc>
20006d2c:	69eb      	ldr	r3, [r5, #28]
20006d2e:	eba3 0a02 	sub.w	sl, r3, r2
20006d32:	4582      	cmp	sl, r0
20006d34:	bf28      	it	cs
20006d36:	4682      	movcs	sl, r0
20006d38:	f1ba 0f00 	cmp.w	sl, #0
20006d3c:	d0ed      	beq.n	20006d1a <pf_write+0x32>
20006d3e:	f3c2 0408 	ubfx	r4, r2, #0, #9
20006d42:	bb0c      	cbnz	r4, 20006d88 <pf_write+0xa0>
20006d44:	78ab      	ldrb	r3, [r5, #2]
20006d46:	3b01      	subs	r3, #1
20006d48:	ea03 2352 	and.w	r3, r3, r2, lsr #9
20006d4c:	f013 04ff 	ands.w	r4, r3, #255	@ 0xff
20006d50:	d03d      	beq.n	20006dce <pf_write+0xe6>
20006d52:	6a68      	ldr	r0, [r5, #36]	@ 0x24
20006d54:	f8d8 2000 	ldr.w	r2, [r8]
20006d58:	3802      	subs	r0, #2
20006d5a:	6893      	ldr	r3, [r2, #8]
20006d5c:	3b02      	subs	r3, #2
20006d5e:	4298      	cmp	r0, r3
20006d60:	d23b      	bcs.n	20006dda <pf_write+0xf2>
20006d62:	7891      	ldrb	r1, [r2, #2]
20006d64:	6953      	ldr	r3, [r2, #20]
20006d66:	fb00 3101 	mla	r1, r0, r1, r3
20006d6a:	2900      	cmp	r1, #0
20006d6c:	d035      	beq.n	20006dda <pf_write+0xf2>
20006d6e:	4421      	add	r1, r4
20006d70:	2000      	movs	r0, #0
20006d72:	62a9      	str	r1, [r5, #40]	@ 0x28
20006d74:	f000 faaa 	bl	200072cc <disk_writep>
20006d78:	bb78      	cbnz	r0, 20006dda <pf_write+0xf2>
20006d7a:	786b      	ldrb	r3, [r5, #1]
20006d7c:	69ac      	ldr	r4, [r5, #24]
20006d7e:	f043 0340 	orr.w	r3, r3, #64	@ 0x40
20006d82:	706b      	strb	r3, [r5, #1]
20006d84:	f3c4 0408 	ubfx	r4, r4, #0, #9
20006d88:	f5c4 7400 	rsb	r4, r4, #512	@ 0x200
20006d8c:	4554      	cmp	r4, sl
20006d8e:	bf28      	it	cs
20006d90:	4654      	movcs	r4, sl
20006d92:	4638      	mov	r0, r7
20006d94:	4621      	mov	r1, r4
20006d96:	f000 fa99 	bl	200072cc <disk_writep>
20006d9a:	b9f0      	cbnz	r0, 20006dda <pf_write+0xf2>
20006d9c:	69a9      	ldr	r1, [r5, #24]
20006d9e:	6833      	ldr	r3, [r6, #0]
20006da0:	4421      	add	r1, r4
20006da2:	61a9      	str	r1, [r5, #24]
20006da4:	4423      	add	r3, r4
20006da6:	f3c1 0108 	ubfx	r1, r1, #0, #9
20006daa:	4427      	add	r7, r4
20006dac:	ebaa 0a04 	sub.w	sl, sl, r4
20006db0:	6033      	str	r3, [r6, #0]
20006db2:	b121      	cbz	r1, 20006dbe <pf_write+0xd6>
20006db4:	f1ba 0f00 	cmp.w	sl, #0
20006db8:	d0af      	beq.n	20006d1a <pf_write+0x32>
20006dba:	69aa      	ldr	r2, [r5, #24]
20006dbc:	e7bf      	b.n	20006d3e <pf_write+0x56>
20006dbe:	f000 fa85 	bl	200072cc <disk_writep>
20006dc2:	b950      	cbnz	r0, 20006dda <pf_write+0xf2>
20006dc4:	786b      	ldrb	r3, [r5, #1]
20006dc6:	f023 0340 	bic.w	r3, r3, #64	@ 0x40
20006dca:	706b      	strb	r3, [r5, #1]
20006dcc:	e7f2      	b.n	20006db4 <pf_write+0xcc>
20006dce:	b9c2      	cbnz	r2, 20006e02 <pf_write+0x11a>
20006dd0:	6a28      	ldr	r0, [r5, #32]
20006dd2:	2801      	cmp	r0, #1
20006dd4:	d901      	bls.n	20006dda <pf_write+0xf2>
20006dd6:	6268      	str	r0, [r5, #36]	@ 0x24
20006dd8:	e7bc      	b.n	20006d54 <pf_write+0x6c>
20006dda:	2300      	movs	r3, #0
20006ddc:	706b      	strb	r3, [r5, #1]
20006dde:	4648      	mov	r0, r9
20006de0:	e8bd 87f0 	ldmia.w	sp!, {r4, r5, r6, r7, r8, r9, sl, pc}
20006de4:	f36f 0208 	bfc	r2, #0, #9
20006de8:	61aa      	str	r2, [r5, #24]
20006dea:	e79f      	b.n	20006d2c <pf_write+0x44>
20006dec:	f000 fa6e 	bl	200072cc <disk_writep>
20006df0:	2800      	cmp	r0, #0
20006df2:	d1f2      	bne.n	20006dda <pf_write+0xf2>
20006df4:	786b      	ldrb	r3, [r5, #1]
20006df6:	e78d      	b.n	20006d14 <pf_write+0x2c>
20006df8:	f04f 0904 	mov.w	r9, #4
20006dfc:	4648      	mov	r0, r9
20006dfe:	e8bd 87f0 	ldmia.w	sp!, {r4, r5, r6, r7, r8, r9, sl, pc}
20006e02:	6a68      	ldr	r0, [r5, #36]	@ 0x24
20006e04:	f7ff fce4 	bl	200067d0 <get_fat>
20006e08:	e7e3      	b.n	20006dd2 <pf_write+0xea>
20006e0a:	f04f 0905 	mov.w	r9, #5
20006e0e:	4648      	mov	r0, r9
20006e10:	e8bd 87f0 	ldmia.w	sp!, {r4, r5, r6, r7, r8, r9, sl, pc}
20006e14:	200107e0 	.word	0x200107e0

20006e18 <pf_lseek>:
20006e18:	e92d 41f0 	stmdb	sp!, {r4, r5, r6, r7, r8, lr}
20006e1c:	f8df 8110 	ldr.w	r8, [pc, #272]	@ 20006f30 <pf_lseek+0x118>
20006e20:	b082      	sub	sp, #8
20006e22:	f8d8 4000 	ldr.w	r4, [r8]
20006e26:	2c00      	cmp	r4, #0
20006e28:	d07a      	beq.n	20006f20 <pf_lseek+0x108>
20006e2a:	7867      	ldrb	r7, [r4, #1]
20006e2c:	f017 0701 	ands.w	r7, r7, #1
20006e30:	d071      	beq.n	20006f16 <pf_lseek+0xfe>
20006e32:	69e3      	ldr	r3, [r4, #28]
20006e34:	2200      	movs	r2, #0
20006e36:	4298      	cmp	r0, r3
20006e38:	bf28      	it	cs
20006e3a:	4618      	movcs	r0, r3
20006e3c:	69a3      	ldr	r3, [r4, #24]
20006e3e:	61a2      	str	r2, [r4, #24]
20006e40:	b310      	cbz	r0, 20006e88 <pf_lseek+0x70>
20006e42:	78a5      	ldrb	r5, [r4, #2]
20006e44:	026d      	lsls	r5, r5, #9
20006e46:	bb0b      	cbnz	r3, 20006e8c <pf_lseek+0x74>
20006e48:	4606      	mov	r6, r0
20006e4a:	6a22      	ldr	r2, [r4, #32]
20006e4c:	6262      	str	r2, [r4, #36]	@ 0x24
20006e4e:	42b5      	cmp	r5, r6
20006e50:	d26b      	bcs.n	20006f2a <pf_lseek+0x112>
20006e52:	2a01      	cmp	r2, #1
20006e54:	d828      	bhi.n	20006ea8 <pf_lseek+0x90>
20006e56:	2300      	movs	r3, #0
20006e58:	7063      	strb	r3, [r4, #1]
20006e5a:	4638      	mov	r0, r7
20006e5c:	b002      	add	sp, #8
20006e5e:	e8bd 81f0 	ldmia.w	sp!, {r4, r5, r6, r7, r8, pc}
20006e62:	4430      	add	r0, r6
20006e64:	688b      	ldr	r3, [r1, #8]
20006e66:	3a02      	subs	r2, #2
20006e68:	3b02      	subs	r3, #2
20006e6a:	429a      	cmp	r2, r3
20006e6c:	61a0      	str	r0, [r4, #24]
20006e6e:	d2f2      	bcs.n	20006e56 <pf_lseek+0x3e>
20006e70:	788d      	ldrb	r5, [r1, #2]
20006e72:	694b      	ldr	r3, [r1, #20]
20006e74:	fb02 3205 	mla	r2, r2, r5, r3
20006e78:	2a00      	cmp	r2, #0
20006e7a:	d0ec      	beq.n	20006e56 <pf_lseek+0x3e>
20006e7c:	78a3      	ldrb	r3, [r4, #2]
20006e7e:	3b01      	subs	r3, #1
20006e80:	ea03 2350 	and.w	r3, r3, r0, lsr #9
20006e84:	4413      	add	r3, r2
20006e86:	62a3      	str	r3, [r4, #40]	@ 0x28
20006e88:	2700      	movs	r7, #0
20006e8a:	e7e6      	b.n	20006e5a <pf_lseek+0x42>
20006e8c:	3b01      	subs	r3, #1
20006e8e:	1e42      	subs	r2, r0, #1
20006e90:	fbb2 f2f5 	udiv	r2, r2, r5
20006e94:	fbb3 f1f5 	udiv	r1, r3, r5
20006e98:	428a      	cmp	r2, r1
20006e9a:	d3d5      	bcc.n	20006e48 <pf_lseek+0x30>
20006e9c:	426e      	negs	r6, r5
20006e9e:	401e      	ands	r6, r3
20006ea0:	61a6      	str	r6, [r4, #24]
20006ea2:	6a62      	ldr	r2, [r4, #36]	@ 0x24
20006ea4:	1b86      	subs	r6, r0, r6
20006ea6:	e7d2      	b.n	20006e4e <pf_lseek+0x36>
20006ea8:	4621      	mov	r1, r4
20006eaa:	e023      	b.n	20006ef4 <pf_lseek+0xdc>
20006eac:	780b      	ldrb	r3, [r1, #0]
20006eae:	2b02      	cmp	r3, #2
20006eb0:	d024      	beq.n	20006efc <pf_lseek+0xe4>
20006eb2:	2b03      	cmp	r3, #3
20006eb4:	d1cf      	bne.n	20006e56 <pf_lseek+0x3e>
20006eb6:	2304      	movs	r3, #4
20006eb8:	68c9      	ldr	r1, [r1, #12]
20006eba:	eb0d 0003 	add.w	r0, sp, r3
20006ebe:	eb01 11d2 	add.w	r1, r1, r2, lsr #7
20006ec2:	f002 027f 	and.w	r2, r2, #127	@ 0x7f
20006ec6:	0092      	lsls	r2, r2, #2
20006ec8:	f000 f986 	bl	200071d8 <disk_readp>
20006ecc:	2800      	cmp	r0, #0
20006ece:	d1c2      	bne.n	20006e56 <pf_lseek+0x3e>
20006ed0:	9a01      	ldr	r2, [sp, #4]
20006ed2:	f022 4270 	bic.w	r2, r2, #4026531840	@ 0xf0000000
20006ed6:	2a01      	cmp	r2, #1
20006ed8:	d9bd      	bls.n	20006e56 <pf_lseek+0x3e>
20006eda:	68a3      	ldr	r3, [r4, #8]
20006edc:	4293      	cmp	r3, r2
20006ede:	d9ba      	bls.n	20006e56 <pf_lseek+0x3e>
20006ee0:	69a0      	ldr	r0, [r4, #24]
20006ee2:	1b73      	subs	r3, r6, r5
20006ee4:	1941      	adds	r1, r0, r5
20006ee6:	429d      	cmp	r5, r3
20006ee8:	61a1      	str	r1, [r4, #24]
20006eea:	6262      	str	r2, [r4, #36]	@ 0x24
20006eec:	f8d8 1000 	ldr.w	r1, [r8]
20006ef0:	d2b7      	bcs.n	20006e62 <pf_lseek+0x4a>
20006ef2:	461e      	mov	r6, r3
20006ef4:	688b      	ldr	r3, [r1, #8]
20006ef6:	4293      	cmp	r3, r2
20006ef8:	d8d8      	bhi.n	20006eac <pf_lseek+0x94>
20006efa:	e7ac      	b.n	20006e56 <pf_lseek+0x3e>
20006efc:	68c9      	ldr	r1, [r1, #12]
20006efe:	a801      	add	r0, sp, #4
20006f00:	eb01 2112 	add.w	r1, r1, r2, lsr #8
20006f04:	b2d2      	uxtb	r2, r2
20006f06:	0052      	lsls	r2, r2, #1
20006f08:	f000 f966 	bl	200071d8 <disk_readp>
20006f0c:	2800      	cmp	r0, #0
20006f0e:	d1a2      	bne.n	20006e56 <pf_lseek+0x3e>
20006f10:	f8bd 2004 	ldrh.w	r2, [sp, #4]
20006f14:	e7df      	b.n	20006ed6 <pf_lseek+0xbe>
20006f16:	2704      	movs	r7, #4
20006f18:	4638      	mov	r0, r7
20006f1a:	b002      	add	sp, #8
20006f1c:	e8bd 81f0 	ldmia.w	sp!, {r4, r5, r6, r7, r8, pc}
20006f20:	2705      	movs	r7, #5
20006f22:	4638      	mov	r0, r7
20006f24:	b002      	add	sp, #8
20006f26:	e8bd 81f0 	ldmia.w	sp!, {r4, r5, r6, r7, r8, pc}
20006f2a:	4621      	mov	r1, r4
20006f2c:	e79a      	b.n	20006e64 <pf_lseek+0x4c>
20006f2e:	bf00      	nop
20006f30:	200107e0 	.word	0x200107e0

20006f34 <send_cmd>:
20006f34:	b570      	push	{r4, r5, r6, lr}
20006f36:	0603      	lsls	r3, r0, #24
20006f38:	460e      	mov	r6, r1
20006f3a:	b082      	sub	sp, #8
20006f3c:	d463      	bmi.n	20007006 <send_cmd+0xd2>
20006f3e:	4605      	mov	r5, r0
20006f40:	2401      	movs	r4, #1
20006f42:	ec44 4040 	gpioc_bit_out_put r4, r4
20006f46:	21ff      	movs	r1, #255	@ 0xff
20006f48:	4623      	mov	r3, r4
20006f4a:	f10d 0207 	add.w	r2, sp, #7
20006f4e:	4833      	ldr	r0, [pc, #204]	@ (2000701c <send_cmd+0xe8>)
20006f50:	f006 fe52 	bl	2000dbf8 <spi_read_blocking>
20006f54:	f04f 0300 	mov.w	r3, #0
20006f58:	ec43 4040 	gpioc_bit_out_put r4, r3
20006f5c:	21ff      	movs	r1, #255	@ 0xff
20006f5e:	4623      	mov	r3, r4
20006f60:	f10d 0207 	add.w	r2, sp, #7
20006f64:	482d      	ldr	r0, [pc, #180]	@ (2000701c <send_cmd+0xe8>)
20006f66:	f006 fe47 	bl	2000dbf8 <spi_read_blocking>
20006f6a:	4622      	mov	r2, r4
20006f6c:	f10d 0107 	add.w	r1, sp, #7
20006f70:	482a      	ldr	r0, [pc, #168]	@ (2000701c <send_cmd+0xe8>)
20006f72:	f88d 5007 	strb.w	r5, [sp, #7]
20006f76:	f006 fdf7 	bl	2000db68 <spi_write_blocking>
20006f7a:	0e33      	lsrs	r3, r6, #24
20006f7c:	4622      	mov	r2, r4
20006f7e:	f10d 0107 	add.w	r1, sp, #7
20006f82:	4826      	ldr	r0, [pc, #152]	@ (2000701c <send_cmd+0xe8>)
20006f84:	f88d 3007 	strb.w	r3, [sp, #7]
20006f88:	f006 fdee 	bl	2000db68 <spi_write_blocking>
20006f8c:	0c33      	lsrs	r3, r6, #16
20006f8e:	4622      	mov	r2, r4
20006f90:	f10d 0107 	add.w	r1, sp, #7
20006f94:	4821      	ldr	r0, [pc, #132]	@ (2000701c <send_cmd+0xe8>)
20006f96:	f88d 3007 	strb.w	r3, [sp, #7]
20006f9a:	f006 fde5 	bl	2000db68 <spi_write_blocking>
20006f9e:	0a33      	lsrs	r3, r6, #8
20006fa0:	4622      	mov	r2, r4
20006fa2:	f10d 0107 	add.w	r1, sp, #7
20006fa6:	481d      	ldr	r0, [pc, #116]	@ (2000701c <send_cmd+0xe8>)
20006fa8:	f88d 3007 	strb.w	r3, [sp, #7]
20006fac:	f006 fddc 	bl	2000db68 <spi_write_blocking>
20006fb0:	4622      	mov	r2, r4
20006fb2:	481a      	ldr	r0, [pc, #104]	@ (2000701c <send_cmd+0xe8>)
20006fb4:	f10d 0107 	add.w	r1, sp, #7
20006fb8:	f88d 6007 	strb.w	r6, [sp, #7]
20006fbc:	f006 fdd4 	bl	2000db68 <spi_write_blocking>
20006fc0:	2d40      	cmp	r5, #64	@ 0x40
20006fc2:	d028      	beq.n	20007016 <send_cmd+0xe2>
20006fc4:	2d48      	cmp	r5, #72	@ 0x48
20006fc6:	bf0c      	ite	eq
20006fc8:	2387      	moveq	r3, #135	@ 0x87
20006fca:	4623      	movne	r3, r4
20006fcc:	2201      	movs	r2, #1
20006fce:	4813      	ldr	r0, [pc, #76]	@ (2000701c <send_cmd+0xe8>)
20006fd0:	f10d 0107 	add.w	r1, sp, #7
20006fd4:	f88d 3007 	strb.w	r3, [sp, #7]
20006fd8:	240a      	movs	r4, #10
20006fda:	f006 fdc5 	bl	2000db68 <spi_write_blocking>
20006fde:	2301      	movs	r3, #1
20006fe0:	f10d 0207 	add.w	r2, sp, #7
20006fe4:	21ff      	movs	r1, #255	@ 0xff
20006fe6:	480d      	ldr	r0, [pc, #52]	@ (2000701c <send_cmd+0xe8>)
20006fe8:	f006 fe06 	bl	2000dbf8 <spi_read_blocking>
20006fec:	f99d 2007 	ldrsb.w	r2, [sp, #7]
20006ff0:	f89d 0007 	ldrb.w	r0, [sp, #7]
20006ff4:	2a00      	cmp	r2, #0
20006ff6:	f104 33ff 	add.w	r3, r4, #4294967295
20006ffa:	da02      	bge.n	20007002 <send_cmd+0xce>
20006ffc:	f013 04ff 	ands.w	r4, r3, #255	@ 0xff
20007000:	d1ed      	bne.n	20006fde <send_cmd+0xaa>
20007002:	b002      	add	sp, #8
20007004:	bd70      	pop	{r4, r5, r6, pc}
20007006:	2100      	movs	r1, #0
20007008:	2077      	movs	r0, #119	@ 0x77
2000700a:	f7ff ff93 	bl	20006f34 <send_cmd>
2000700e:	2801      	cmp	r0, #1
20007010:	d8f7      	bhi.n	20007002 <send_cmd+0xce>
20007012:	2569      	movs	r5, #105	@ 0x69
20007014:	e794      	b.n	20006f40 <send_cmd+0xc>
20007016:	2395      	movs	r3, #149	@ 0x95
20007018:	e7d8      	b.n	20006fcc <send_cmd+0x98>
2000701a:	bf00      	nop
2000701c:	40080000 	.word	0x40080000

20007020 <disk_initialize>:
20007020:	b570      	push	{r4, r5, r6, lr}
20007022:	2001      	movs	r0, #1
20007024:	b082      	sub	sp, #8
20007026:	f7fb fb41 	bl	200026ac <gpio_init>
2000702a:	2002      	movs	r0, #2
2000702c:	f7fb fb3e 	bl	200026ac <gpio_init>
20007030:	2003      	movs	r0, #3
20007032:	f7fb fb3b 	bl	200026ac <gpio_init>
20007036:	2000      	movs	r0, #0
20007038:	f7fb fb38 	bl	200026ac <gpio_init>
2000703c:	2019      	movs	r0, #25
2000703e:	f7fb fb35 	bl	200026ac <gpio_init>
20007042:	2401      	movs	r4, #1
20007044:	ec44 4044 	gpioc_bit_oe_put r4, r4
20007048:	2319      	movs	r3, #25
2000704a:	ec44 3044 	gpioc_bit_oe_put r3, r4
2000704e:	495e      	ldr	r1, [pc, #376]	@ (200071c8 <disk_initialize+0x1a8>)
20007050:	485e      	ldr	r0, [pc, #376]	@ (200071cc <disk_initialize+0x1ac>)
20007052:	f7fd fc09 	bl	20004868 <spi_init>
20007056:	4621      	mov	r1, r4
20007058:	2002      	movs	r0, #2
2000705a:	f7fb fa93 	bl	20002584 <gpio_set_function>
2000705e:	4621      	mov	r1, r4
20007060:	2003      	movs	r0, #3
20007062:	f7fb fa8f 	bl	20002584 <gpio_set_function>
20007066:	4621      	mov	r1, r4
20007068:	2000      	movs	r0, #0
2000706a:	f7fb fa8b 	bl	20002584 <gpio_set_function>
2000706e:	4621      	mov	r1, r4
20007070:	2002      	movs	r0, #2
20007072:	f7fb fab9 	bl	200025e8 <gpio_set_slew_rate>
20007076:	4621      	mov	r1, r4
20007078:	4620      	mov	r0, r4
2000707a:	f7fb fab5 	bl	200025e8 <gpio_set_slew_rate>
2000707e:	4621      	mov	r1, r4
20007080:	2000      	movs	r0, #0
20007082:	f7fb fab1 	bl	200025e8 <gpio_set_slew_rate>
20007086:	4621      	mov	r1, r4
20007088:	2003      	movs	r0, #3
2000708a:	f7fb faad 	bl	200025e8 <gpio_set_slew_rate>
2000708e:	ec44 4040 	gpioc_bit_out_put r4, r4
20007092:	23ff      	movs	r3, #255	@ 0xff
20007094:	240a      	movs	r4, #10
20007096:	f88d 3004 	strb.w	r3, [sp, #4]
2000709a:	2201      	movs	r2, #1
2000709c:	484b      	ldr	r0, [pc, #300]	@ (200071cc <disk_initialize+0x1ac>)
2000709e:	a901      	add	r1, sp, #4
200070a0:	f006 fd62 	bl	2000db68 <spi_write_blocking>
200070a4:	3c01      	subs	r4, #1
200070a6:	d1f8      	bne.n	2000709a <disk_initialize+0x7a>
200070a8:	4621      	mov	r1, r4
200070aa:	2040      	movs	r0, #64	@ 0x40
200070ac:	f7ff ff42 	bl	20006f34 <send_cmd>
200070b0:	2801      	cmp	r0, #1
200070b2:	4605      	mov	r5, r0
200070b4:	d014      	beq.n	200070e0 <disk_initialize+0xc0>
200070b6:	f10d 0603 	add.w	r6, sp, #3
200070ba:	2401      	movs	r4, #1
200070bc:	2500      	movs	r5, #0
200070be:	4a44      	ldr	r2, [pc, #272]	@ (200071d0 <disk_initialize+0x1b0>)
200070c0:	2301      	movs	r3, #1
200070c2:	7015      	strb	r5, [r2, #0]
200070c4:	ec43 3040 	gpioc_bit_out_put r3, r3
200070c8:	21ff      	movs	r1, #255	@ 0xff
200070ca:	4632      	mov	r2, r6
200070cc:	483f      	ldr	r0, [pc, #252]	@ (200071cc <disk_initialize+0x1ac>)
200070ce:	f006 fd93 	bl	2000dbf8 <spi_read_blocking>
200070d2:	4940      	ldr	r1, [pc, #256]	@ (200071d4 <disk_initialize+0x1b4>)
200070d4:	483d      	ldr	r0, [pc, #244]	@ (200071cc <disk_initialize+0x1ac>)
200070d6:	f7fd fc41 	bl	2000495c <spi_set_baudrate>
200070da:	4620      	mov	r0, r4
200070dc:	b002      	add	sp, #8
200070de:	bd70      	pop	{r4, r5, r6, pc}
200070e0:	f44f 71d5 	mov.w	r1, #426	@ 0x1aa
200070e4:	2048      	movs	r0, #72	@ 0x48
200070e6:	f7ff ff25 	bl	20006f34 <send_cmd>
200070ea:	2801      	cmp	r0, #1
200070ec:	d144      	bne.n	20007178 <disk_initialize+0x158>
200070ee:	ac01      	add	r4, sp, #4
200070f0:	4625      	mov	r5, r4
200070f2:	f10d 0603 	add.w	r6, sp, #3
200070f6:	2301      	movs	r3, #1
200070f8:	4632      	mov	r2, r6
200070fa:	21ff      	movs	r1, #255	@ 0xff
200070fc:	4833      	ldr	r0, [pc, #204]	@ (200071cc <disk_initialize+0x1ac>)
200070fe:	f006 fd7b 	bl	2000dbf8 <spi_read_blocking>
20007102:	f89d 3003 	ldrb.w	r3, [sp, #3]
20007106:	f805 3b01 	strb.w	r3, [r5], #1
2000710a:	ab02      	add	r3, sp, #8
2000710c:	429d      	cmp	r5, r3
2000710e:	d1f2      	bne.n	200070f6 <disk_initialize+0xd6>
20007110:	f89d 3006 	ldrb.w	r3, [sp, #6]
20007114:	2b01      	cmp	r3, #1
20007116:	d1d0      	bne.n	200070ba <disk_initialize+0x9a>
20007118:	f89d 3007 	ldrb.w	r3, [sp, #7]
2000711c:	2baa      	cmp	r3, #170	@ 0xaa
2000711e:	d1cc      	bne.n	200070ba <disk_initialize+0x9a>
20007120:	f44f 757a 	mov.w	r5, #1000	@ 0x3e8
20007124:	e006      	b.n	20007134 <disk_initialize+0x114>
20007126:	f44f 707a 	mov.w	r0, #1000	@ 0x3e8
2000712a:	2100      	movs	r1, #0
2000712c:	f7fc f978 	bl	20003420 <sleep_us>
20007130:	3d01      	subs	r5, #1
20007132:	d0c2      	beq.n	200070ba <disk_initialize+0x9a>
20007134:	f04f 4180 	mov.w	r1, #1073741824	@ 0x40000000
20007138:	20e9      	movs	r0, #233	@ 0xe9
2000713a:	f7ff fefb 	bl	20006f34 <send_cmd>
2000713e:	2800      	cmp	r0, #0
20007140:	d1f1      	bne.n	20007126 <disk_initialize+0x106>
20007142:	4601      	mov	r1, r0
20007144:	207a      	movs	r0, #122	@ 0x7a
20007146:	f7ff fef5 	bl	20006f34 <send_cmd>
2000714a:	2800      	cmp	r0, #0
2000714c:	d1b5      	bne.n	200070ba <disk_initialize+0x9a>
2000714e:	2301      	movs	r3, #1
20007150:	4632      	mov	r2, r6
20007152:	21ff      	movs	r1, #255	@ 0xff
20007154:	481d      	ldr	r0, [pc, #116]	@ (200071cc <disk_initialize+0x1ac>)
20007156:	f006 fd4f 	bl	2000dbf8 <spi_read_blocking>
2000715a:	f89d 3003 	ldrb.w	r3, [sp, #3]
2000715e:	f804 3b01 	strb.w	r3, [r4], #1
20007162:	ab02      	add	r3, sp, #8
20007164:	429c      	cmp	r4, r3
20007166:	d1f2      	bne.n	2000714e <disk_initialize+0x12e>
20007168:	f89d 4004 	ldrb.w	r4, [sp, #4]
2000716c:	f014 0440 	ands.w	r4, r4, #64	@ 0x40
20007170:	d027      	beq.n	200071c2 <disk_initialize+0x1a2>
20007172:	2400      	movs	r4, #0
20007174:	250c      	movs	r5, #12
20007176:	e7a2      	b.n	200070be <disk_initialize+0x9e>
20007178:	4621      	mov	r1, r4
2000717a:	20e9      	movs	r0, #233	@ 0xe9
2000717c:	f7ff feda 	bl	20006f34 <send_cmd>
20007180:	2801      	cmp	r0, #1
20007182:	bf9a      	itte	ls
20007184:	2502      	movls	r5, #2
20007186:	26e9      	movls	r6, #233	@ 0xe9
20007188:	2641      	movhi	r6, #65	@ 0x41
2000718a:	f44f 747a 	mov.w	r4, #1000	@ 0x3e8
2000718e:	e006      	b.n	2000719e <disk_initialize+0x17e>
20007190:	f44f 707a 	mov.w	r0, #1000	@ 0x3e8
20007194:	2100      	movs	r1, #0
20007196:	f7fc f943 	bl	20003420 <sleep_us>
2000719a:	3c01      	subs	r4, #1
2000719c:	d08b      	beq.n	200070b6 <disk_initialize+0x96>
2000719e:	2100      	movs	r1, #0
200071a0:	4630      	mov	r0, r6
200071a2:	f7ff fec7 	bl	20006f34 <send_cmd>
200071a6:	2800      	cmp	r0, #0
200071a8:	d1f2      	bne.n	20007190 <disk_initialize+0x170>
200071aa:	f44f 7100 	mov.w	r1, #512	@ 0x200
200071ae:	2050      	movs	r0, #80	@ 0x50
200071b0:	f7ff fec0 	bl	20006f34 <send_cmd>
200071b4:	4604      	mov	r4, r0
200071b6:	2800      	cmp	r0, #0
200071b8:	f47f af7d 	bne.w	200070b6 <disk_initialize+0x96>
200071bc:	f10d 0603 	add.w	r6, sp, #3
200071c0:	e77d      	b.n	200070be <disk_initialize+0x9e>
200071c2:	2504      	movs	r5, #4
200071c4:	e77b      	b.n	200070be <disk_initialize+0x9e>
200071c6:	bf00      	nop
200071c8:	000186a0 	.word	0x000186a0
200071cc:	40080000 	.word	0x40080000
200071d0:	2005afc4 	.word	0x2005afc4
200071d4:	01312d00 	.word	0x01312d00

200071d8 <disk_readp>:
200071d8:	e92d 43f0 	stmdb	sp!, {r4, r5, r6, r7, r8, r9, lr}
200071dc:	4c39      	ldr	r4, [pc, #228]	@ (200072c4 <disk_readp+0xec>)
200071de:	461f      	mov	r7, r3
200071e0:	7824      	ldrb	r4, [r4, #0]
200071e2:	4606      	mov	r6, r0
200071e4:	0723      	lsls	r3, r4, #28
200071e6:	f04f 0051 	mov.w	r0, #81	@ 0x51
200071ea:	b083      	sub	sp, #12
200071ec:	bf58      	it	pl
200071ee:	0249      	lslpl	r1, r1, #9
200071f0:	4691      	mov	r9, r2
200071f2:	f7ff fe9f 	bl	20006f34 <send_cmd>
200071f6:	4680      	mov	r8, r0
200071f8:	b178      	cbz	r0, 2000721a <disk_readp+0x42>
200071fa:	f10d 0507 	add.w	r5, sp, #7
200071fe:	f04f 0801 	mov.w	r8, #1
20007202:	2301      	movs	r3, #1
20007204:	ec43 3040 	gpioc_bit_out_put r3, r3
20007208:	21ff      	movs	r1, #255	@ 0xff
2000720a:	462a      	mov	r2, r5
2000720c:	482e      	ldr	r0, [pc, #184]	@ (200072c8 <disk_readp+0xf0>)
2000720e:	f006 fcf3 	bl	2000dbf8 <spi_read_blocking>
20007212:	4640      	mov	r0, r8
20007214:	b003      	add	sp, #12
20007216:	e8bd 83f0 	ldmia.w	sp!, {r4, r5, r6, r7, r8, r9, pc}
2000721a:	2319      	movs	r3, #25
2000721c:	f04f 0201 	mov.w	r2, #1
20007220:	ec42 3040 	gpioc_bit_out_put r3, r2
20007224:	f44f 747a 	mov.w	r4, #1000	@ 0x3e8
20007228:	f10d 0507 	add.w	r5, sp, #7
2000722c:	e001      	b.n	20007232 <disk_readp+0x5a>
2000722e:	3c01      	subs	r4, #1
20007230:	d0e5      	beq.n	200071fe <disk_readp+0x26>
20007232:	2064      	movs	r0, #100	@ 0x64
20007234:	2100      	movs	r1, #0
20007236:	f7fc f8f3 	bl	20003420 <sleep_us>
2000723a:	21ff      	movs	r1, #255	@ 0xff
2000723c:	2301      	movs	r3, #1
2000723e:	462a      	mov	r2, r5
20007240:	4821      	ldr	r0, [pc, #132]	@ (200072c8 <disk_readp+0xf0>)
20007242:	f006 fcd9 	bl	2000dbf8 <spi_read_blocking>
20007246:	f89d 1007 	ldrb.w	r1, [sp, #7]
2000724a:	29ff      	cmp	r1, #255	@ 0xff
2000724c:	d0ef      	beq.n	2000722e <disk_readp+0x56>
2000724e:	29fe      	cmp	r1, #254	@ 0xfe
20007250:	d1d5      	bne.n	200071fe <disk_readp+0x26>
20007252:	f5c7 7400 	rsb	r4, r7, #512	@ 0x200
20007256:	3402      	adds	r4, #2
20007258:	eba4 0409 	sub.w	r4, r4, r9
2000725c:	f1b9 0f00 	cmp.w	r9, #0
20007260:	d00a      	beq.n	20007278 <disk_readp+0xa0>
20007262:	23ff      	movs	r3, #255	@ 0xff
20007264:	f88d 3007 	strb.w	r3, [sp, #7]
20007268:	2201      	movs	r2, #1
2000726a:	4629      	mov	r1, r5
2000726c:	4816      	ldr	r0, [pc, #88]	@ (200072c8 <disk_readp+0xf0>)
2000726e:	f006 fc7b 	bl	2000db68 <spi_write_blocking>
20007272:	f1b9 0901 	subs.w	r9, r9, #1
20007276:	d1f7      	bne.n	20007268 <disk_readp+0x90>
20007278:	b1d6      	cbz	r6, 200072b0 <disk_readp+0xd8>
2000727a:	4437      	add	r7, r6
2000727c:	2301      	movs	r3, #1
2000727e:	462a      	mov	r2, r5
20007280:	21ff      	movs	r1, #255	@ 0xff
20007282:	4811      	ldr	r0, [pc, #68]	@ (200072c8 <disk_readp+0xf0>)
20007284:	f006 fcb8 	bl	2000dbf8 <spi_read_blocking>
20007288:	f89d 3007 	ldrb.w	r3, [sp, #7]
2000728c:	f806 3b01 	strb.w	r3, [r6], #1
20007290:	42be      	cmp	r6, r7
20007292:	d1f3      	bne.n	2000727c <disk_readp+0xa4>
20007294:	23ff      	movs	r3, #255	@ 0xff
20007296:	f88d 3007 	strb.w	r3, [sp, #7]
2000729a:	2201      	movs	r2, #1
2000729c:	4629      	mov	r1, r5
2000729e:	480a      	ldr	r0, [pc, #40]	@ (200072c8 <disk_readp+0xf0>)
200072a0:	f006 fc62 	bl	2000db68 <spi_write_blocking>
200072a4:	3c01      	subs	r4, #1
200072a6:	d1f8      	bne.n	2000729a <disk_readp+0xc2>
200072a8:	2319      	movs	r3, #25
200072aa:	ec44 3040 	gpioc_bit_out_put r3, r4
200072ae:	e7a8      	b.n	20007202 <disk_readp+0x2a>
200072b0:	2301      	movs	r3, #1
200072b2:	462a      	mov	r2, r5
200072b4:	21ff      	movs	r1, #255	@ 0xff
200072b6:	4804      	ldr	r0, [pc, #16]	@ (200072c8 <disk_readp+0xf0>)
200072b8:	f006 fc9e 	bl	2000dbf8 <spi_read_blocking>
200072bc:	3f01      	subs	r7, #1
200072be:	d1f7      	bne.n	200072b0 <disk_readp+0xd8>
200072c0:	e7e8      	b.n	20007294 <disk_readp+0xbc>
200072c2:	bf00      	nop
200072c4:	2005afc4 	.word	0x2005afc4
200072c8:	40080000 	.word	0x40080000

200072cc <disk_writep>:
200072cc:	b5f0      	push	{r4, r5, r6, r7, lr}
200072ce:	2319      	movs	r3, #25
200072d0:	f04f 0201 	mov.w	r2, #1
200072d4:	460e      	mov	r6, r1
200072d6:	b083      	sub	sp, #12
200072d8:	ec42 3040 	gpioc_bit_out_put r3, r2
200072dc:	b1f0      	cbz	r0, 2000731c <disk_writep+0x50>
200072de:	b1a1      	cbz	r1, 2000730a <disk_writep+0x3e>
200072e0:	4607      	mov	r7, r0
200072e2:	4604      	mov	r4, r0
200072e4:	4d40      	ldr	r5, [pc, #256]	@ (200073e8 <disk_writep+0x11c>)
200072e6:	682b      	ldr	r3, [r5, #0]
200072e8:	b17b      	cbz	r3, 2000730a <disk_writep+0x3e>
200072ea:	f814 3b01 	ldrb.w	r3, [r4], #1
200072ee:	2201      	movs	r2, #1
200072f0:	483e      	ldr	r0, [pc, #248]	@ (200073ec <disk_writep+0x120>)
200072f2:	f10d 0107 	add.w	r1, sp, #7
200072f6:	f88d 3007 	strb.w	r3, [sp, #7]
200072fa:	f006 fc35 	bl	2000db68 <spi_write_blocking>
200072fe:	682b      	ldr	r3, [r5, #0]
20007300:	1b32      	subs	r2, r6, r4
20007302:	3b01      	subs	r3, #1
20007304:	42d7      	cmn	r7, r2
20007306:	602b      	str	r3, [r5, #0]
20007308:	d1ee      	bne.n	200072e8 <disk_writep+0x1c>
2000730a:	2400      	movs	r4, #0
2000730c:	2319      	movs	r3, #25
2000730e:	f04f 0200 	mov.w	r2, #0
20007312:	ec42 3040 	gpioc_bit_out_put r3, r2
20007316:	4620      	mov	r0, r4
20007318:	b003      	add	sp, #12
2000731a:	bdf0      	pop	{r4, r5, r6, r7, pc}
2000731c:	b161      	cbz	r1, 20007338 <disk_writep+0x6c>
2000731e:	4b34      	ldr	r3, [pc, #208]	@ (200073f0 <disk_writep+0x124>)
20007320:	2058      	movs	r0, #88	@ 0x58
20007322:	781b      	ldrb	r3, [r3, #0]
20007324:	071b      	lsls	r3, r3, #28
20007326:	bf58      	it	pl
20007328:	024e      	lslpl	r6, r1, #9
2000732a:	4631      	mov	r1, r6
2000732c:	f7ff fe02 	bl	20006f34 <send_cmd>
20007330:	2800      	cmp	r0, #0
20007332:	d041      	beq.n	200073b8 <disk_writep+0xec>
20007334:	2401      	movs	r4, #1
20007336:	e7e9      	b.n	2000730c <disk_writep+0x40>
20007338:	4b2b      	ldr	r3, [pc, #172]	@ (200073e8 <disk_writep+0x11c>)
2000733a:	f10d 0507 	add.w	r5, sp, #7
2000733e:	681b      	ldr	r3, [r3, #0]
20007340:	1c5c      	adds	r4, r3, #1
20007342:	3302      	adds	r3, #2
20007344:	d00a      	beq.n	2000735c <disk_writep+0x90>
20007346:	2201      	movs	r2, #1
20007348:	4629      	mov	r1, r5
2000734a:	4828      	ldr	r0, [pc, #160]	@ (200073ec <disk_writep+0x120>)
2000734c:	f88d 6007 	strb.w	r6, [sp, #7]
20007350:	f006 fc0a 	bl	2000db68 <spi_write_blocking>
20007354:	4623      	mov	r3, r4
20007356:	3c01      	subs	r4, #1
20007358:	2b00      	cmp	r3, #0
2000735a:	d1f4      	bne.n	20007346 <disk_writep+0x7a>
2000735c:	2301      	movs	r3, #1
2000735e:	462a      	mov	r2, r5
20007360:	21ff      	movs	r1, #255	@ 0xff
20007362:	4822      	ldr	r0, [pc, #136]	@ (200073ec <disk_writep+0x120>)
20007364:	f006 fc48 	bl	2000dbf8 <spi_read_blocking>
20007368:	f89d 3007 	ldrb.w	r3, [sp, #7]
2000736c:	f003 031f 	and.w	r3, r3, #31
20007370:	2b05      	cmp	r3, #5
20007372:	d009      	beq.n	20007388 <disk_writep+0xbc>
20007374:	2401      	movs	r4, #1
20007376:	2301      	movs	r3, #1
20007378:	ec43 3040 	gpioc_bit_out_put r3, r3
2000737c:	21ff      	movs	r1, #255	@ 0xff
2000737e:	462a      	mov	r2, r5
20007380:	481a      	ldr	r0, [pc, #104]	@ (200073ec <disk_writep+0x120>)
20007382:	f006 fc39 	bl	2000dbf8 <spi_read_blocking>
20007386:	e7c1      	b.n	2000730c <disk_writep+0x40>
20007388:	f242 7410 	movw	r4, #10000	@ 0x2710
2000738c:	e006      	b.n	2000739c <disk_writep+0xd0>
2000738e:	2c00      	cmp	r4, #0
20007390:	d0f0      	beq.n	20007374 <disk_writep+0xa8>
20007392:	2064      	movs	r0, #100	@ 0x64
20007394:	2100      	movs	r1, #0
20007396:	f7fc f843 	bl	20003420 <sleep_us>
2000739a:	3c01      	subs	r4, #1
2000739c:	2301      	movs	r3, #1
2000739e:	462a      	mov	r2, r5
200073a0:	21ff      	movs	r1, #255	@ 0xff
200073a2:	4812      	ldr	r0, [pc, #72]	@ (200073ec <disk_writep+0x120>)
200073a4:	f006 fc28 	bl	2000dbf8 <spi_read_blocking>
200073a8:	f89d 3007 	ldrb.w	r3, [sp, #7]
200073ac:	2bff      	cmp	r3, #255	@ 0xff
200073ae:	d1ee      	bne.n	2000738e <disk_writep+0xc2>
200073b0:	fab4 f484 	clz	r4, r4
200073b4:	0964      	lsrs	r4, r4, #5
200073b6:	e7de      	b.n	20007376 <disk_writep+0xaa>
200073b8:	23ff      	movs	r3, #255	@ 0xff
200073ba:	2201      	movs	r2, #1
200073bc:	f10d 0107 	add.w	r1, sp, #7
200073c0:	480a      	ldr	r0, [pc, #40]	@ (200073ec <disk_writep+0x120>)
200073c2:	f88d 3007 	strb.w	r3, [sp, #7]
200073c6:	f006 fbcf 	bl	2000db68 <spi_write_blocking>
200073ca:	23fe      	movs	r3, #254	@ 0xfe
200073cc:	2201      	movs	r2, #1
200073ce:	4807      	ldr	r0, [pc, #28]	@ (200073ec <disk_writep+0x120>)
200073d0:	f10d 0107 	add.w	r1, sp, #7
200073d4:	f88d 3007 	strb.w	r3, [sp, #7]
200073d8:	f006 fbc6 	bl	2000db68 <spi_write_blocking>
200073dc:	f44f 7200 	mov.w	r2, #512	@ 0x200
200073e0:	4b01      	ldr	r3, [pc, #4]	@ (200073e8 <disk_writep+0x11c>)
200073e2:	601a      	str	r2, [r3, #0]
200073e4:	e791      	b.n	2000730a <disk_writep+0x3e>
200073e6:	bf00      	nop
200073e8:	2005afbc 	.word	0x2005afbc
200073ec:	40080000 	.word	0x40080000
200073f0:	2005afc4 	.word	0x2005afc4

200073f4 <dma_handler>:
200073f4:	e92d 4ff0 	stmdb	sp!, {r4, r5, r6, r7, r8, r9, sl, fp, lr}
200073f8:	2501      	movs	r5, #1
200073fa:	f04f 40a0 	mov.w	r0, #1342177280	@ 0x50000000
200073fe:	4b96      	ldr	r3, [pc, #600]	@ (20007658 <dma_handler+0x264>)
20007400:	4996      	ldr	r1, [pc, #600]	@ (2000765c <dma_handler+0x268>)
20007402:	681b      	ldr	r3, [r3, #0]
20007404:	b083      	sub	sp, #12
20007406:	019a      	lsls	r2, r3, #6
20007408:	fa05 f303 	lsl.w	r3, r5, r3
2000740c:	f8c0 340c 	str.w	r3, [r0, #1036]	@ 0x40c
20007410:	680b      	ldr	r3, [r1, #0]
20007412:	4402      	add	r2, r0
20007414:	63d3      	str	r3, [r2, #60]	@ 0x3c
20007416:	4a92      	ldr	r2, [pc, #584]	@ (20007660 <dma_handler+0x26c>)
20007418:	7810      	ldrb	r0, [r2, #0]
2000741a:	2800      	cmp	r0, #0
2000741c:	f040 80d0 	bne.w	200075c0 <dma_handler+0x1cc>
20007420:	2703      	movs	r7, #3
20007422:	2605      	movs	r6, #5
20007424:	4601      	mov	r1, r0
20007426:	f8df c278 	ldr.w	ip, [pc, #632]	@ 200076a0 <dma_handler+0x2ac>
2000742a:	4b8e      	ldr	r3, [pc, #568]	@ (20007664 <dma_handler+0x270>)
2000742c:	9501      	str	r5, [sp, #4]
2000742e:	e024      	b.n	2000747a <dma_handler+0x86>
20007430:	f814 9002 	ldrb.w	r9, [r4, r2]
20007434:	ea48 0809 	orr.w	r8, r8, r9
20007438:	f804 8002 	strb.w	r8, [r4, r2]
2000743c:	9a01      	ldr	r2, [sp, #4]
2000743e:	f8d3 8000 	ldr.w	r8, [r3]
20007442:	3206      	adds	r2, #6
20007444:	9201      	str	r2, [sp, #4]
20007446:	1072      	asrs	r2, r6, #1
20007448:	f818 4002 	ldrb.w	r4, [r8, r2]
2000744c:	3101      	adds	r1, #1
2000744e:	f004 0407 	and.w	r4, r4, #7
20007452:	f808 4002 	strb.w	r4, [r8, r2]
20007456:	f8d3 8000 	ldr.w	r8, [r3]
2000745a:	2935      	cmp	r1, #53	@ 0x35
2000745c:	f818 4002 	ldrb.w	r4, [r8, r2]
20007460:	f100 0006 	add.w	r0, r0, #6
20007464:	ea44 040e 	orr.w	r4, r4, lr
20007468:	b2e4      	uxtb	r4, r4
2000746a:	f107 0706 	add.w	r7, r7, #6
2000746e:	f106 0606 	add.w	r6, r6, #6
20007472:	f808 4002 	strb.w	r4, [r8, r2]
20007476:	f000 80af 	beq.w	200075d8 <dma_handler+0x1e4>
2000747a:	4a7b      	ldr	r2, [pc, #492]	@ (20007668 <dma_handler+0x274>)
2000747c:	4d7b      	ldr	r5, [pc, #492]	@ (2000766c <dma_handler+0x278>)
2000747e:	6812      	ldr	r2, [r2, #0]
20007480:	f8dc 4000 	ldr.w	r4, [ip]
20007484:	5c52      	ldrb	r2, [r2, r1]
20007486:	f8d3 a000 	ldr.w	sl, [r3]
2000748a:	eb02 0282 	add.w	r2, r2, r2, lsl #2
2000748e:	f815 e002 	ldrb.w	lr, [r5, r2]
20007492:	fa4e fe04 	asr.w	lr, lr, r4
20007496:	4c76      	ldr	r4, [pc, #472]	@ (20007670 <dma_handler+0x27c>)
20007498:	f01e 0f01 	tst.w	lr, #1
2000749c:	6824      	ldr	r4, [r4, #0]
2000749e:	f814 8001 	ldrb.w	r8, [r4, r1]
200074a2:	4c74      	ldr	r4, [pc, #464]	@ (20007674 <dma_handler+0x280>)
200074a4:	6824      	ldr	r4, [r4, #0]
200074a6:	f814 9001 	ldrb.w	r9, [r4, r1]
200074aa:	ea4f 0460 	mov.w	r4, r0, asr #1
200074ae:	f81a e004 	ldrb.w	lr, [sl, r4]
200074b2:	f00e 0e38 	and.w	lr, lr, #56	@ 0x38
200074b6:	f80a e004 	strb.w	lr, [sl, r4]
200074ba:	f8d3 a000 	ldr.w	sl, [r3]
200074be:	f81a e004 	ldrb.w	lr, [sl, r4]
200074c2:	bf0c      	ite	eq
200074c4:	ea49 0e0e 	orreq.w	lr, r9, lr
200074c8:	ea48 0e0e 	orrne.w	lr, r8, lr
200074cc:	f80a e004 	strb.w	lr, [sl, r4]
200074d0:	4c69      	ldr	r4, [pc, #420]	@ (20007678 <dma_handler+0x284>)
200074d2:	f8dc e000 	ldr.w	lr, [ip]
200074d6:	5ca4      	ldrb	r4, [r4, r2]
200074d8:	9d01      	ldr	r5, [sp, #4]
200074da:	fa44 f40e 	asr.w	r4, r4, lr
200074de:	f8d3 e000 	ldr.w	lr, [r3]
200074e2:	ea4f 0a65 	mov.w	sl, r5, asr #1
200074e6:	f014 0f01 	tst.w	r4, #1
200074ea:	f81e 400a 	ldrb.w	r4, [lr, sl]
200074ee:	4d63      	ldr	r5, [pc, #396]	@ (2000767c <dma_handler+0x288>)
200074f0:	f004 0407 	and.w	r4, r4, #7
200074f4:	f80e 400a 	strb.w	r4, [lr, sl]
200074f8:	f8d3 b000 	ldr.w	fp, [r3]
200074fc:	ea4f 0ec9 	mov.w	lr, r9, lsl #3
20007500:	f81b 400a 	ldrb.w	r4, [fp, sl]
20007504:	bf0c      	ite	eq
20007506:	ea44 04c9 	orreq.w	r4, r4, r9, lsl #3
2000750a:	ea44 04c8 	orrne.w	r4, r4, r8, lsl #3
2000750e:	b2e4      	uxtb	r4, r4
20007510:	f80b 400a 	strb.w	r4, [fp, sl]
20007514:	f8dc 4000 	ldr.w	r4, [ip]
20007518:	f815 a002 	ldrb.w	sl, [r5, r2]
2000751c:	f8d3 b000 	ldr.w	fp, [r3]
20007520:	fa4a fa04 	asr.w	sl, sl, r4
20007524:	1c84      	adds	r4, r0, #2
20007526:	1064      	asrs	r4, r4, #1
20007528:	f01a 0f01 	tst.w	sl, #1
2000752c:	f81b a004 	ldrb.w	sl, [fp, r4]
20007530:	f00a 0a38 	and.w	sl, sl, #56	@ 0x38
20007534:	f80b a004 	strb.w	sl, [fp, r4]
20007538:	f8d3 b000 	ldr.w	fp, [r3]
2000753c:	f81b a004 	ldrb.w	sl, [fp, r4]
20007540:	bf0c      	ite	eq
20007542:	ea49 0a0a 	orreq.w	sl, r9, sl
20007546:	ea48 0a0a 	orrne.w	sl, r8, sl
2000754a:	f80b a004 	strb.w	sl, [fp, r4]
2000754e:	4c4c      	ldr	r4, [pc, #304]	@ (20007680 <dma_handler+0x28c>)
20007550:	f8dc a000 	ldr.w	sl, [ip]
20007554:	5ca4      	ldrb	r4, [r4, r2]
20007556:	f8d3 b000 	ldr.w	fp, [r3]
2000755a:	fa44 f40a 	asr.w	r4, r4, sl
2000755e:	ea4f 0a67 	mov.w	sl, r7, asr #1
20007562:	f014 0f01 	tst.w	r4, #1
20007566:	f81b 400a 	ldrb.w	r4, [fp, sl]
2000756a:	f004 0407 	and.w	r4, r4, #7
2000756e:	f80b 400a 	strb.w	r4, [fp, sl]
20007572:	f8d3 b000 	ldr.w	fp, [r3]
20007576:	f81b 400a 	ldrb.w	r4, [fp, sl]
2000757a:	bf0c      	ite	eq
2000757c:	ea44 040e 	orreq.w	r4, r4, lr
20007580:	ea44 04c8 	orrne.w	r4, r4, r8, lsl #3
20007584:	b2e4      	uxtb	r4, r4
20007586:	f80b 400a 	strb.w	r4, [fp, sl]
2000758a:	4c3e      	ldr	r4, [pc, #248]	@ (20007684 <dma_handler+0x290>)
2000758c:	f8d3 a000 	ldr.w	sl, [r3]
20007590:	5ca4      	ldrb	r4, [r4, r2]
20007592:	f8dc 2000 	ldr.w	r2, [ip]
20007596:	4114      	asrs	r4, r2
20007598:	1d02      	adds	r2, r0, #4
2000759a:	1052      	asrs	r2, r2, #1
2000759c:	f014 0f01 	tst.w	r4, #1
200075a0:	f81a 4002 	ldrb.w	r4, [sl, r2]
200075a4:	f004 0438 	and.w	r4, r4, #56	@ 0x38
200075a8:	f80a 4002 	strb.w	r4, [sl, r2]
200075ac:	681c      	ldr	r4, [r3, #0]
200075ae:	f47f af3f 	bne.w	20007430 <dma_handler+0x3c>
200075b2:	f814 8002 	ldrb.w	r8, [r4, r2]
200075b6:	ea49 0908 	orr.w	r9, r9, r8
200075ba:	f804 9002 	strb.w	r9, [r4, r2]
200075be:	e73d      	b.n	2000743c <dma_handler+0x48>
200075c0:	4a28      	ldr	r2, [pc, #160]	@ (20007664 <dma_handler+0x270>)
200075c2:	6810      	ldr	r0, [r2, #0]
200075c4:	6013      	str	r3, [r2, #0]
200075c6:	2200      	movs	r2, #0
200075c8:	6008      	str	r0, [r1, #0]
200075ca:	492f      	ldr	r1, [pc, #188]	@ (20007688 <dma_handler+0x294>)
200075cc:	600b      	str	r3, [r1, #0]
200075ce:	4b24      	ldr	r3, [pc, #144]	@ (20007660 <dma_handler+0x26c>)
200075d0:	701a      	strb	r2, [r3, #0]
200075d2:	b003      	add	sp, #12
200075d4:	e8bd 8ff0 	ldmia.w	sp!, {r4, r5, r6, r7, r8, r9, sl, fp, pc}
200075d8:	4b2c      	ldr	r3, [pc, #176]	@ (2000768c <dma_handler+0x298>)
200075da:	681a      	ldr	r2, [r3, #0]
200075dc:	2aef      	cmp	r2, #239	@ 0xef
200075de:	d011      	beq.n	20007604 <dma_handler+0x210>
200075e0:	681a      	ldr	r2, [r3, #0]
200075e2:	3201      	adds	r2, #1
200075e4:	601a      	str	r2, [r3, #0]
200075e6:	f8dc 3000 	ldr.w	r3, [ip]
200075ea:	2b07      	cmp	r3, #7
200075ec:	d01d      	beq.n	2000762a <dma_handler+0x236>
200075ee:	f8dc 3000 	ldr.w	r3, [ip]
200075f2:	3301      	adds	r3, #1
200075f4:	f8cc 3000 	str.w	r3, [ip]
200075f8:	2201      	movs	r2, #1
200075fa:	4b19      	ldr	r3, [pc, #100]	@ (20007660 <dma_handler+0x26c>)
200075fc:	701a      	strb	r2, [r3, #0]
200075fe:	b003      	add	sp, #12
20007600:	e8bd 8ff0 	ldmia.w	sp!, {r4, r5, r6, r7, r8, r9, sl, fp, pc}
20007604:	2200      	movs	r2, #0
20007606:	601a      	str	r2, [r3, #0]
20007608:	4b21      	ldr	r3, [pc, #132]	@ (20007690 <dma_handler+0x29c>)
2000760a:	f8cc 2000 	str.w	r2, [ip]
2000760e:	601a      	str	r2, [r3, #0]
20007610:	4b20      	ldr	r3, [pc, #128]	@ (20007694 <dma_handler+0x2a0>)
20007612:	4a15      	ldr	r2, [pc, #84]	@ (20007668 <dma_handler+0x274>)
20007614:	6013      	str	r3, [r2, #0]
20007616:	4b20      	ldr	r3, [pc, #128]	@ (20007698 <dma_handler+0x2a4>)
20007618:	4a15      	ldr	r2, [pc, #84]	@ (20007670 <dma_handler+0x27c>)
2000761a:	6013      	str	r3, [r2, #0]
2000761c:	4b1f      	ldr	r3, [pc, #124]	@ (2000769c <dma_handler+0x2a8>)
2000761e:	4a15      	ldr	r2, [pc, #84]	@ (20007674 <dma_handler+0x280>)
20007620:	6013      	str	r3, [r2, #0]
20007622:	f8dc 3000 	ldr.w	r3, [ip]
20007626:	2b07      	cmp	r3, #7
20007628:	d1e1      	bne.n	200075ee <dma_handler+0x1fa>
2000762a:	2300      	movs	r3, #0
2000762c:	2035      	movs	r0, #53	@ 0x35
2000762e:	4918      	ldr	r1, [pc, #96]	@ (20007690 <dma_handler+0x29c>)
20007630:	f8cc 3000 	str.w	r3, [ip]
20007634:	680b      	ldr	r3, [r1, #0]
20007636:	4a17      	ldr	r2, [pc, #92]	@ (20007694 <dma_handler+0x2a0>)
20007638:	3301      	adds	r3, #1
2000763a:	600b      	str	r3, [r1, #0]
2000763c:	fb00 f303 	mul.w	r3, r0, r3
20007640:	4909      	ldr	r1, [pc, #36]	@ (20007668 <dma_handler+0x274>)
20007642:	441a      	add	r2, r3
20007644:	600a      	str	r2, [r1, #0]
20007646:	4a14      	ldr	r2, [pc, #80]	@ (20007698 <dma_handler+0x2a4>)
20007648:	4909      	ldr	r1, [pc, #36]	@ (20007670 <dma_handler+0x27c>)
2000764a:	441a      	add	r2, r3
2000764c:	600a      	str	r2, [r1, #0]
2000764e:	4a13      	ldr	r2, [pc, #76]	@ (2000769c <dma_handler+0x2a8>)
20007650:	4413      	add	r3, r2
20007652:	4a08      	ldr	r2, [pc, #32]	@ (20007674 <dma_handler+0x280>)
20007654:	6013      	str	r3, [r2, #0]
20007656:	e7cf      	b.n	200075f8 <dma_handler+0x204>
20007658:	2005a794 	.word	0x2005a794
2000765c:	2000f964 	.word	0x2000f964
20007660:	2005afcd 	.word	0x2005afcd
20007664:	2000f968 	.word	0x2000f968
20007668:	2000f960 	.word	0x2000f960
2000766c:	2000f96c 	.word	0x2000f96c
20007670:	2000f95c 	.word	0x2000f95c
20007674:	2000f958 	.word	0x2000f958
20007678:	2000f96d 	.word	0x2000f96d
2000767c:	2000f96e 	.word	0x2000f96e
20007680:	2000f96f 	.word	0x2000f96f
20007684:	2000f970 	.word	0x2000f970
20007688:	2005a720 	.word	0x2005a720
2000768c:	2005a724 	.word	0x2005a724
20007690:	2005ae4c 	.word	0x2005ae4c
20007694:	2005a7b0 	.word	0x2005a7b0
20007698:	20059cc0 	.word	0x20059cc0
2000769c:	2001138c 	.word	0x2001138c
200076a0:	2005a300 	.word	0x2005a300

200076a4 <VGA_cursor>:
200076a4:	4a02      	ldr	r2, [pc, #8]	@ (200076b0 <VGA_cursor+0xc>)
200076a6:	4b03      	ldr	r3, [pc, #12]	@ (200076b4 <VGA_cursor+0x10>)
200076a8:	6010      	str	r0, [r2, #0]
200076aa:	6019      	str	r1, [r3, #0]
200076ac:	4770      	bx	lr
200076ae:	bf00      	nop
200076b0:	20059c80 	.word	0x20059c80
200076b4:	20059c84 	.word	0x20059c84

200076b8 <VGA_clear>:
200076b8:	b470      	push	{r4, r5, r6}
200076ba:	2400      	movs	r4, #0
200076bc:	f240 6536 	movw	r5, #1590	@ 0x636
200076c0:	4919      	ldr	r1, [pc, #100]	@ (20007728 <VGA_clear+0x70>)
200076c2:	4b1a      	ldr	r3, [pc, #104]	@ (2000772c <VGA_clear+0x74>)
200076c4:	680a      	ldr	r2, [r1, #0]
200076c6:	b083      	sub	sp, #12
200076c8:	ea03 3342 	and.w	r3, r3, r2, lsl #13
200076cc:	4e18      	ldr	r6, [pc, #96]	@ (20007730 <VGA_clear+0x78>)
200076ce:	f443 03fc 	orr.w	r3, r3, #8257536	@ 0x7e0000
200076d2:	0192      	lsls	r2, r2, #6
200076d4:	f102 42a0 	add.w	r2, r2, #1342177280	@ 0x50000000
200076d8:	f043 0341 	orr.w	r3, r3, #65	@ 0x41
200076dc:	f10d 0007 	add.w	r0, sp, #7
200076e0:	6010      	str	r0, [r2, #0]
200076e2:	f88d 4007 	strb.w	r4, [sp, #7]
200076e6:	6056      	str	r6, [r2, #4]
200076e8:	6095      	str	r5, [r2, #8]
200076ea:	60d3      	str	r3, [r2, #12]
200076ec:	6913      	ldr	r3, [r2, #16]
200076ee:	f013 6380 	ands.w	r3, r3, #67108864	@ 0x4000000
200076f2:	d1fb      	bne.n	200076ec <VGA_clear+0x34>
200076f4:	f240 6436 	movw	r4, #1590	@ 0x636
200076f8:	680a      	ldr	r2, [r1, #0]
200076fa:	490c      	ldr	r1, [pc, #48]	@ (2000772c <VGA_clear+0x74>)
200076fc:	f88d 3007 	strb.w	r3, [sp, #7]
20007700:	ea01 3142 	and.w	r1, r1, r2, lsl #13
20007704:	0193      	lsls	r3, r2, #6
20007706:	f441 01fc 	orr.w	r1, r1, #8257536	@ 0x7e0000
2000770a:	4a0a      	ldr	r2, [pc, #40]	@ (20007734 <VGA_clear+0x7c>)
2000770c:	f103 43a0 	add.w	r3, r3, #1342177280	@ 0x50000000
20007710:	f041 0141 	orr.w	r1, r1, #65	@ 0x41
20007714:	6018      	str	r0, [r3, #0]
20007716:	605a      	str	r2, [r3, #4]
20007718:	609c      	str	r4, [r3, #8]
2000771a:	60d9      	str	r1, [r3, #12]
2000771c:	691a      	ldr	r2, [r3, #16]
2000771e:	0152      	lsls	r2, r2, #5
20007720:	d4fc      	bmi.n	2000771c <VGA_clear+0x64>
20007722:	b003      	add	sp, #12
20007724:	bc70      	pop	{r4, r5, r6}
20007726:	4770      	bx	lr
20007728:	2005a72c 	.word	0x2005a72c
2000772c:	fc7ffffd 	.word	0xfc7ffffd
20007730:	2005a7b0 	.word	0x2005a7b0
20007734:	2001138c 	.word	0x2001138c

20007738 <VGA_scrollUp>:
20007738:	e92d 41f0 	stmdb	sp!, {r4, r5, r6, r7, r8, lr}
2000773c:	2635      	movs	r6, #53	@ 0x35
2000773e:	4932      	ldr	r1, [pc, #200]	@ (20007808 <VGA_scrollUp+0xd0>)
20007740:	4d32      	ldr	r5, [pc, #200]	@ (2000780c <VGA_scrollUp+0xd4>)
20007742:	4c33      	ldr	r4, [pc, #204]	@ (20007810 <VGA_scrollUp+0xd8>)
20007744:	f8df c0d8 	ldr.w	ip, [pc, #216]	@ 20007820 <VGA_scrollUp+0xe8>
20007748:	f8df e0cc 	ldr.w	lr, [pc, #204]	@ 20007818 <VGA_scrollUp+0xe0>
2000774c:	4831      	ldr	r0, [pc, #196]	@ (20007814 <VGA_scrollUp+0xdc>)
2000774e:	b082      	sub	sp, #8
20007750:	f201 6701 	addw	r7, r1, #1537	@ 0x601
20007754:	f8dc 3000 	ldr.w	r3, [ip]
20007758:	f1a1 0835 	sub.w	r8, r1, #53	@ 0x35
2000775c:	ea0e 3243 	and.w	r2, lr, r3, lsl #13
20007760:	019b      	lsls	r3, r3, #6
20007762:	f103 43a0 	add.w	r3, r3, #1342177280	@ 0x50000000
20007766:	4302      	orrs	r2, r0
20007768:	6019      	str	r1, [r3, #0]
2000776a:	f8c3 8004 	str.w	r8, [r3, #4]
2000776e:	609e      	str	r6, [r3, #8]
20007770:	60da      	str	r2, [r3, #12]
20007772:	691a      	ldr	r2, [r3, #16]
20007774:	0152      	lsls	r2, r2, #5
20007776:	d4fc      	bmi.n	20007772 <VGA_scrollUp+0x3a>
20007778:	f8dc 3000 	ldr.w	r3, [ip]
2000777c:	f1a4 0835 	sub.w	r8, r4, #53	@ 0x35
20007780:	ea0e 3243 	and.w	r2, lr, r3, lsl #13
20007784:	019b      	lsls	r3, r3, #6
20007786:	f103 43a0 	add.w	r3, r3, #1342177280	@ 0x50000000
2000778a:	4302      	orrs	r2, r0
2000778c:	601c      	str	r4, [r3, #0]
2000778e:	f8c3 8004 	str.w	r8, [r3, #4]
20007792:	609e      	str	r6, [r3, #8]
20007794:	60da      	str	r2, [r3, #12]
20007796:	691a      	ldr	r2, [r3, #16]
20007798:	0152      	lsls	r2, r2, #5
2000779a:	d4fc      	bmi.n	20007796 <VGA_scrollUp+0x5e>
2000779c:	f8dc 2000 	ldr.w	r2, [ip]
200077a0:	f1a5 0835 	sub.w	r8, r5, #53	@ 0x35
200077a4:	ea0e 3342 	and.w	r3, lr, r2, lsl #13
200077a8:	0192      	lsls	r2, r2, #6
200077aa:	f102 42a0 	add.w	r2, r2, #1342177280	@ 0x50000000
200077ae:	4303      	orrs	r3, r0
200077b0:	6015      	str	r5, [r2, #0]
200077b2:	f8c2 8004 	str.w	r8, [r2, #4]
200077b6:	6096      	str	r6, [r2, #8]
200077b8:	60d3      	str	r3, [r2, #12]
200077ba:	6913      	ldr	r3, [r2, #16]
200077bc:	f013 6380 	ands.w	r3, r3, #67108864	@ 0x4000000
200077c0:	d1fb      	bne.n	200077ba <VGA_scrollUp+0x82>
200077c2:	3135      	adds	r1, #53	@ 0x35
200077c4:	428f      	cmp	r7, r1
200077c6:	f105 0535 	add.w	r5, r5, #53	@ 0x35
200077ca:	f104 0435 	add.w	r4, r4, #53	@ 0x35
200077ce:	d1c1      	bne.n	20007754 <VGA_scrollUp+0x1c>
200077d0:	2435      	movs	r4, #53	@ 0x35
200077d2:	f8dc 0000 	ldr.w	r0, [ip]
200077d6:	4910      	ldr	r1, [pc, #64]	@ (20007818 <VGA_scrollUp+0xe0>)
200077d8:	0182      	lsls	r2, r0, #6
200077da:	ea01 3140 	and.w	r1, r1, r0, lsl #13
200077de:	f441 01fc 	orr.w	r1, r1, #8257536	@ 0x7e0000
200077e2:	f88d 3007 	strb.w	r3, [sp, #7]
200077e6:	4b0d      	ldr	r3, [pc, #52]	@ (2000781c <VGA_scrollUp+0xe4>)
200077e8:	f102 42a0 	add.w	r2, r2, #1342177280	@ 0x50000000
200077ec:	f041 0141 	orr.w	r1, r1, #65	@ 0x41
200077f0:	f10d 0007 	add.w	r0, sp, #7
200077f4:	6010      	str	r0, [r2, #0]
200077f6:	6053      	str	r3, [r2, #4]
200077f8:	6094      	str	r4, [r2, #8]
200077fa:	60d1      	str	r1, [r2, #12]
200077fc:	6913      	ldr	r3, [r2, #16]
200077fe:	015b      	lsls	r3, r3, #5
20007800:	d4fc      	bmi.n	200077fc <VGA_scrollUp+0xc4>
20007802:	b002      	add	sp, #8
20007804:	e8bd 81f0 	ldmia.w	sp!, {r4, r5, r6, r7, r8, pc}
20007808:	2005a7e5 	.word	0x2005a7e5
2000780c:	200113c1 	.word	0x200113c1
20007810:	20059cf5 	.word	0x20059cf5
20007814:	007e0051 	.word	0x007e0051
20007818:	fc7ffffd 	.word	0xfc7ffffd
2000781c:	2005adb1 	.word	0x2005adb1
20007820:	2005a72c 	.word	0x2005a72c

20007824 <VGA_putc>:
20007824:	280a      	cmp	r0, #10
20007826:	e92d 43f8 	stmdb	sp!, {r3, r4, r5, r6, r7, r8, r9, lr}
2000782a:	d02f      	beq.n	2000788c <VGA_putc+0x68>
2000782c:	280d      	cmp	r0, #13
2000782e:	4c25      	ldr	r4, [pc, #148]	@ (200078c4 <VGA_putc+0xa0>)
20007830:	d028      	beq.n	20007884 <VGA_putc+0x60>
20007832:	2808      	cmp	r0, #8
20007834:	6823      	ldr	r3, [r4, #0]
20007836:	d031      	beq.n	2000789c <VGA_putc+0x78>
20007838:	2235      	movs	r2, #53	@ 0x35
2000783a:	f8df c094 	ldr.w	ip, [pc, #148]	@ 200078d0 <VGA_putc+0xac>
2000783e:	f8df e094 	ldr.w	lr, [pc, #148]	@ 200078d4 <VGA_putc+0xb0>
20007842:	f8dc 6000 	ldr.w	r6, [ip]
20007846:	f8df 9090 	ldr.w	r9, [pc, #144]	@ 200078d8 <VGA_putc+0xb4>
2000784a:	fb06 f202 	mul.w	r2, r6, r2
2000784e:	4496      	add	lr, r2
20007850:	f80e 0003 	strb.w	r0, [lr, r3]
20007854:	f899 e000 	ldrb.w	lr, [r9]
20007858:	491b      	ldr	r1, [pc, #108]	@ (200078c8 <VGA_putc+0xa4>)
2000785a:	4d1c      	ldr	r5, [pc, #112]	@ (200078cc <VGA_putc+0xa8>)
2000785c:	f8df 807c 	ldr.w	r8, [pc, #124]	@ 200078dc <VGA_putc+0xb8>
20007860:	18a8      	adds	r0, r5, r2
20007862:	440a      	add	r2, r1
20007864:	fa5f f18e 	uxtb.w	r1, lr
20007868:	54c1      	strb	r1, [r0, r3]
2000786a:	f898 1000 	ldrb.w	r1, [r8]
2000786e:	1c5f      	adds	r7, r3, #1
20007870:	b2c9      	uxtb	r1, r1
20007872:	2f34      	cmp	r7, #52	@ 0x34
20007874:	6027      	str	r7, [r4, #0]
20007876:	54d1      	strb	r1, [r2, r3]
20007878:	d906      	bls.n	20007888 <VGA_putc+0x64>
2000787a:	2e1c      	cmp	r6, #28
2000787c:	d81f      	bhi.n	200078be <VGA_putc+0x9a>
2000787e:	3601      	adds	r6, #1
20007880:	f8cc 6000 	str.w	r6, [ip]
20007884:	2300      	movs	r3, #0
20007886:	6023      	str	r3, [r4, #0]
20007888:	e8bd 83f8 	ldmia.w	sp!, {r3, r4, r5, r6, r7, r8, r9, pc}
2000788c:	4a10      	ldr	r2, [pc, #64]	@ (200078d0 <VGA_putc+0xac>)
2000788e:	6813      	ldr	r3, [r2, #0]
20007890:	2b1c      	cmp	r3, #28
20007892:	d80d      	bhi.n	200078b0 <VGA_putc+0x8c>
20007894:	3301      	adds	r3, #1
20007896:	6013      	str	r3, [r2, #0]
20007898:	e8bd 83f8 	ldmia.w	sp!, {r3, r4, r5, r6, r7, r8, r9, pc}
2000789c:	b963      	cbnz	r3, 200078b8 <VGA_putc+0x94>
2000789e:	2134      	movs	r1, #52	@ 0x34
200078a0:	4a0b      	ldr	r2, [pc, #44]	@ (200078d0 <VGA_putc+0xac>)
200078a2:	6021      	str	r1, [r4, #0]
200078a4:	6813      	ldr	r3, [r2, #0]
200078a6:	2b00      	cmp	r3, #0
200078a8:	d0ee      	beq.n	20007888 <VGA_putc+0x64>
200078aa:	3b01      	subs	r3, #1
200078ac:	6013      	str	r3, [r2, #0]
200078ae:	e7eb      	b.n	20007888 <VGA_putc+0x64>
200078b0:	e8bd 43f8 	ldmia.w	sp!, {r3, r4, r5, r6, r7, r8, r9, lr}
200078b4:	f7ff bf40 	b.w	20007738 <VGA_scrollUp>
200078b8:	3b01      	subs	r3, #1
200078ba:	6023      	str	r3, [r4, #0]
200078bc:	e7e4      	b.n	20007888 <VGA_putc+0x64>
200078be:	f7ff ff3b 	bl	20007738 <VGA_scrollUp>
200078c2:	e7df      	b.n	20007884 <VGA_putc+0x60>
200078c4:	20059c80 	.word	0x20059c80
200078c8:	2001138c 	.word	0x2001138c
200078cc:	20059cc0 	.word	0x20059cc0
200078d0:	20059c84 	.word	0x20059c84
200078d4:	2005a7b0 	.word	0x2005a7b0
200078d8:	2000f949 	.word	0x2000f949
200078dc:	2005afc9 	.word	0x2005afc9

200078e0 <VGA_puts>:
200078e0:	e92d 4ff8 	stmdb	sp!, {r3, r4, r5, r6, r7, r8, r9, sl, fp, lr}
200078e4:	4604      	mov	r4, r0
200078e6:	f001 ff71 	bl	200097cc <strlen>
200078ea:	f010 05ff 	ands.w	r5, r0, #255	@ 0xff
200078ee:	d042      	beq.n	20007976 <VGA_puts+0x96>
200078f0:	3c01      	subs	r4, #1
200078f2:	4e2b      	ldr	r6, [pc, #172]	@ (200079a0 <VGA_puts+0xc0>)
200078f4:	4f2b      	ldr	r7, [pc, #172]	@ (200079a4 <VGA_puts+0xc4>)
200078f6:	4425      	add	r5, r4
200078f8:	e032      	b.n	20007960 <VGA_puts+0x80>
200078fa:	2b0d      	cmp	r3, #13
200078fc:	d02c      	beq.n	20007958 <VGA_puts+0x78>
200078fe:	2b08      	cmp	r3, #8
20007900:	6832      	ldr	r2, [r6, #0]
20007902:	d03a      	beq.n	2000797a <VGA_puts+0x9a>
20007904:	2135      	movs	r1, #53	@ 0x35
20007906:	f8d7 e000 	ldr.w	lr, [r7]
2000790a:	4827      	ldr	r0, [pc, #156]	@ (200079a8 <VGA_puts+0xc8>)
2000790c:	fb01 f10e 	mul.w	r1, r1, lr
20007910:	f8df a09c 	ldr.w	sl, [pc, #156]	@ 200079b0 <VGA_puts+0xd0>
20007914:	eb00 0b01 	add.w	fp, r0, r1
20007918:	f80b 3002 	strb.w	r3, [fp, r2]
2000791c:	f89a a000 	ldrb.w	sl, [sl]
20007920:	f8df c090 	ldr.w	ip, [pc, #144]	@ 200079b4 <VGA_puts+0xd4>
20007924:	4b21      	ldr	r3, [pc, #132]	@ (200079ac <VGA_puts+0xcc>)
20007926:	448c      	add	ip, r1
20007928:	440b      	add	r3, r1
2000792a:	f8df 908c 	ldr.w	r9, [pc, #140]	@ 200079b8 <VGA_puts+0xd8>
2000792e:	fa5f f18a 	uxtb.w	r1, sl
20007932:	f80c 1002 	strb.w	r1, [ip, r2]
20007936:	f899 1000 	ldrb.w	r1, [r9]
2000793a:	f102 0801 	add.w	r8, r2, #1
2000793e:	b2c9      	uxtb	r1, r1
20007940:	f1b8 0f34 	cmp.w	r8, #52	@ 0x34
20007944:	f8c6 8000 	str.w	r8, [r6]
20007948:	5499      	strb	r1, [r3, r2]
2000794a:	d907      	bls.n	2000795c <VGA_puts+0x7c>
2000794c:	f1be 0f1c 	cmp.w	lr, #28
20007950:	d823      	bhi.n	2000799a <VGA_puts+0xba>
20007952:	f10e 0301 	add.w	r3, lr, #1
20007956:	603b      	str	r3, [r7, #0]
20007958:	2300      	movs	r3, #0
2000795a:	6033      	str	r3, [r6, #0]
2000795c:	42ac      	cmp	r4, r5
2000795e:	d00a      	beq.n	20007976 <VGA_puts+0x96>
20007960:	f814 3f01 	ldrb.w	r3, [r4, #1]!
20007964:	2b0a      	cmp	r3, #10
20007966:	d1c8      	bne.n	200078fa <VGA_puts+0x1a>
20007968:	683b      	ldr	r3, [r7, #0]
2000796a:	2b1c      	cmp	r3, #28
2000796c:	d80f      	bhi.n	2000798e <VGA_puts+0xae>
2000796e:	3301      	adds	r3, #1
20007970:	42ac      	cmp	r4, r5
20007972:	603b      	str	r3, [r7, #0]
20007974:	d1f4      	bne.n	20007960 <VGA_puts+0x80>
20007976:	e8bd 8ff8 	ldmia.w	sp!, {r3, r4, r5, r6, r7, r8, r9, sl, fp, pc}
2000797a:	b95a      	cbnz	r2, 20007994 <VGA_puts+0xb4>
2000797c:	2334      	movs	r3, #52	@ 0x34
2000797e:	4a09      	ldr	r2, [pc, #36]	@ (200079a4 <VGA_puts+0xc4>)
20007980:	6033      	str	r3, [r6, #0]
20007982:	6813      	ldr	r3, [r2, #0]
20007984:	2b00      	cmp	r3, #0
20007986:	d0e9      	beq.n	2000795c <VGA_puts+0x7c>
20007988:	3b01      	subs	r3, #1
2000798a:	6013      	str	r3, [r2, #0]
2000798c:	e7e6      	b.n	2000795c <VGA_puts+0x7c>
2000798e:	f7ff fed3 	bl	20007738 <VGA_scrollUp>
20007992:	e7e3      	b.n	2000795c <VGA_puts+0x7c>
20007994:	3a01      	subs	r2, #1
20007996:	6032      	str	r2, [r6, #0]
20007998:	e7e0      	b.n	2000795c <VGA_puts+0x7c>
2000799a:	f7ff fecd 	bl	20007738 <VGA_scrollUp>
2000799e:	e7db      	b.n	20007958 <VGA_puts+0x78>
200079a0:	20059c80 	.word	0x20059c80
200079a4:	20059c84 	.word	0x20059c84
200079a8:	2005a7b0 	.word	0x2005a7b0
200079ac:	2001138c 	.word	0x2001138c
200079b0:	2000f949 	.word	0x2000f949
200079b4:	20059cc0 	.word	0x20059cc0
200079b8:	2005afc9 	.word	0x2005afc9
200079bc:	00000000 	.word	0x00000000

200079c0 <VGA_initDisplay>:
200079c0:	e92d 4ff0 	stmdb	sp!, {r4, r5, r6, r7, r8, r9, sl, fp, lr}
200079c4:	ed2d 8b02 	vpush	{d8}
200079c8:	4db5      	ldr	r5, [pc, #724]	@ (20007ca0 <VGA_initDisplay+0x2e0>)
200079ca:	b08f      	sub	sp, #60	@ 0x3c
200079cc:	4683      	mov	fp, r0
200079ce:	460f      	mov	r7, r1
200079d0:	6828      	ldr	r0, [r5, #0]
200079d2:	49b4      	ldr	r1, [pc, #720]	@ (20007ca4 <VGA_initDisplay+0x2e4>)
200079d4:	4691      	mov	r9, r2
200079d6:	f7fe fdd7 	bl	20006588 <pio_add_program>
200079da:	49b3      	ldr	r1, [pc, #716]	@ (20007ca8 <VGA_initDisplay+0x2e8>)
200079dc:	4604      	mov	r4, r0
200079de:	6828      	ldr	r0, [r5, #0]
200079e0:	f7fe fdd2 	bl	20006588 <pio_add_program>
200079e4:	ed9f 8bac 	vldr	d8, [pc, #688]	@ 20007c98 <VGA_initDisplay+0x2d8>
200079e8:	4680      	mov	r8, r0
200079ea:	49b0      	ldr	r1, [pc, #704]	@ (20007cac <VGA_initDisplay+0x2ec>)
200079ec:	6828      	ldr	r0, [r5, #0]
200079ee:	f7fe fdcb 	bl	20006588 <pio_add_program>
200079f2:	4baf      	ldr	r3, [pc, #700]	@ (20007cb0 <VGA_initDisplay+0x2f0>)
200079f4:	2200      	movs	r2, #0
200079f6:	681b      	ldr	r3, [r3, #0]
200079f8:	ed8d 8b06 	vstr	d8, [sp, #24]
200079fc:	9305      	str	r3, [sp, #20]
200079fe:	f44f 2340 	mov.w	r3, #786432	@ 0xc0000
20007a02:	e9cd 3208 	strd	r3, r2, [sp, #32]
20007a06:	6829      	ldr	r1, [r5, #0]
20007a08:	f104 0e08 	add.w	lr, r4, #8
20007a0c:	f10d 0a18 	add.w	sl, sp, #24
20007a10:	1c63      	adds	r3, r4, #1
20007a12:	ad0a      	add	r5, sp, #40	@ 0x28
20007a14:	ea4f 3e0e 	mov.w	lr, lr, lsl #12
20007a18:	ea4e 1ec3 	orr.w	lr, lr, r3, lsl #7
20007a1c:	9003      	str	r0, [sp, #12]
20007a1e:	9104      	str	r1, [sp, #16]
20007a20:	f101 462f 	add.w	r6, r1, #2936012800	@ 0xaf000000
20007a24:	e89a 000f 	ldmia.w	sl, {r0, r1, r2, r3}
20007a28:	e885 000f 	stmia.w	r5, {r0, r1, r2, r3}
20007a2c:	f506 0660 	add.w	r6, r6, #14680064	@ 0xe00000
20007a30:	0d36      	lsrs	r6, r6, #20
20007a32:	f8cd e02c 	str.w	lr, [sp, #44]	@ 0x2c
20007a36:	3606      	adds	r6, #6
20007a38:	e895 000f 	ldmia.w	r5, {r0, r1, r2, r3}
20007a3c:	e88a 000f 	stmia.w	sl, {r0, r1, r2, r3}
20007a40:	b2f1      	uxtb	r1, r6
20007a42:	4e9c      	ldr	r6, [pc, #624]	@ (20007cb4 <VGA_initDisplay+0x2f4>)
20007a44:	ea4f 1c47 	mov.w	ip, r7, lsl #5
20007a48:	9606      	str	r6, [sp, #24]
20007a4a:	2601      	movs	r6, #1
20007a4c:	f40c 7c78 	and.w	ip, ip, #992	@ 0x3e0
20007a50:	f04c 6c80 	orr.w	ip, ip, #67108864	@ 0x4000000
20007a54:	4638      	mov	r0, r7
20007a56:	f8cd c024 	str.w	ip, [sp, #36]	@ 0x24
20007a5a:	f7fa fd93 	bl	20002584 <gpio_set_function>
20007a5e:	9d05      	ldr	r5, [sp, #20]
20007a60:	463a      	mov	r2, r7
20007a62:	9f04      	ldr	r7, [sp, #16]
20007a64:	4633      	mov	r3, r6
20007a66:	4629      	mov	r1, r5
20007a68:	4638      	mov	r0, r7
20007a6a:	9600      	str	r6, [sp, #0]
20007a6c:	f7fe fe06 	bl	2000667c <pio_sm_set_consecutive_pindirs>
20007a70:	4622      	mov	r2, r4
20007a72:	4629      	mov	r1, r5
20007a74:	4653      	mov	r3, sl
20007a76:	4638      	mov	r0, r7
20007a78:	f7fe fe46 	bl	20006708 <pio_sm_init>
20007a7c:	f44f 2340 	mov.w	r3, #786432	@ 0xc0000
20007a80:	4a87      	ldr	r2, [pc, #540]	@ (20007ca0 <VGA_initDisplay+0x2e0>)
20007a82:	461d      	mov	r5, r3
20007a84:	930c      	str	r3, [sp, #48]	@ 0x30
20007a86:	f108 030d 	add.w	r3, r8, #13
20007a8a:	6814      	ldr	r4, [r2, #0]
20007a8c:	031b      	lsls	r3, r3, #12
20007a8e:	eb08 0206 	add.w	r2, r8, r6
20007a92:	4988      	ldr	r1, [pc, #544]	@ (20007cb4 <VGA_initDisplay+0x2f4>)
20007a94:	ea43 13c2 	orr.w	r3, r3, r2, lsl #7
20007a98:	f023 43c0 	bic.w	r3, r3, #1610612736	@ 0x60000000
20007a9c:	910a      	str	r1, [sp, #40]	@ 0x28
20007a9e:	f043 4380 	orr.w	r3, r3, #1073741824	@ 0x40000000
20007aa2:	f104 412f 	add.w	r1, r4, #2936012800	@ 0xaf000000
20007aa6:	930b      	str	r3, [sp, #44]	@ 0x2c
20007aa8:	ea4f 228b 	mov.w	r2, fp, lsl #10
20007aac:	ea4f 134b 	mov.w	r3, fp, lsl #5
20007ab0:	4f81      	ldr	r7, [pc, #516]	@ (20007cb8 <VGA_initDisplay+0x2f8>)
20007ab2:	f501 0160 	add.w	r1, r1, #14680064	@ 0xe00000
20007ab6:	f402 42f8 	and.w	r2, r2, #31744	@ 0x7c00
20007aba:	0d09      	lsrs	r1, r1, #20
20007abc:	f403 7378 	and.w	r3, r3, #992	@ 0x3e0
20007ac0:	683f      	ldr	r7, [r7, #0]
20007ac2:	4313      	orrs	r3, r2
20007ac4:	3106      	adds	r1, #6
20007ac6:	4658      	mov	r0, fp
20007ac8:	f043 4388 	orr.w	r3, r3, #1140850688	@ 0x44000000
20007acc:	b2c9      	uxtb	r1, r1
20007ace:	930d      	str	r3, [sp, #52]	@ 0x34
20007ad0:	f7fa fd58 	bl	20002584 <gpio_set_function>
20007ad4:	465a      	mov	r2, fp
20007ad6:	4633      	mov	r3, r6
20007ad8:	4639      	mov	r1, r7
20007ada:	4620      	mov	r0, r4
20007adc:	9600      	str	r6, [sp, #0]
20007ade:	f7fe fdcd 	bl	2000667c <pio_sm_set_consecutive_pindirs>
20007ae2:	a90a      	add	r1, sp, #40	@ 0x28
20007ae4:	460b      	mov	r3, r1
20007ae6:	4642      	mov	r2, r8
20007ae8:	4639      	mov	r1, r7
20007aea:	4620      	mov	r0, r4
20007aec:	f7fe fe0c 	bl	20006708 <pio_sm_init>
20007af0:	2200      	movs	r2, #0
20007af2:	ed8d 8b06 	vstr	d8, [sp, #24]
20007af6:	9b03      	ldr	r3, [sp, #12]
20007af8:	9209      	str	r2, [sp, #36]	@ 0x24
20007afa:	4a69      	ldr	r2, [pc, #420]	@ (20007ca0 <VGA_initDisplay+0x2e0>)
20007afc:	f103 0c08 	add.w	ip, r3, #8
20007b00:	6812      	ldr	r2, [r2, #0]
20007b02:	3302      	adds	r3, #2
20007b04:	ea4f 3c0c 	mov.w	ip, ip, lsl #12
20007b08:	ea4f 1749 	mov.w	r7, r9, lsl #5
20007b0c:	ea4c 1cc3 	orr.w	ip, ip, r3, lsl #7
20007b10:	9508      	str	r5, [sp, #32]
20007b12:	f009 031f 	and.w	r3, r9, #31
20007b16:	ad0a      	add	r5, sp, #40	@ 0x28
20007b18:	f407 7778 	and.w	r7, r7, #992	@ 0x3e0
20007b1c:	9204      	str	r2, [sp, #16]
20007b1e:	f102 442f 	add.w	r4, r2, #2936012800	@ 0xaf000000
20007b22:	431f      	orrs	r7, r3
20007b24:	e89a 000f 	ldmia.w	sl, {r0, r1, r2, r3}
20007b28:	e885 000f 	stmia.w	r5, {r0, r1, r2, r3}
20007b2c:	f504 0460 	add.w	r4, r4, #14680064	@ 0xe00000
20007b30:	0d24      	lsrs	r4, r4, #20
20007b32:	3406      	adds	r4, #6
20007b34:	f8df e198 	ldr.w	lr, [pc, #408]	@ 20007cd0 <VGA_initDisplay+0x310>
20007b38:	f8cd c02c 	str.w	ip, [sp, #44]	@ 0x2c
20007b3c:	b2e4      	uxtb	r4, r4
20007b3e:	f8df 8194 	ldr.w	r8, [pc, #404]	@ 20007cd4 <VGA_initDisplay+0x314>
20007b42:	e895 000f 	ldmia.w	r5, {r0, r1, r2, r3}
20007b46:	f047 6743 	orr.w	r7, r7, #204472320	@ 0xc300000
20007b4a:	e88a 000f 	stmia.w	sl, {r0, r1, r2, r3}
20007b4e:	4621      	mov	r1, r4
20007b50:	4648      	mov	r0, r9
20007b52:	f8cd e018 	str.w	lr, [sp, #24]
20007b56:	f8d8 b000 	ldr.w	fp, [r8]
20007b5a:	9709      	str	r7, [sp, #36]	@ 0x24
20007b5c:	f7fa fd12 	bl	20002584 <gpio_set_function>
20007b60:	4621      	mov	r1, r4
20007b62:	eb09 0006 	add.w	r0, r9, r6
20007b66:	f7fa fd0d 	bl	20002584 <gpio_set_function>
20007b6a:	4621      	mov	r1, r4
20007b6c:	f109 0002 	add.w	r0, r9, #2
20007b70:	f7fa fd08 	bl	20002584 <gpio_set_function>
20007b74:	9c04      	ldr	r4, [sp, #16]
20007b76:	2303      	movs	r3, #3
20007b78:	464a      	mov	r2, r9
20007b7a:	4659      	mov	r1, fp
20007b7c:	4620      	mov	r0, r4
20007b7e:	9600      	str	r6, [sp, #0]
20007b80:	f7fe fd7c 	bl	2000667c <pio_sm_set_consecutive_pindirs>
20007b84:	4653      	mov	r3, sl
20007b86:	4659      	mov	r1, fp
20007b88:	9a03      	ldr	r2, [sp, #12]
20007b8a:	4620      	mov	r0, r4
20007b8c:	f7fe fdbc 	bl	20006708 <pio_sm_init>
20007b90:	4630      	mov	r0, r6
20007b92:	f7fe fe0d 	bl	200067b0 <dma_claim_unused_channel>
20007b96:	4c49      	ldr	r4, [pc, #292]	@ (20007cbc <VGA_initDisplay+0x2fc>)
20007b98:	27a0      	movs	r7, #160	@ 0xa0
20007b9a:	6020      	str	r0, [r4, #0]
20007b9c:	4630      	mov	r0, r6
20007b9e:	f7fe fe07 	bl	200067b0 <dma_claim_unused_channel>
20007ba2:	2601      	movs	r6, #1
20007ba4:	4b46      	ldr	r3, [pc, #280]	@ (20007cc0 <VGA_initDisplay+0x300>)
20007ba6:	4a3e      	ldr	r2, [pc, #248]	@ (20007ca0 <VGA_initDisplay+0x2e0>)
20007ba8:	6018      	str	r0, [r3, #0]
20007baa:	6810      	ldr	r0, [r2, #0]
20007bac:	4a45      	ldr	r2, [pc, #276]	@ (20007cc4 <VGA_initDisplay+0x304>)
20007bae:	6821      	ldr	r1, [r4, #0]
20007bb0:	4290      	cmp	r0, r2
20007bb2:	4b45      	ldr	r3, [pc, #276]	@ (20007cc8 <VGA_initDisplay+0x308>)
20007bb4:	f8d8 2000 	ldr.w	r2, [r8]
20007bb8:	ea03 3341 	and.w	r3, r3, r1, lsl #13
20007bbc:	f102 0204 	add.w	r2, r2, #4
20007bc0:	f8df e114 	ldr.w	lr, [pc, #276]	@ 20007cd8 <VGA_initDisplay+0x318>
20007bc4:	f8df c114 	ldr.w	ip, [pc, #276]	@ 20007cdc <VGA_initDisplay+0x31c>
20007bc8:	bf0c      	ite	eq
20007bca:	f443 2380 	orreq.w	r3, r3, #262144	@ 0x40000
20007bce:	f443 13a0 	orrne.w	r3, r3, #1310720	@ 0x140000
20007bd2:	eb00 0082 	add.w	r0, r0, r2, lsl #2
20007bd6:	018a      	lsls	r2, r1, #6
20007bd8:	f102 42a0 	add.w	r2, r2, #1342177280	@ 0x50000000
20007bdc:	f043 0311 	orr.w	r3, r3, #17
20007be0:	fa06 f101 	lsl.w	r1, r6, r1
20007be4:	f8c2 e000 	str.w	lr, [r2]
20007be8:	6050      	str	r0, [r2, #4]
20007bea:	6097      	str	r7, [r2, #8]
20007bec:	200a      	movs	r0, #10
20007bee:	6113      	str	r3, [r2, #16]
20007bf0:	f8cc 1404 	str.w	r1, [ip, #1028]	@ 0x404
20007bf4:	4935      	ldr	r1, [pc, #212]	@ (20007ccc <VGA_initDisplay+0x30c>)
20007bf6:	f7fa fe93 	bl	20002920 <irq_set_exclusive_handler>
20007bfa:	4631      	mov	r1, r6
20007bfc:	200a      	movs	r0, #10
20007bfe:	f7fa fe69 	bl	200028d4 <irq_set_enabled>
20007c02:	4b2b      	ldr	r3, [pc, #172]	@ (20007cb0 <VGA_initDisplay+0x2f0>)
20007c04:	6818      	ldr	r0, [r3, #0]
20007c06:	4b26      	ldr	r3, [pc, #152]	@ (20007ca0 <VGA_initDisplay+0x2e0>)
20007c08:	f100 0210 	add.w	r2, r0, #16
20007c0c:	681b      	ldr	r3, [r3, #0]
20007c0e:	fa06 f102 	lsl.w	r1, r6, r2
20007c12:	685a      	ldr	r2, [r3, #4]
20007c14:	420a      	tst	r2, r1
20007c16:	d1fc      	bne.n	20007c12 <VGA_initDisplay+0x252>
20007c18:	f240 268f 	movw	r6, #655	@ 0x28f
20007c1c:	2101      	movs	r1, #1
20007c1e:	4a26      	ldr	r2, [pc, #152]	@ (20007cb8 <VGA_initDisplay+0x2f8>)
20007c20:	6815      	ldr	r5, [r2, #0]
20007c22:	1d02      	adds	r2, r0, #4
20007c24:	f843 6022 	str.w	r6, [r3, r2, lsl #2]
20007c28:	f105 0210 	add.w	r2, r5, #16
20007c2c:	4091      	lsls	r1, r2
20007c2e:	685a      	ldr	r2, [r3, #4]
20007c30:	420a      	tst	r2, r1
20007c32:	d1fc      	bne.n	20007c2e <VGA_initDisplay+0x26e>
20007c34:	f240 17df 	movw	r7, #479	@ 0x1df
20007c38:	2101      	movs	r1, #1
20007c3a:	f8d8 6000 	ldr.w	r6, [r8]
20007c3e:	1d2a      	adds	r2, r5, #4
20007c40:	f843 7022 	str.w	r7, [r3, r2, lsl #2]
20007c44:	f106 0210 	add.w	r2, r6, #16
20007c48:	4091      	lsls	r1, r2
20007c4a:	685a      	ldr	r2, [r3, #4]
20007c4c:	420a      	tst	r2, r1
20007c4e:	d1fc      	bne.n	20007c4a <VGA_initDisplay+0x28a>
20007c50:	2201      	movs	r2, #1
20007c52:	f04f 0c9f 	mov.w	ip, #159	@ 0x9f
20007c56:	6821      	ldr	r1, [r4, #0]
20007c58:	f04f 44a0 	mov.w	r4, #1342177280	@ 0x50000000
20007c5c:	fa02 f505 	lsl.w	r5, r2, r5
20007c60:	fa02 f000 	lsl.w	r0, r2, r0
20007c64:	1d37      	adds	r7, r6, #4
20007c66:	4328      	orrs	r0, r5
20007c68:	fa02 f606 	lsl.w	r6, r2, r6
20007c6c:	4330      	orrs	r0, r6
20007c6e:	408a      	lsls	r2, r1
20007c70:	0201      	lsls	r1, r0, #8
20007c72:	f401 6170 	and.w	r1, r1, #3840	@ 0xf00
20007c76:	f000 000f 	and.w	r0, r0, #15
20007c7a:	f843 c027 	str.w	ip, [r3, r7, lsl #2]
20007c7e:	4301      	orrs	r1, r0
20007c80:	f503 5300 	add.w	r3, r3, #8192	@ 0x2000
20007c84:	6019      	str	r1, [r3, #0]
20007c86:	f8c4 2450 	str.w	r2, [r4, #1104]	@ 0x450
20007c8a:	b00f      	add	sp, #60	@ 0x3c
20007c8c:	ecbd 8b02 	vpop	{d8}
20007c90:	e8bd 8ff0 	ldmia.w	sp!, {r4, r5, r6, r7, r8, r9, sl, fp, pc}
20007c94:	f3af 8000 	nop.w
20007c98:	00010000 	.word	0x00010000
20007c9c:	0001f000 	.word	0x0001f000
20007ca0:	2000f954 	.word	0x2000f954
20007ca4:	2000f4cc 	.word	0x2000f4cc
20007ca8:	2000f4a8 	.word	0x2000f4a8
20007cac:	2000f48c 	.word	0x2000f48c
20007cb0:	2005a308 	.word	0x2005a308
20007cb4:	00147b00 	.word	0x00147b00
20007cb8:	2000f950 	.word	0x2000f950
20007cbc:	2005a794 	.word	0x2005a794
20007cc0:	2005a72c 	.word	0x2005a72c
20007cc4:	50200000 	.word	0x50200000
20007cc8:	fc01fffd 	.word	0xfc01fffd
20007ccc:	200073f5 	.word	0x200073f5
20007cd0:	00083100 	.word	0x00083100
20007cd4:	2000f94c 	.word	0x2000f94c
20007cd8:	2000f964 	.word	0x2000f964
20007cdc:	50002000 	.word	0x50002000

20007ce0 <dma_memset>:
20007ce0:	b430      	push	{r4, r5}
20007ce2:	4b0d      	ldr	r3, [pc, #52]	@ (20007d18 <dma_memset+0x38>)
20007ce4:	4c0d      	ldr	r4, [pc, #52]	@ (20007d1c <dma_memset+0x3c>)
20007ce6:	681b      	ldr	r3, [r3, #0]
20007ce8:	b082      	sub	sp, #8
20007cea:	ea04 3443 	and.w	r4, r4, r3, lsl #13
20007cee:	f444 04fc 	orr.w	r4, r4, #8257536	@ 0x7e0000
20007cf2:	019b      	lsls	r3, r3, #6
20007cf4:	f103 43a0 	add.w	r3, r3, #1342177280	@ 0x50000000
20007cf8:	f044 0441 	orr.w	r4, r4, #65	@ 0x41
20007cfc:	f10d 0507 	add.w	r5, sp, #7
20007d00:	601d      	str	r5, [r3, #0]
20007d02:	f88d 1007 	strb.w	r1, [sp, #7]
20007d06:	6058      	str	r0, [r3, #4]
20007d08:	609a      	str	r2, [r3, #8]
20007d0a:	60dc      	str	r4, [r3, #12]
20007d0c:	691a      	ldr	r2, [r3, #16]
20007d0e:	0152      	lsls	r2, r2, #5
20007d10:	d4fc      	bmi.n	20007d0c <dma_memset+0x2c>
20007d12:	b002      	add	sp, #8
20007d14:	bc30      	pop	{r4, r5}
20007d16:	4770      	bx	lr
20007d18:	2005a72c 	.word	0x2005a72c
20007d1c:	fc7ffffd 	.word	0xfc7ffffd

20007d20 <ps2_gpio_callback>:
20007d20:	b538      	push	{r3, r4, r5, lr}
20007d22:	4b2a      	ldr	r3, [pc, #168]	@ (20007dcc <ps2_gpio_callback+0xac>)
20007d24:	681b      	ldr	r3, [r3, #0]
20007d26:	4283      	cmp	r3, r0
20007d28:	d000      	beq.n	20007d2c <ps2_gpio_callback+0xc>
20007d2a:	bd38      	pop	{r3, r4, r5, pc}
20007d2c:	f04f 4350 	mov.w	r3, #3489660928	@ 0xd0000000
20007d30:	4a27      	ldr	r2, [pc, #156]	@ (20007dd0 <ps2_gpio_callback+0xb0>)
20007d32:	685c      	ldr	r4, [r3, #4]
20007d34:	6815      	ldr	r5, [r2, #0]
20007d36:	f7fb fcd1 	bl	200036dc <time_us_64>
20007d3a:	b9f1      	cbnz	r1, 20007d7a <ps2_gpio_callback+0x5a>
20007d3c:	4a25      	ldr	r2, [pc, #148]	@ (20007dd4 <ps2_gpio_callback+0xb4>)
20007d3e:	fba2 2000 	umull	r2, r0, r2, r0
20007d42:	4a25      	ldr	r2, [pc, #148]	@ (20007dd8 <ps2_gpio_callback+0xb8>)
20007d44:	0980      	lsrs	r0, r0, #6
20007d46:	6813      	ldr	r3, [r2, #0]
20007d48:	1ac3      	subs	r3, r0, r3
20007d4a:	2bfa      	cmp	r3, #250	@ 0xfa
20007d4c:	d81f      	bhi.n	20007d8e <ps2_gpio_callback+0x6e>
20007d4e:	4923      	ldr	r1, [pc, #140]	@ (20007ddc <ps2_gpio_callback+0xbc>)
20007d50:	6010      	str	r0, [r2, #0]
20007d52:	780a      	ldrb	r2, [r1, #0]
20007d54:	1c53      	adds	r3, r2, #1
20007d56:	3a01      	subs	r2, #1
20007d58:	b2d2      	uxtb	r2, r2
20007d5a:	2a07      	cmp	r2, #7
20007d5c:	b2db      	uxtb	r3, r3
20007d5e:	d81e      	bhi.n	20007d9e <ps2_gpio_callback+0x7e>
20007d60:	700b      	strb	r3, [r1, #0]
20007d62:	2301      	movs	r3, #1
20007d64:	40ab      	lsls	r3, r5
20007d66:	4023      	ands	r3, r4
20007d68:	3b00      	subs	r3, #0
20007d6a:	bf18      	it	ne
20007d6c:	2301      	movne	r3, #1
20007d6e:	491c      	ldr	r1, [pc, #112]	@ (20007de0 <ps2_gpio_callback+0xc0>)
20007d70:	4093      	lsls	r3, r2
20007d72:	7808      	ldrb	r0, [r1, #0]
20007d74:	4303      	orrs	r3, r0
20007d76:	700b      	strb	r3, [r1, #0]
20007d78:	bd38      	pop	{r3, r4, r5, pc}
20007d7a:	f44f 727a 	mov.w	r2, #1000	@ 0x3e8
20007d7e:	2300      	movs	r3, #0
20007d80:	f000 fbe2 	bl	20008548 <__aeabi_uldivmod>
20007d84:	4a14      	ldr	r2, [pc, #80]	@ (20007dd8 <ps2_gpio_callback+0xb8>)
20007d86:	6813      	ldr	r3, [r2, #0]
20007d88:	1ac3      	subs	r3, r0, r3
20007d8a:	2bfa      	cmp	r3, #250	@ 0xfa
20007d8c:	d9df      	bls.n	20007d4e <ps2_gpio_callback+0x2e>
20007d8e:	2500      	movs	r5, #0
20007d90:	2101      	movs	r1, #1
20007d92:	4c13      	ldr	r4, [pc, #76]	@ (20007de0 <ps2_gpio_callback+0xc0>)
20007d94:	4b11      	ldr	r3, [pc, #68]	@ (20007ddc <ps2_gpio_callback+0xbc>)
20007d96:	7025      	strb	r5, [r4, #0]
20007d98:	7019      	strb	r1, [r3, #0]
20007d9a:	6010      	str	r0, [r2, #0]
20007d9c:	bd38      	pop	{r3, r4, r5, pc}
20007d9e:	2b0b      	cmp	r3, #11
20007da0:	700b      	strb	r3, [r1, #0]
20007da2:	d1c2      	bne.n	20007d2a <ps2_gpio_callback+0xa>
20007da4:	480f      	ldr	r0, [pc, #60]	@ (20007de4 <ps2_gpio_callback+0xc4>)
20007da6:	4a10      	ldr	r2, [pc, #64]	@ (20007de8 <ps2_gpio_callback+0xc8>)
20007da8:	7803      	ldrb	r3, [r0, #0]
20007daa:	7812      	ldrb	r2, [r2, #0]
20007dac:	3301      	adds	r3, #1
20007dae:	b2db      	uxtb	r3, r3
20007db0:	2b2d      	cmp	r3, #45	@ 0x2d
20007db2:	bf28      	it	cs
20007db4:	2300      	movcs	r3, #0
20007db6:	429a      	cmp	r2, r3
20007db8:	4a09      	ldr	r2, [pc, #36]	@ (20007de0 <ps2_gpio_callback+0xc0>)
20007dba:	bf1f      	itttt	ne
20007dbc:	4c0b      	ldrne	r4, [pc, #44]	@ (20007dec <ps2_gpio_callback+0xcc>)
20007dbe:	7815      	ldrbne	r5, [r2, #0]
20007dc0:	54e5      	strbne	r5, [r4, r3]
20007dc2:	7003      	strbne	r3, [r0, #0]
20007dc4:	2300      	movs	r3, #0
20007dc6:	700b      	strb	r3, [r1, #0]
20007dc8:	7013      	strb	r3, [r2, #0]
20007dca:	bd38      	pop	{r3, r4, r5, pc}
20007dcc:	2005a774 	.word	0x2005a774
20007dd0:	2005a778 	.word	0x2005a778
20007dd4:	10624dd3 	.word	0x10624dd3
20007dd8:	2005a770 	.word	0x2005a770
20007ddc:	2005afca 	.word	0x2005afca
20007de0:	2005afd0 	.word	0x2005afd0
20007de4:	2005afcf 	.word	0x2005afcf
20007de8:	2005afd3 	.word	0x2005afd3
20007dec:	20011bd0 	.word	0x20011bd0

20007df0 <get_iso8859_code>:
20007df0:	b4f0      	push	{r4, r5, r6, r7}
20007df2:	4cbb      	ldr	r4, [pc, #748]	@ (200080e0 <get_iso8859_code+0x2f0>)
20007df4:	4dbb      	ldr	r5, [pc, #748]	@ (200080e4 <get_iso8859_code+0x2f4>)
20007df6:	7822      	ldrb	r2, [r4, #0]
20007df8:	7829      	ldrb	r1, [r5, #0]
20007dfa:	4291      	cmp	r1, r2
20007dfc:	d048      	beq.n	20007e90 <get_iso8859_code+0xa0>
20007dfe:	2700      	movs	r7, #0
20007e00:	f8df c2f0 	ldr.w	ip, [pc, #752]	@ 200080f4 <get_iso8859_code+0x304>
20007e04:	b2d3      	uxtb	r3, r2
20007e06:	4eb8      	ldr	r6, [pc, #736]	@ (200080e8 <get_iso8859_code+0x2f8>)
20007e08:	f89c 2000 	ldrb.w	r2, [ip]
20007e0c:	3301      	adds	r3, #1
20007e0e:	b2db      	uxtb	r3, r3
20007e10:	2b2c      	cmp	r3, #44	@ 0x2c
20007e12:	bf8a      	itet	hi
20007e14:	2100      	movhi	r1, #0
20007e16:	4619      	movls	r1, r3
20007e18:	460b      	movhi	r3, r1
20007e1a:	5c71      	ldrb	r1, [r6, r1]
20007e1c:	7023      	strb	r3, [r4, #0]
20007e1e:	f001 03ff 	and.w	r3, r1, #255	@ 0xff
20007e22:	2900      	cmp	r1, #0
20007e24:	f000 80c9 	beq.w	20007fba <get_iso8859_code+0x1ca>
20007e28:	2bf0      	cmp	r3, #240	@ 0xf0
20007e2a:	d027      	beq.n	20007e7c <get_iso8859_code+0x8c>
20007e2c:	2be0      	cmp	r3, #224	@ 0xe0
20007e2e:	d032      	beq.n	20007e96 <get_iso8859_code+0xa6>
20007e30:	07d1      	lsls	r1, r2, #31
20007e32:	d433      	bmi.n	20007e9c <get_iso8859_code+0xac>
20007e34:	2b12      	cmp	r3, #18
20007e36:	f000 80b3 	beq.w	20007fa0 <get_iso8859_code+0x1b0>
20007e3a:	2b59      	cmp	r3, #89	@ 0x59
20007e3c:	f000 80ba 	beq.w	20007fb4 <get_iso8859_code+0x1c4>
20007e40:	2b14      	cmp	r3, #20
20007e42:	f000 80a7 	beq.w	20007f94 <get_iso8859_code+0x1a4>
20007e46:	2b11      	cmp	r3, #17
20007e48:	f002 0102 	and.w	r1, r2, #2
20007e4c:	f000 80ab 	beq.w	20007fa6 <get_iso8859_code+0x1b6>
20007e50:	bb91      	cbnz	r1, 20007eb8 <get_iso8859_code+0xc8>
20007e52:	06d1      	lsls	r1, r2, #27
20007e54:	d506      	bpl.n	20007e64 <get_iso8859_code+0x74>
20007e56:	49a5      	ldr	r1, [pc, #660]	@ (200080ec <get_iso8859_code+0x2fc>)
20007e58:	6809      	ldr	r1, [r1, #0]
20007e5a:	f8d1 0110 	ldr.w	r0, [r1, #272]	@ 0x110
20007e5e:	2800      	cmp	r0, #0
20007e60:	f040 80da 	bne.w	20008018 <get_iso8859_code+0x228>
20007e64:	f012 0f0c 	tst.w	r2, #12
20007e68:	f000 80c1 	beq.w	20007fee <get_iso8859_code+0x1fe>
20007e6c:	2b87      	cmp	r3, #135	@ 0x87
20007e6e:	f240 80ad 	bls.w	20007fcc <get_iso8859_code+0x1dc>
20007e72:	4b9f      	ldr	r3, [pc, #636]	@ (200080f0 <get_iso8859_code+0x300>)
20007e74:	f3c2 1140 	ubfx	r1, r2, #5, #1
20007e78:	7019      	strb	r1, [r3, #0]
20007e7a:	e01a      	b.n	20007eb2 <get_iso8859_code+0xc2>
20007e7c:	f042 0201 	orr.w	r2, r2, #1
20007e80:	7821      	ldrb	r1, [r4, #0]
20007e82:	7828      	ldrb	r0, [r5, #0]
20007e84:	2701      	movs	r7, #1
20007e86:	4281      	cmp	r1, r0
20007e88:	b2cb      	uxtb	r3, r1
20007e8a:	d1bf      	bne.n	20007e0c <get_iso8859_code+0x1c>
20007e8c:	f88c 2000 	strb.w	r2, [ip]
20007e90:	2000      	movs	r0, #0
20007e92:	bcf0      	pop	{r4, r5, r6, r7}
20007e94:	4770      	bx	lr
20007e96:	f042 0202 	orr.w	r2, r2, #2
20007e9a:	e7f1      	b.n	20007e80 <get_iso8859_code+0x90>
20007e9c:	2b12      	cmp	r3, #18
20007e9e:	f000 8086 	beq.w	20007fae <get_iso8859_code+0x1be>
20007ea2:	2b59      	cmp	r3, #89	@ 0x59
20007ea4:	d079      	beq.n	20007f9a <get_iso8859_code+0x1aa>
20007ea6:	2b14      	cmp	r3, #20
20007ea8:	f000 80a8 	beq.w	20007ffc <get_iso8859_code+0x20c>
20007eac:	2b11      	cmp	r3, #17
20007eae:	f000 8111 	beq.w	200080d4 <get_iso8859_code+0x2e4>
20007eb2:	f002 02fc 	and.w	r2, r2, #252	@ 0xfc
20007eb6:	e7e3      	b.n	20007e80 <get_iso8859_code+0x90>
20007eb8:	3b4a      	subs	r3, #74	@ 0x4a
20007eba:	2b33      	cmp	r3, #51	@ 0x33
20007ebc:	d8d9      	bhi.n	20007e72 <get_iso8859_code+0x82>
20007ebe:	a101      	add	r1, pc, #4	@ (adr r1, 20007ec4 <get_iso8859_code+0xd4>)
20007ec0:	f851 f023 	ldr.w	pc, [r1, r3, lsl #2]
20007ec4:	20008021 	.word	0x20008021
20007ec8:	20007e73 	.word	0x20007e73
20007ecc:	20007e73 	.word	0x20007e73
20007ed0:	20007e73 	.word	0x20007e73
20007ed4:	20007e73 	.word	0x20007e73
20007ed8:	20007e73 	.word	0x20007e73
20007edc:	20007e73 	.word	0x20007e73
20007ee0:	20007e73 	.word	0x20007e73
20007ee4:	20007e73 	.word	0x20007e73
20007ee8:	20007e73 	.word	0x20007e73
20007eec:	20007e73 	.word	0x20007e73
20007ef0:	20007e73 	.word	0x20007e73
20007ef4:	20007e73 	.word	0x20007e73
20007ef8:	20007e73 	.word	0x20007e73
20007efc:	20007e73 	.word	0x20007e73
20007f00:	20007e73 	.word	0x20007e73
20007f04:	200080ad 	.word	0x200080ad
20007f08:	20007e73 	.word	0x20007e73
20007f0c:	20007e73 	.word	0x20007e73
20007f10:	20007e73 	.word	0x20007e73
20007f14:	20007e73 	.word	0x20007e73
20007f18:	20007e73 	.word	0x20007e73
20007f1c:	20007e73 	.word	0x20007e73
20007f20:	20007e73 	.word	0x20007e73
20007f24:	20007e73 	.word	0x20007e73
20007f28:	20007e73 	.word	0x20007e73
20007f2c:	20007e73 	.word	0x20007e73
20007f30:	20007e73 	.word	0x20007e73
20007f34:	20007e73 	.word	0x20007e73
20007f38:	20007e73 	.word	0x20007e73
20007f3c:	20007e73 	.word	0x20007e73
20007f40:	20007e73 	.word	0x20007e73
20007f44:	20007e73 	.word	0x20007e73
20007f48:	20008099 	.word	0x20008099
20007f4c:	20007e73 	.word	0x20007e73
20007f50:	20007e73 	.word	0x20007e73
20007f54:	20007e73 	.word	0x20007e73
20007f58:	20007e73 	.word	0x20007e73
20007f5c:	20007e73 	.word	0x20007e73
20007f60:	20008085 	.word	0x20008085
20007f64:	20008071 	.word	0x20008071
20007f68:	20007e73 	.word	0x20007e73
20007f6c:	2000805d 	.word	0x2000805d
20007f70:	20008049 	.word	0x20008049
20007f74:	20007e73 	.word	0x20007e73
20007f78:	20007e73 	.word	0x20007e73
20007f7c:	20007e73 	.word	0x20007e73
20007f80:	20007e73 	.word	0x20007e73
20007f84:	20008035 	.word	0x20008035
20007f88:	20007e73 	.word	0x20007e73
20007f8c:	20007e73 	.word	0x20007e73
20007f90:	200080c1 	.word	0x200080c1
20007f94:	f042 0220 	orr.w	r2, r2, #32
20007f98:	e772      	b.n	20007e80 <get_iso8859_code+0x90>
20007f9a:	f002 02f7 	and.w	r2, r2, #247	@ 0xf7
20007f9e:	e788      	b.n	20007eb2 <get_iso8859_code+0xc2>
20007fa0:	f042 0204 	orr.w	r2, r2, #4
20007fa4:	e76c      	b.n	20007e80 <get_iso8859_code+0x90>
20007fa6:	b161      	cbz	r1, 20007fc2 <get_iso8859_code+0x1d2>
20007fa8:	f042 0210 	orr.w	r2, r2, #16
20007fac:	e761      	b.n	20007e72 <get_iso8859_code+0x82>
20007fae:	f002 02fb 	and.w	r2, r2, #251	@ 0xfb
20007fb2:	e77e      	b.n	20007eb2 <get_iso8859_code+0xc2>
20007fb4:	f042 0208 	orr.w	r2, r2, #8
20007fb8:	e762      	b.n	20007e80 <get_iso8859_code+0x90>
20007fba:	2f00      	cmp	r7, #0
20007fbc:	f47f af66 	bne.w	20007e8c <get_iso8859_code+0x9c>
20007fc0:	e766      	b.n	20007e90 <get_iso8859_code+0xa0>
20007fc2:	06d0      	lsls	r0, r2, #27
20007fc4:	d41d      	bmi.n	20008002 <get_iso8859_code+0x212>
20007fc6:	f012 0f0c 	tst.w	r2, #12
20007fca:	d013      	beq.n	20007ff4 <get_iso8859_code+0x204>
20007fcc:	4947      	ldr	r1, [pc, #284]	@ (200080ec <get_iso8859_code+0x2fc>)
20007fce:	6809      	ldr	r1, [r1, #0]
20007fd0:	440b      	add	r3, r1
20007fd2:	f893 0088 	ldrb.w	r0, [r3, #136]	@ 0x88
20007fd6:	4b46      	ldr	r3, [pc, #280]	@ (200080f0 <get_iso8859_code+0x300>)
20007fd8:	f3c2 1140 	ubfx	r1, r2, #5, #1
20007fdc:	7019      	strb	r1, [r3, #0]
20007fde:	f002 02fc 	and.w	r2, r2, #252	@ 0xfc
20007fe2:	2800      	cmp	r0, #0
20007fe4:	f43f af4c 	beq.w	20007e80 <get_iso8859_code+0x90>
20007fe8:	f88c 2000 	strb.w	r2, [ip]
20007fec:	e751      	b.n	20007e92 <get_iso8859_code+0xa2>
20007fee:	2b87      	cmp	r3, #135	@ 0x87
20007ff0:	f63f af3f 	bhi.w	20007e72 <get_iso8859_code+0x82>
20007ff4:	493d      	ldr	r1, [pc, #244]	@ (200080ec <get_iso8859_code+0x2fc>)
20007ff6:	6809      	ldr	r1, [r1, #0]
20007ff8:	5cc8      	ldrb	r0, [r1, r3]
20007ffa:	e7ec      	b.n	20007fd6 <get_iso8859_code+0x1e6>
20007ffc:	f002 02df 	and.w	r2, r2, #223	@ 0xdf
20008000:	e757      	b.n	20007eb2 <get_iso8859_code+0xc2>
20008002:	493a      	ldr	r1, [pc, #232]	@ (200080ec <get_iso8859_code+0x2fc>)
20008004:	6809      	ldr	r1, [r1, #0]
20008006:	f8d1 0110 	ldr.w	r0, [r1, #272]	@ 0x110
2000800a:	2800      	cmp	r0, #0
2000800c:	f43f af2a 	beq.w	20007e64 <get_iso8859_code+0x74>
20008010:	4419      	add	r1, r3
20008012:	f891 0114 	ldrb.w	r0, [r1, #276]	@ 0x114
20008016:	e7de      	b.n	20007fd6 <get_iso8859_code+0x1e6>
20008018:	2b87      	cmp	r3, #135	@ 0x87
2000801a:	f63f af2a 	bhi.w	20007e72 <get_iso8859_code+0x82>
2000801e:	e7f7      	b.n	20008010 <get_iso8859_code+0x220>
20008020:	4b33      	ldr	r3, [pc, #204]	@ (200080f0 <get_iso8859_code+0x300>)
20008022:	f3c2 1140 	ubfx	r1, r2, #5, #1
20008026:	f022 0203 	bic.w	r2, r2, #3
2000802a:	202f      	movs	r0, #47	@ 0x2f
2000802c:	7019      	strb	r1, [r3, #0]
2000802e:	f88c 2000 	strb.w	r2, [ip]
20008032:	e72e      	b.n	20007e92 <get_iso8859_code+0xa2>
20008034:	4b2e      	ldr	r3, [pc, #184]	@ (200080f0 <get_iso8859_code+0x300>)
20008036:	f3c2 1140 	ubfx	r1, r2, #5, #1
2000803a:	f022 0203 	bic.w	r2, r2, #3
2000803e:	201a      	movs	r0, #26
20008040:	7019      	strb	r1, [r3, #0]
20008042:	f88c 2000 	strb.w	r2, [ip]
20008046:	e724      	b.n	20007e92 <get_iso8859_code+0xa2>
20008048:	4b29      	ldr	r3, [pc, #164]	@ (200080f0 <get_iso8859_code+0x300>)
2000804a:	f3c2 1140 	ubfx	r1, r2, #5, #1
2000804e:	f022 0203 	bic.w	r2, r2, #3
20008052:	200b      	movs	r0, #11
20008054:	7019      	strb	r1, [r3, #0]
20008056:	f88c 2000 	strb.w	r2, [ip]
2000805a:	e71a      	b.n	20007e92 <get_iso8859_code+0xa2>
2000805c:	4b24      	ldr	r3, [pc, #144]	@ (200080f0 <get_iso8859_code+0x300>)
2000805e:	f3c2 1140 	ubfx	r1, r2, #5, #1
20008062:	f022 0203 	bic.w	r2, r2, #3
20008066:	2015      	movs	r0, #21
20008068:	7019      	strb	r1, [r3, #0]
2000806a:	f88c 2000 	strb.w	r2, [ip]
2000806e:	e710      	b.n	20007e92 <get_iso8859_code+0xa2>
20008070:	4b1f      	ldr	r3, [pc, #124]	@ (200080f0 <get_iso8859_code+0x300>)
20008072:	f3c2 1140 	ubfx	r1, r2, #5, #1
20008076:	f022 0203 	bic.w	r2, r2, #3
2000807a:	200a      	movs	r0, #10
2000807c:	7019      	strb	r1, [r3, #0]
2000807e:	f88c 2000 	strb.w	r2, [ip]
20008082:	e706      	b.n	20007e92 <get_iso8859_code+0xa2>
20008084:	4b1a      	ldr	r3, [pc, #104]	@ (200080f0 <get_iso8859_code+0x300>)
20008086:	f3c2 1140 	ubfx	r1, r2, #5, #1
2000808a:	f022 0203 	bic.w	r2, r2, #3
2000808e:	207f      	movs	r0, #127	@ 0x7f
20008090:	7019      	strb	r1, [r3, #0]
20008092:	f88c 2000 	strb.w	r2, [ip]
20008096:	e6fc      	b.n	20007e92 <get_iso8859_code+0xa2>
20008098:	4b15      	ldr	r3, [pc, #84]	@ (200080f0 <get_iso8859_code+0x300>)
2000809a:	f3c2 1140 	ubfx	r1, r2, #5, #1
2000809e:	f022 0203 	bic.w	r2, r2, #3
200080a2:	2008      	movs	r0, #8
200080a4:	7019      	strb	r1, [r3, #0]
200080a6:	f88c 2000 	strb.w	r2, [ip]
200080aa:	e6f2      	b.n	20007e92 <get_iso8859_code+0xa2>
200080ac:	4b10      	ldr	r3, [pc, #64]	@ (200080f0 <get_iso8859_code+0x300>)
200080ae:	f3c2 1140 	ubfx	r1, r2, #5, #1
200080b2:	f022 0203 	bic.w	r2, r2, #3
200080b6:	200d      	movs	r0, #13
200080b8:	7019      	strb	r1, [r3, #0]
200080ba:	f88c 2000 	strb.w	r2, [ip]
200080be:	e6e8      	b.n	20007e92 <get_iso8859_code+0xa2>
200080c0:	4b0b      	ldr	r3, [pc, #44]	@ (200080f0 <get_iso8859_code+0x300>)
200080c2:	f3c2 1140 	ubfx	r1, r2, #5, #1
200080c6:	f022 0203 	bic.w	r2, r2, #3
200080ca:	2019      	movs	r0, #25
200080cc:	7019      	strb	r1, [r3, #0]
200080ce:	f88c 2000 	strb.w	r2, [ip]
200080d2:	e6de      	b.n	20007e92 <get_iso8859_code+0xa2>
200080d4:	0797      	lsls	r7, r2, #30
200080d6:	f57f aeec 	bpl.w	20007eb2 <get_iso8859_code+0xc2>
200080da:	f002 02ef 	and.w	r2, r2, #239	@ 0xef
200080de:	e6e8      	b.n	20007eb2 <get_iso8859_code+0xc2>
200080e0:	2005afd3 	.word	0x2005afd3
200080e4:	2005afcf 	.word	0x2005afcf
200080e8:	20011bd0 	.word	0x20011bd0
200080ec:	2000fe6c 	.word	0x2000fe6c
200080f0:	2005afcc 	.word	0x2005afcc
200080f4:	2005afd2 	.word	0x2005afd2

200080f8 <PS2_keyAvailable>:
200080f8:	b510      	push	{r4, lr}
200080fa:	4c08      	ldr	r4, [pc, #32]	@ (2000811c <PS2_keyAvailable+0x24>)
200080fc:	8823      	ldrh	r3, [r4, #0]
200080fe:	b913      	cbnz	r3, 20008106 <PS2_keyAvailable+0xe>
20008100:	4b07      	ldr	r3, [pc, #28]	@ (20008120 <PS2_keyAvailable+0x28>)
20008102:	781b      	ldrb	r3, [r3, #0]
20008104:	b10b      	cbz	r3, 2000810a <PS2_keyAvailable+0x12>
20008106:	2001      	movs	r0, #1
20008108:	bd10      	pop	{r4, pc}
2000810a:	f7ff fe71 	bl	20007df0 <get_iso8859_code>
2000810e:	4603      	mov	r3, r0
20008110:	3800      	subs	r0, #0
20008112:	bf18      	it	ne
20008114:	2001      	movne	r0, #1
20008116:	8023      	strh	r3, [r4, #0]
20008118:	bd10      	pop	{r4, pc}
2000811a:	bf00      	nop
2000811c:	2005afc0 	.word	0x2005afc0
20008120:	2005afc5 	.word	0x2005afc5

20008124 <PS2_readKey>:
20008124:	4b12      	ldr	r3, [pc, #72]	@ (20008170 <PS2_readKey+0x4c>)
20008126:	7818      	ldrb	r0, [r3, #0]
20008128:	b110      	cbz	r0, 20008130 <PS2_readKey+0xc>
2000812a:	2200      	movs	r2, #0
2000812c:	701a      	strb	r2, [r3, #0]
2000812e:	4770      	bx	lr
20008130:	4b10      	ldr	r3, [pc, #64]	@ (20008174 <PS2_readKey+0x50>)
20008132:	b510      	push	{r4, lr}
20008134:	8818      	ldrh	r0, [r3, #0]
20008136:	b140      	cbz	r0, 2000814a <PS2_readKey+0x26>
20008138:	2100      	movs	r1, #0
2000813a:	4a0f      	ldr	r2, [pc, #60]	@ (20008178 <PS2_readKey+0x54>)
2000813c:	8019      	strh	r1, [r3, #0]
2000813e:	7814      	ldrb	r4, [r2, #0]
20008140:	b114      	cbz	r4, 20008148 <PS2_readKey+0x24>
20008142:	f440 7080 	orr.w	r0, r0, #256	@ 0x100
20008146:	7011      	strb	r1, [r2, #0]
20008148:	bd10      	pop	{r4, pc}
2000814a:	f7ff fe51 	bl	20007df0 <get_iso8859_code>
2000814e:	4a0a      	ldr	r2, [pc, #40]	@ (20008178 <PS2_readKey+0x54>)
20008150:	4603      	mov	r3, r0
20008152:	7811      	ldrb	r1, [r2, #0]
20008154:	b129      	cbz	r1, 20008162 <PS2_readKey+0x3e>
20008156:	2100      	movs	r1, #0
20008158:	f440 7380 	orr.w	r3, r0, #256	@ 0x100
2000815c:	7011      	strb	r1, [r2, #0]
2000815e:	b298      	uxth	r0, r3
20008160:	bd10      	pop	{r4, pc}
20008162:	f64f 70ff 	movw	r0, #65535	@ 0xffff
20008166:	2b00      	cmp	r3, #0
20008168:	bf18      	it	ne
2000816a:	4618      	movne	r0, r3
2000816c:	bd10      	pop	{r4, pc}
2000816e:	bf00      	nop
20008170:	2005afc5 	.word	0x2005afc5
20008174:	2005afc0 	.word	0x2005afc0
20008178:	2005afcc 	.word	0x2005afcc

2000817c <PS2_init>:
2000817c:	b570      	push	{r4, r5, r6, lr}
2000817e:	4d11      	ldr	r5, [pc, #68]	@ (200081c4 <PS2_init+0x48>)
20008180:	4c11      	ldr	r4, [pc, #68]	@ (200081c8 <PS2_init+0x4c>)
20008182:	6028      	str	r0, [r5, #0]
20008184:	6021      	str	r1, [r4, #0]
20008186:	f7fa fa91 	bl	200026ac <gpio_init>
2000818a:	6820      	ldr	r0, [r4, #0]
2000818c:	f7fa fa8e 	bl	200026ac <gpio_init>
20008190:	f04f 0300 	mov.w	r3, #0
20008194:	682a      	ldr	r2, [r5, #0]
20008196:	ec43 2044 	gpioc_bit_oe_put r2, r3
2000819a:	6820      	ldr	r0, [r4, #0]
2000819c:	ec43 0044 	gpioc_bit_oe_put r0, r3
200081a0:	2201      	movs	r2, #1
200081a2:	2100      	movs	r1, #0
200081a4:	f7fa fa0c 	bl	200025c0 <gpio_set_pulls>
200081a8:	6828      	ldr	r0, [r5, #0]
200081aa:	2201      	movs	r2, #1
200081ac:	2100      	movs	r1, #0
200081ae:	f7fa fa07 	bl	200025c0 <gpio_set_pulls>
200081b2:	6820      	ldr	r0, [r4, #0]
200081b4:	2201      	movs	r2, #1
200081b6:	e8bd 4070 	ldmia.w	sp!, {r4, r5, r6, lr}
200081ba:	2104      	movs	r1, #4
200081bc:	4b03      	ldr	r3, [pc, #12]	@ (200081cc <PS2_init+0x50>)
200081be:	f7fa ba21 	b.w	20002604 <gpio_set_irq_enabled_with_callback>
200081c2:	bf00      	nop
200081c4:	2005a778 	.word	0x2005a778
200081c8:	2005a774 	.word	0x2005a774
200081cc:	20007d21 	.word	0x20007d21

200081d0 <__aeabi_drsub>:
200081d0:	f081 4100 	eor.w	r1, r1, #2147483648	@ 0x80000000
200081d4:	e002      	b.n	200081dc <__adddf3>
200081d6:	bf00      	nop

200081d8 <__aeabi_dsub>:
200081d8:	f083 4300 	eor.w	r3, r3, #2147483648	@ 0x80000000

200081dc <__adddf3>:
200081dc:	b530      	push	{r4, r5, lr}
200081de:	ea4f 0441 	mov.w	r4, r1, lsl #1
200081e2:	ea4f 0543 	mov.w	r5, r3, lsl #1
200081e6:	ea94 0f05 	teq	r4, r5
200081ea:	bf08      	it	eq
200081ec:	ea90 0f02 	teqeq	r0, r2
200081f0:	bf1f      	itttt	ne
200081f2:	ea54 0c00 	orrsne.w	ip, r4, r0
200081f6:	ea55 0c02 	orrsne.w	ip, r5, r2
200081fa:	ea7f 5c64 	mvnsne.w	ip, r4, asr #21
200081fe:	ea7f 5c65 	mvnsne.w	ip, r5, asr #21
20008202:	f000 80e2 	beq.w	200083ca <__adddf3+0x1ee>
20008206:	ea4f 5454 	mov.w	r4, r4, lsr #21
2000820a:	ebd4 5555 	rsbs	r5, r4, r5, lsr #21
2000820e:	bfb8      	it	lt
20008210:	426d      	neglt	r5, r5
20008212:	dd0c      	ble.n	2000822e <__adddf3+0x52>
20008214:	442c      	add	r4, r5
20008216:	ea80 0202 	eor.w	r2, r0, r2
2000821a:	ea81 0303 	eor.w	r3, r1, r3
2000821e:	ea82 0000 	eor.w	r0, r2, r0
20008222:	ea83 0101 	eor.w	r1, r3, r1
20008226:	ea80 0202 	eor.w	r2, r0, r2
2000822a:	ea81 0303 	eor.w	r3, r1, r3
2000822e:	2d36      	cmp	r5, #54	@ 0x36
20008230:	bf88      	it	hi
20008232:	bd30      	pophi	{r4, r5, pc}
20008234:	f011 4f00 	tst.w	r1, #2147483648	@ 0x80000000
20008238:	ea4f 3101 	mov.w	r1, r1, lsl #12
2000823c:	f44f 1c80 	mov.w	ip, #1048576	@ 0x100000
20008240:	ea4c 3111 	orr.w	r1, ip, r1, lsr #12
20008244:	d002      	beq.n	2000824c <__adddf3+0x70>
20008246:	4240      	negs	r0, r0
20008248:	eb61 0141 	sbc.w	r1, r1, r1, lsl #1
2000824c:	f013 4f00 	tst.w	r3, #2147483648	@ 0x80000000
20008250:	ea4f 3303 	mov.w	r3, r3, lsl #12
20008254:	ea4c 3313 	orr.w	r3, ip, r3, lsr #12
20008258:	d002      	beq.n	20008260 <__adddf3+0x84>
2000825a:	4252      	negs	r2, r2
2000825c:	eb63 0343 	sbc.w	r3, r3, r3, lsl #1
20008260:	ea94 0f05 	teq	r4, r5
20008264:	f000 80a7 	beq.w	200083b6 <__adddf3+0x1da>
20008268:	f1a4 0401 	sub.w	r4, r4, #1
2000826c:	f1d5 0e20 	rsbs	lr, r5, #32
20008270:	db0d      	blt.n	2000828e <__adddf3+0xb2>
20008272:	fa02 fc0e 	lsl.w	ip, r2, lr
20008276:	fa22 f205 	lsr.w	r2, r2, r5
2000827a:	1880      	adds	r0, r0, r2
2000827c:	f141 0100 	adc.w	r1, r1, #0
20008280:	fa03 f20e 	lsl.w	r2, r3, lr
20008284:	1880      	adds	r0, r0, r2
20008286:	fa43 f305 	asr.w	r3, r3, r5
2000828a:	4159      	adcs	r1, r3
2000828c:	e00e      	b.n	200082ac <__adddf3+0xd0>
2000828e:	f1a5 0520 	sub.w	r5, r5, #32
20008292:	f10e 0e20 	add.w	lr, lr, #32
20008296:	2a01      	cmp	r2, #1
20008298:	fa03 fc0e 	lsl.w	ip, r3, lr
2000829c:	bf28      	it	cs
2000829e:	f04c 0c02 	orrcs.w	ip, ip, #2
200082a2:	fa43 f305 	asr.w	r3, r3, r5
200082a6:	18c0      	adds	r0, r0, r3
200082a8:	eb51 71e3 	adcs.w	r1, r1, r3, asr #31
200082ac:	f001 4500 	and.w	r5, r1, #2147483648	@ 0x80000000
200082b0:	d507      	bpl.n	200082c2 <__adddf3+0xe6>
200082b2:	f04f 0e00 	mov.w	lr, #0
200082b6:	f1dc 0c00 	rsbs	ip, ip, #0
200082ba:	eb7e 0000 	sbcs.w	r0, lr, r0
200082be:	eb6e 0101 	sbc.w	r1, lr, r1
200082c2:	f5b1 1f80 	cmp.w	r1, #1048576	@ 0x100000
200082c6:	d31b      	bcc.n	20008300 <__adddf3+0x124>
200082c8:	f5b1 1f00 	cmp.w	r1, #2097152	@ 0x200000
200082cc:	d30c      	bcc.n	200082e8 <__adddf3+0x10c>
200082ce:	0849      	lsrs	r1, r1, #1
200082d0:	ea5f 0030 	movs.w	r0, r0, rrx
200082d4:	ea4f 0c3c 	mov.w	ip, ip, rrx
200082d8:	f104 0401 	add.w	r4, r4, #1
200082dc:	ea4f 5244 	mov.w	r2, r4, lsl #21
200082e0:	f512 0f80 	cmn.w	r2, #4194304	@ 0x400000
200082e4:	f080 809a 	bcs.w	2000841c <__adddf3+0x240>
200082e8:	f1bc 4f00 	cmp.w	ip, #2147483648	@ 0x80000000
200082ec:	bf08      	it	eq
200082ee:	ea5f 0c50 	movseq.w	ip, r0, lsr #1
200082f2:	f150 0000 	adcs.w	r0, r0, #0
200082f6:	eb41 5104 	adc.w	r1, r1, r4, lsl #20
200082fa:	ea41 0105 	orr.w	r1, r1, r5
200082fe:	bd30      	pop	{r4, r5, pc}
20008300:	ea5f 0c4c 	movs.w	ip, ip, lsl #1
20008304:	4140      	adcs	r0, r0
20008306:	eb41 0101 	adc.w	r1, r1, r1
2000830a:	3c01      	subs	r4, #1
2000830c:	bf28      	it	cs
2000830e:	f5b1 1f80 	cmpcs.w	r1, #1048576	@ 0x100000
20008312:	d2e9      	bcs.n	200082e8 <__adddf3+0x10c>
20008314:	f091 0f00 	teq	r1, #0
20008318:	bf04      	itt	eq
2000831a:	4601      	moveq	r1, r0
2000831c:	2000      	moveq	r0, #0
2000831e:	fab1 f381 	clz	r3, r1
20008322:	bf08      	it	eq
20008324:	3320      	addeq	r3, #32
20008326:	f1a3 030b 	sub.w	r3, r3, #11
2000832a:	f1b3 0220 	subs.w	r2, r3, #32
2000832e:	da0c      	bge.n	2000834a <__adddf3+0x16e>
20008330:	320c      	adds	r2, #12
20008332:	dd08      	ble.n	20008346 <__adddf3+0x16a>
20008334:	f102 0c14 	add.w	ip, r2, #20
20008338:	f1c2 020c 	rsb	r2, r2, #12
2000833c:	fa01 f00c 	lsl.w	r0, r1, ip
20008340:	fa21 f102 	lsr.w	r1, r1, r2
20008344:	e00c      	b.n	20008360 <__adddf3+0x184>
20008346:	f102 0214 	add.w	r2, r2, #20
2000834a:	bfd8      	it	le
2000834c:	f1c2 0c20 	rsble	ip, r2, #32
20008350:	fa01 f102 	lsl.w	r1, r1, r2
20008354:	fa20 fc0c 	lsr.w	ip, r0, ip
20008358:	bfdc      	itt	le
2000835a:	ea41 010c 	orrle.w	r1, r1, ip
2000835e:	4090      	lslle	r0, r2
20008360:	1ae4      	subs	r4, r4, r3
20008362:	bfa2      	ittt	ge
20008364:	eb01 5104 	addge.w	r1, r1, r4, lsl #20
20008368:	4329      	orrge	r1, r5
2000836a:	bd30      	popge	{r4, r5, pc}
2000836c:	ea6f 0404 	mvn.w	r4, r4
20008370:	3c1f      	subs	r4, #31
20008372:	da1c      	bge.n	200083ae <__adddf3+0x1d2>
20008374:	340c      	adds	r4, #12
20008376:	dc0e      	bgt.n	20008396 <__adddf3+0x1ba>
20008378:	f104 0414 	add.w	r4, r4, #20
2000837c:	f1c4 0220 	rsb	r2, r4, #32
20008380:	fa20 f004 	lsr.w	r0, r0, r4
20008384:	fa01 f302 	lsl.w	r3, r1, r2
20008388:	ea40 0003 	orr.w	r0, r0, r3
2000838c:	fa21 f304 	lsr.w	r3, r1, r4
20008390:	ea45 0103 	orr.w	r1, r5, r3
20008394:	bd30      	pop	{r4, r5, pc}
20008396:	f1c4 040c 	rsb	r4, r4, #12
2000839a:	f1c4 0220 	rsb	r2, r4, #32
2000839e:	fa20 f002 	lsr.w	r0, r0, r2
200083a2:	fa01 f304 	lsl.w	r3, r1, r4
200083a6:	ea40 0003 	orr.w	r0, r0, r3
200083aa:	4629      	mov	r1, r5
200083ac:	bd30      	pop	{r4, r5, pc}
200083ae:	fa21 f004 	lsr.w	r0, r1, r4
200083b2:	4629      	mov	r1, r5
200083b4:	bd30      	pop	{r4, r5, pc}
200083b6:	f094 0f00 	teq	r4, #0
200083ba:	f483 1380 	eor.w	r3, r3, #1048576	@ 0x100000
200083be:	bf06      	itte	eq
200083c0:	f481 1180 	eoreq.w	r1, r1, #1048576	@ 0x100000
200083c4:	3401      	addeq	r4, #1
200083c6:	3d01      	subne	r5, #1
200083c8:	e74e      	b.n	20008268 <__adddf3+0x8c>
200083ca:	ea7f 5c64 	mvns.w	ip, r4, asr #21
200083ce:	bf18      	it	ne
200083d0:	ea7f 5c65 	mvnsne.w	ip, r5, asr #21
200083d4:	d029      	beq.n	2000842a <__adddf3+0x24e>
200083d6:	ea94 0f05 	teq	r4, r5
200083da:	bf08      	it	eq
200083dc:	ea90 0f02 	teqeq	r0, r2
200083e0:	d005      	beq.n	200083ee <__adddf3+0x212>
200083e2:	ea54 0c00 	orrs.w	ip, r4, r0
200083e6:	bf04      	itt	eq
200083e8:	4619      	moveq	r1, r3
200083ea:	4610      	moveq	r0, r2
200083ec:	bd30      	pop	{r4, r5, pc}
200083ee:	ea91 0f03 	teq	r1, r3
200083f2:	bf1e      	ittt	ne
200083f4:	2100      	movne	r1, #0
200083f6:	2000      	movne	r0, #0
200083f8:	bd30      	popne	{r4, r5, pc}
200083fa:	ea5f 5c54 	movs.w	ip, r4, lsr #21
200083fe:	d105      	bne.n	2000840c <__adddf3+0x230>
20008400:	0040      	lsls	r0, r0, #1
20008402:	4149      	adcs	r1, r1
20008404:	bf28      	it	cs
20008406:	f041 4100 	orrcs.w	r1, r1, #2147483648	@ 0x80000000
2000840a:	bd30      	pop	{r4, r5, pc}
2000840c:	f514 0480 	adds.w	r4, r4, #4194304	@ 0x400000
20008410:	bf3c      	itt	cc
20008412:	f501 1180 	addcc.w	r1, r1, #1048576	@ 0x100000
20008416:	bd30      	popcc	{r4, r5, pc}
20008418:	f001 4500 	and.w	r5, r1, #2147483648	@ 0x80000000
2000841c:	f045 41fe 	orr.w	r1, r5, #2130706432	@ 0x7f000000
20008420:	f441 0170 	orr.w	r1, r1, #15728640	@ 0xf00000
20008424:	f04f 0000 	mov.w	r0, #0
20008428:	bd30      	pop	{r4, r5, pc}
2000842a:	ea7f 5c64 	mvns.w	ip, r4, asr #21
2000842e:	bf1a      	itte	ne
20008430:	4619      	movne	r1, r3
20008432:	4610      	movne	r0, r2
20008434:	ea7f 5c65 	mvnseq.w	ip, r5, asr #21
20008438:	bf1c      	itt	ne
2000843a:	460b      	movne	r3, r1
2000843c:	4602      	movne	r2, r0
2000843e:	ea50 3401 	orrs.w	r4, r0, r1, lsl #12
20008442:	bf06      	itte	eq
20008444:	ea52 3503 	orrseq.w	r5, r2, r3, lsl #12
20008448:	ea91 0f03 	teqeq	r1, r3
2000844c:	f441 2100 	orrne.w	r1, r1, #524288	@ 0x80000
20008450:	bd30      	pop	{r4, r5, pc}
20008452:	bf00      	nop

20008454 <__aeabi_ui2d>:
20008454:	f090 0f00 	teq	r0, #0
20008458:	bf04      	itt	eq
2000845a:	2100      	moveq	r1, #0
2000845c:	4770      	bxeq	lr
2000845e:	b530      	push	{r4, r5, lr}
20008460:	f44f 6480 	mov.w	r4, #1024	@ 0x400
20008464:	f104 0432 	add.w	r4, r4, #50	@ 0x32
20008468:	f04f 0500 	mov.w	r5, #0
2000846c:	f04f 0100 	mov.w	r1, #0
20008470:	e750      	b.n	20008314 <__adddf3+0x138>
20008472:	bf00      	nop

20008474 <__aeabi_i2d>:
20008474:	f090 0f00 	teq	r0, #0
20008478:	bf04      	itt	eq
2000847a:	2100      	moveq	r1, #0
2000847c:	4770      	bxeq	lr
2000847e:	b530      	push	{r4, r5, lr}
20008480:	f44f 6480 	mov.w	r4, #1024	@ 0x400
20008484:	f104 0432 	add.w	r4, r4, #50	@ 0x32
20008488:	f010 4500 	ands.w	r5, r0, #2147483648	@ 0x80000000
2000848c:	bf48      	it	mi
2000848e:	4240      	negmi	r0, r0
20008490:	f04f 0100 	mov.w	r1, #0
20008494:	e73e      	b.n	20008314 <__adddf3+0x138>
20008496:	bf00      	nop

20008498 <__aeabi_f2d>:
20008498:	0042      	lsls	r2, r0, #1
2000849a:	ea4f 01e2 	mov.w	r1, r2, asr #3
2000849e:	ea4f 0131 	mov.w	r1, r1, rrx
200084a2:	ea4f 7002 	mov.w	r0, r2, lsl #28
200084a6:	bf1f      	itttt	ne
200084a8:	f012 437f 	andsne.w	r3, r2, #4278190080	@ 0xff000000
200084ac:	f093 4f7f 	teqne	r3, #4278190080	@ 0xff000000
200084b0:	f081 5160 	eorne.w	r1, r1, #939524096	@ 0x38000000
200084b4:	4770      	bxne	lr
200084b6:	f032 427f 	bics.w	r2, r2, #4278190080	@ 0xff000000
200084ba:	bf08      	it	eq
200084bc:	4770      	bxeq	lr
200084be:	f093 4f7f 	teq	r3, #4278190080	@ 0xff000000
200084c2:	bf04      	itt	eq
200084c4:	f441 2100 	orreq.w	r1, r1, #524288	@ 0x80000
200084c8:	4770      	bxeq	lr
200084ca:	b530      	push	{r4, r5, lr}
200084cc:	f44f 7460 	mov.w	r4, #896	@ 0x380
200084d0:	f001 4500 	and.w	r5, r1, #2147483648	@ 0x80000000
200084d4:	f021 4100 	bic.w	r1, r1, #2147483648	@ 0x80000000
200084d8:	e71c      	b.n	20008314 <__adddf3+0x138>
200084da:	bf00      	nop

200084dc <__aeabi_ul2d>:
200084dc:	ea50 0201 	orrs.w	r2, r0, r1
200084e0:	bf08      	it	eq
200084e2:	4770      	bxeq	lr
200084e4:	b530      	push	{r4, r5, lr}
200084e6:	f04f 0500 	mov.w	r5, #0
200084ea:	e00a      	b.n	20008502 <__aeabi_l2d+0x16>

200084ec <__aeabi_l2d>:
200084ec:	ea50 0201 	orrs.w	r2, r0, r1
200084f0:	bf08      	it	eq
200084f2:	4770      	bxeq	lr
200084f4:	b530      	push	{r4, r5, lr}
200084f6:	f011 4500 	ands.w	r5, r1, #2147483648	@ 0x80000000
200084fa:	d502      	bpl.n	20008502 <__aeabi_l2d+0x16>
200084fc:	4240      	negs	r0, r0
200084fe:	eb61 0141 	sbc.w	r1, r1, r1, lsl #1
20008502:	f44f 6480 	mov.w	r4, #1024	@ 0x400
20008506:	f104 0432 	add.w	r4, r4, #50	@ 0x32
2000850a:	ea5f 5c91 	movs.w	ip, r1, lsr #22
2000850e:	f43f aed8 	beq.w	200082c2 <__adddf3+0xe6>
20008512:	f04f 0203 	mov.w	r2, #3
20008516:	ea5f 0cdc 	movs.w	ip, ip, lsr #3
2000851a:	bf18      	it	ne
2000851c:	3203      	addne	r2, #3
2000851e:	ea5f 0cdc 	movs.w	ip, ip, lsr #3
20008522:	bf18      	it	ne
20008524:	3203      	addne	r2, #3
20008526:	eb02 02dc 	add.w	r2, r2, ip, lsr #3
2000852a:	f1c2 0320 	rsb	r3, r2, #32
2000852e:	fa00 fc03 	lsl.w	ip, r0, r3
20008532:	fa20 f002 	lsr.w	r0, r0, r2
20008536:	fa01 fe03 	lsl.w	lr, r1, r3
2000853a:	ea40 000e 	orr.w	r0, r0, lr
2000853e:	fa21 f102 	lsr.w	r1, r1, r2
20008542:	4414      	add	r4, r2
20008544:	e6bd      	b.n	200082c2 <__adddf3+0xe6>
20008546:	bf00      	nop

20008548 <__aeabi_uldivmod>:
20008548:	b953      	cbnz	r3, 20008560 <__aeabi_uldivmod+0x18>
2000854a:	b94a      	cbnz	r2, 20008560 <__aeabi_uldivmod+0x18>
2000854c:	2900      	cmp	r1, #0
2000854e:	bf08      	it	eq
20008550:	2800      	cmpeq	r0, #0
20008552:	bf1c      	itt	ne
20008554:	f04f 31ff 	movne.w	r1, #4294967295
20008558:	f04f 30ff 	movne.w	r0, #4294967295
2000855c:	f000 b9b2 	b.w	200088c4 <__aeabi_idiv0>
20008560:	f1ad 0c08 	sub.w	ip, sp, #8
20008564:	e96d ce04 	strd	ip, lr, [sp, #-16]!
20008568:	f000 f806 	bl	20008578 <__udivmoddi4>
2000856c:	f8dd e004 	ldr.w	lr, [sp, #4]
20008570:	e9dd 2302 	ldrd	r2, r3, [sp, #8]
20008574:	b004      	add	sp, #16
20008576:	4770      	bx	lr

20008578 <__udivmoddi4>:
20008578:	e92d 4ff0 	stmdb	sp!, {r4, r5, r6, r7, r8, r9, sl, fp, lr}
2000857c:	468c      	mov	ip, r1
2000857e:	9e09      	ldr	r6, [sp, #36]	@ 0x24
20008580:	4604      	mov	r4, r0
20008582:	460f      	mov	r7, r1
20008584:	2b00      	cmp	r3, #0
20008586:	d148      	bne.n	2000861a <__udivmoddi4+0xa2>
20008588:	428a      	cmp	r2, r1
2000858a:	4615      	mov	r5, r2
2000858c:	d95e      	bls.n	2000864c <__udivmoddi4+0xd4>
2000858e:	fab2 f382 	clz	r3, r2
20008592:	b13b      	cbz	r3, 200085a4 <__udivmoddi4+0x2c>
20008594:	f1c3 0220 	rsb	r2, r3, #32
20008598:	409f      	lsls	r7, r3
2000859a:	409d      	lsls	r5, r3
2000859c:	409c      	lsls	r4, r3
2000859e:	fa20 f202 	lsr.w	r2, r0, r2
200085a2:	4317      	orrs	r7, r2
200085a4:	ea4f 4e15 	mov.w	lr, r5, lsr #16
200085a8:	fa1f fc85 	uxth.w	ip, r5
200085ac:	0c22      	lsrs	r2, r4, #16
200085ae:	fbb7 f1fe 	udiv	r1, r7, lr
200085b2:	fb0e 7711 	mls	r7, lr, r1, r7
200085b6:	fb01 f00c 	mul.w	r0, r1, ip
200085ba:	ea42 4207 	orr.w	r2, r2, r7, lsl #16
200085be:	4290      	cmp	r0, r2
200085c0:	d907      	bls.n	200085d2 <__udivmoddi4+0x5a>
200085c2:	18aa      	adds	r2, r5, r2
200085c4:	f101 37ff 	add.w	r7, r1, #4294967295
200085c8:	d202      	bcs.n	200085d0 <__udivmoddi4+0x58>
200085ca:	4290      	cmp	r0, r2
200085cc:	f200 8158 	bhi.w	20008880 <__udivmoddi4+0x308>
200085d0:	4639      	mov	r1, r7
200085d2:	1a12      	subs	r2, r2, r0
200085d4:	b2a4      	uxth	r4, r4
200085d6:	fbb2 f0fe 	udiv	r0, r2, lr
200085da:	fb0e 2210 	mls	r2, lr, r0, r2
200085de:	fb00 fc0c 	mul.w	ip, r0, ip
200085e2:	ea44 4402 	orr.w	r4, r4, r2, lsl #16
200085e6:	45a4      	cmp	ip, r4
200085e8:	d90b      	bls.n	20008602 <__udivmoddi4+0x8a>
200085ea:	192c      	adds	r4, r5, r4
200085ec:	f100 32ff 	add.w	r2, r0, #4294967295
200085f0:	bf2c      	ite	cs
200085f2:	2701      	movcs	r7, #1
200085f4:	2700      	movcc	r7, #0
200085f6:	45a4      	cmp	ip, r4
200085f8:	d902      	bls.n	20008600 <__udivmoddi4+0x88>
200085fa:	2f00      	cmp	r7, #0
200085fc:	f000 8143 	beq.w	20008886 <__udivmoddi4+0x30e>
20008600:	4610      	mov	r0, r2
20008602:	ea40 4001 	orr.w	r0, r0, r1, lsl #16
20008606:	eba4 040c 	sub.w	r4, r4, ip
2000860a:	2100      	movs	r1, #0
2000860c:	b11e      	cbz	r6, 20008616 <__udivmoddi4+0x9e>
2000860e:	40dc      	lsrs	r4, r3
20008610:	2300      	movs	r3, #0
20008612:	e9c6 4300 	strd	r4, r3, [r6]
20008616:	e8bd 8ff0 	ldmia.w	sp!, {r4, r5, r6, r7, r8, r9, sl, fp, pc}
2000861a:	428b      	cmp	r3, r1
2000861c:	d906      	bls.n	2000862c <__udivmoddi4+0xb4>
2000861e:	b10e      	cbz	r6, 20008624 <__udivmoddi4+0xac>
20008620:	e9c6 0100 	strd	r0, r1, [r6]
20008624:	2100      	movs	r1, #0
20008626:	4608      	mov	r0, r1
20008628:	e8bd 8ff0 	ldmia.w	sp!, {r4, r5, r6, r7, r8, r9, sl, fp, pc}
2000862c:	fab3 f183 	clz	r1, r3
20008630:	2900      	cmp	r1, #0
20008632:	d151      	bne.n	200086d8 <__udivmoddi4+0x160>
20008634:	4563      	cmp	r3, ip
20008636:	f0c0 8116 	bcc.w	20008866 <__udivmoddi4+0x2ee>
2000863a:	4282      	cmp	r2, r0
2000863c:	f240 8113 	bls.w	20008866 <__udivmoddi4+0x2ee>
20008640:	4608      	mov	r0, r1
20008642:	2e00      	cmp	r6, #0
20008644:	d0e7      	beq.n	20008616 <__udivmoddi4+0x9e>
20008646:	e9c6 4700 	strd	r4, r7, [r6]
2000864a:	e7e4      	b.n	20008616 <__udivmoddi4+0x9e>
2000864c:	2a00      	cmp	r2, #0
2000864e:	f000 80af 	beq.w	200087b0 <__udivmoddi4+0x238>
20008652:	fab2 f382 	clz	r3, r2
20008656:	2b00      	cmp	r3, #0
20008658:	f040 80c2 	bne.w	200087e0 <__udivmoddi4+0x268>
2000865c:	1a8a      	subs	r2, r1, r2
2000865e:	ea4f 4e15 	mov.w	lr, r5, lsr #16
20008662:	b2af      	uxth	r7, r5
20008664:	2101      	movs	r1, #1
20008666:	0c20      	lsrs	r0, r4, #16
20008668:	fbb2 fcfe 	udiv	ip, r2, lr
2000866c:	fb0e 221c 	mls	r2, lr, ip, r2
20008670:	ea40 4202 	orr.w	r2, r0, r2, lsl #16
20008674:	fb07 f00c 	mul.w	r0, r7, ip
20008678:	4290      	cmp	r0, r2
2000867a:	d90e      	bls.n	2000869a <__udivmoddi4+0x122>
2000867c:	18aa      	adds	r2, r5, r2
2000867e:	f10c 38ff 	add.w	r8, ip, #4294967295
20008682:	bf2c      	ite	cs
20008684:	f04f 0901 	movcs.w	r9, #1
20008688:	f04f 0900 	movcc.w	r9, #0
2000868c:	4290      	cmp	r0, r2
2000868e:	d903      	bls.n	20008698 <__udivmoddi4+0x120>
20008690:	f1b9 0f00 	cmp.w	r9, #0
20008694:	f000 80f0 	beq.w	20008878 <__udivmoddi4+0x300>
20008698:	46c4      	mov	ip, r8
2000869a:	1a12      	subs	r2, r2, r0
2000869c:	b2a4      	uxth	r4, r4
2000869e:	fbb2 f0fe 	udiv	r0, r2, lr
200086a2:	fb0e 2210 	mls	r2, lr, r0, r2
200086a6:	fb00 f707 	mul.w	r7, r0, r7
200086aa:	ea44 4402 	orr.w	r4, r4, r2, lsl #16
200086ae:	42a7      	cmp	r7, r4
200086b0:	d90e      	bls.n	200086d0 <__udivmoddi4+0x158>
200086b2:	192c      	adds	r4, r5, r4
200086b4:	f100 32ff 	add.w	r2, r0, #4294967295
200086b8:	bf2c      	ite	cs
200086ba:	f04f 0e01 	movcs.w	lr, #1
200086be:	f04f 0e00 	movcc.w	lr, #0
200086c2:	42a7      	cmp	r7, r4
200086c4:	d903      	bls.n	200086ce <__udivmoddi4+0x156>
200086c6:	f1be 0f00 	cmp.w	lr, #0
200086ca:	f000 80d2 	beq.w	20008872 <__udivmoddi4+0x2fa>
200086ce:	4610      	mov	r0, r2
200086d0:	1be4      	subs	r4, r4, r7
200086d2:	ea40 400c 	orr.w	r0, r0, ip, lsl #16
200086d6:	e799      	b.n	2000860c <__udivmoddi4+0x94>
200086d8:	f1c1 0520 	rsb	r5, r1, #32
200086dc:	408b      	lsls	r3, r1
200086de:	fa0c f401 	lsl.w	r4, ip, r1
200086e2:	fa00 f901 	lsl.w	r9, r0, r1
200086e6:	fa22 f705 	lsr.w	r7, r2, r5
200086ea:	fa2c fc05 	lsr.w	ip, ip, r5
200086ee:	408a      	lsls	r2, r1
200086f0:	431f      	orrs	r7, r3
200086f2:	fa20 f305 	lsr.w	r3, r0, r5
200086f6:	0c38      	lsrs	r0, r7, #16
200086f8:	4323      	orrs	r3, r4
200086fa:	fa1f fe87 	uxth.w	lr, r7
200086fe:	0c1c      	lsrs	r4, r3, #16
20008700:	fbbc f8f0 	udiv	r8, ip, r0
20008704:	fb00 cc18 	mls	ip, r0, r8, ip
20008708:	ea44 440c 	orr.w	r4, r4, ip, lsl #16
2000870c:	fb08 fc0e 	mul.w	ip, r8, lr
20008710:	45a4      	cmp	ip, r4
20008712:	d90e      	bls.n	20008732 <__udivmoddi4+0x1ba>
20008714:	193c      	adds	r4, r7, r4
20008716:	f108 3aff 	add.w	sl, r8, #4294967295
2000871a:	bf2c      	ite	cs
2000871c:	f04f 0b01 	movcs.w	fp, #1
20008720:	f04f 0b00 	movcc.w	fp, #0
20008724:	45a4      	cmp	ip, r4
20008726:	d903      	bls.n	20008730 <__udivmoddi4+0x1b8>
20008728:	f1bb 0f00 	cmp.w	fp, #0
2000872c:	f000 80b8 	beq.w	200088a0 <__udivmoddi4+0x328>
20008730:	46d0      	mov	r8, sl
20008732:	eba4 040c 	sub.w	r4, r4, ip
20008736:	fa1f fc83 	uxth.w	ip, r3
2000873a:	fbb4 f3f0 	udiv	r3, r4, r0
2000873e:	fb00 4413 	mls	r4, r0, r3, r4
20008742:	fb03 fe0e 	mul.w	lr, r3, lr
20008746:	ea4c 4404 	orr.w	r4, ip, r4, lsl #16
2000874a:	45a6      	cmp	lr, r4
2000874c:	d90e      	bls.n	2000876c <__udivmoddi4+0x1f4>
2000874e:	193c      	adds	r4, r7, r4
20008750:	f103 30ff 	add.w	r0, r3, #4294967295
20008754:	bf2c      	ite	cs
20008756:	f04f 0c01 	movcs.w	ip, #1
2000875a:	f04f 0c00 	movcc.w	ip, #0
2000875e:	45a6      	cmp	lr, r4
20008760:	d903      	bls.n	2000876a <__udivmoddi4+0x1f2>
20008762:	f1bc 0f00 	cmp.w	ip, #0
20008766:	f000 809f 	beq.w	200088a8 <__udivmoddi4+0x330>
2000876a:	4603      	mov	r3, r0
2000876c:	ea43 4008 	orr.w	r0, r3, r8, lsl #16
20008770:	eba4 040e 	sub.w	r4, r4, lr
20008774:	fba0 ec02 	umull	lr, ip, r0, r2
20008778:	4564      	cmp	r4, ip
2000877a:	4673      	mov	r3, lr
2000877c:	46e0      	mov	r8, ip
2000877e:	d302      	bcc.n	20008786 <__udivmoddi4+0x20e>
20008780:	d107      	bne.n	20008792 <__udivmoddi4+0x21a>
20008782:	45f1      	cmp	r9, lr
20008784:	d205      	bcs.n	20008792 <__udivmoddi4+0x21a>
20008786:	ebbe 0302 	subs.w	r3, lr, r2
2000878a:	eb6c 0c07 	sbc.w	ip, ip, r7
2000878e:	3801      	subs	r0, #1
20008790:	46e0      	mov	r8, ip
20008792:	b15e      	cbz	r6, 200087ac <__udivmoddi4+0x234>
20008794:	ebb9 0203 	subs.w	r2, r9, r3
20008798:	eb64 0408 	sbc.w	r4, r4, r8
2000879c:	fa04 f505 	lsl.w	r5, r4, r5
200087a0:	fa22 f301 	lsr.w	r3, r2, r1
200087a4:	40cc      	lsrs	r4, r1
200087a6:	431d      	orrs	r5, r3
200087a8:	e9c6 5400 	strd	r5, r4, [r6]
200087ac:	2100      	movs	r1, #0
200087ae:	e732      	b.n	20008616 <__udivmoddi4+0x9e>
200087b0:	0842      	lsrs	r2, r0, #1
200087b2:	462f      	mov	r7, r5
200087b4:	084b      	lsrs	r3, r1, #1
200087b6:	46ac      	mov	ip, r5
200087b8:	ea42 72c1 	orr.w	r2, r2, r1, lsl #31
200087bc:	46ae      	mov	lr, r5
200087be:	07c4      	lsls	r4, r0, #31
200087c0:	0c11      	lsrs	r1, r2, #16
200087c2:	b292      	uxth	r2, r2
200087c4:	ea41 4103 	orr.w	r1, r1, r3, lsl #16
200087c8:	ea42 4201 	orr.w	r2, r2, r1, lsl #16
200087cc:	fbb1 f1f5 	udiv	r1, r1, r5
200087d0:	fbb3 f0f5 	udiv	r0, r3, r5
200087d4:	231f      	movs	r3, #31
200087d6:	eba2 020c 	sub.w	r2, r2, ip
200087da:	ea41 4100 	orr.w	r1, r1, r0, lsl #16
200087de:	e742      	b.n	20008666 <__udivmoddi4+0xee>
200087e0:	409d      	lsls	r5, r3
200087e2:	f1c3 0220 	rsb	r2, r3, #32
200087e6:	4099      	lsls	r1, r3
200087e8:	409c      	lsls	r4, r3
200087ea:	fa2c fc02 	lsr.w	ip, ip, r2
200087ee:	ea4f 4e15 	mov.w	lr, r5, lsr #16
200087f2:	fa20 f202 	lsr.w	r2, r0, r2
200087f6:	b2af      	uxth	r7, r5
200087f8:	fbbc f8fe 	udiv	r8, ip, lr
200087fc:	430a      	orrs	r2, r1
200087fe:	fb0e cc18 	mls	ip, lr, r8, ip
20008802:	0c11      	lsrs	r1, r2, #16
20008804:	ea41 410c 	orr.w	r1, r1, ip, lsl #16
20008808:	fb08 fc07 	mul.w	ip, r8, r7
2000880c:	458c      	cmp	ip, r1
2000880e:	d950      	bls.n	200088b2 <__udivmoddi4+0x33a>
20008810:	1869      	adds	r1, r5, r1
20008812:	f108 30ff 	add.w	r0, r8, #4294967295
20008816:	bf2c      	ite	cs
20008818:	f04f 0901 	movcs.w	r9, #1
2000881c:	f04f 0900 	movcc.w	r9, #0
20008820:	458c      	cmp	ip, r1
20008822:	d902      	bls.n	2000882a <__udivmoddi4+0x2b2>
20008824:	f1b9 0f00 	cmp.w	r9, #0
20008828:	d030      	beq.n	2000888c <__udivmoddi4+0x314>
2000882a:	eba1 010c 	sub.w	r1, r1, ip
2000882e:	fbb1 f8fe 	udiv	r8, r1, lr
20008832:	fb08 fc07 	mul.w	ip, r8, r7
20008836:	fb0e 1118 	mls	r1, lr, r8, r1
2000883a:	b292      	uxth	r2, r2
2000883c:	ea42 4201 	orr.w	r2, r2, r1, lsl #16
20008840:	4562      	cmp	r2, ip
20008842:	d234      	bcs.n	200088ae <__udivmoddi4+0x336>
20008844:	18aa      	adds	r2, r5, r2
20008846:	f108 31ff 	add.w	r1, r8, #4294967295
2000884a:	bf2c      	ite	cs
2000884c:	f04f 0901 	movcs.w	r9, #1
20008850:	f04f 0900 	movcc.w	r9, #0
20008854:	4562      	cmp	r2, ip
20008856:	d2be      	bcs.n	200087d6 <__udivmoddi4+0x25e>
20008858:	f1b9 0f00 	cmp.w	r9, #0
2000885c:	d1bb      	bne.n	200087d6 <__udivmoddi4+0x25e>
2000885e:	f1a8 0102 	sub.w	r1, r8, #2
20008862:	442a      	add	r2, r5
20008864:	e7b7      	b.n	200087d6 <__udivmoddi4+0x25e>
20008866:	1a84      	subs	r4, r0, r2
20008868:	eb6c 0203 	sbc.w	r2, ip, r3
2000886c:	2001      	movs	r0, #1
2000886e:	4617      	mov	r7, r2
20008870:	e6e7      	b.n	20008642 <__udivmoddi4+0xca>
20008872:	442c      	add	r4, r5
20008874:	3802      	subs	r0, #2
20008876:	e72b      	b.n	200086d0 <__udivmoddi4+0x158>
20008878:	f1ac 0c02 	sub.w	ip, ip, #2
2000887c:	442a      	add	r2, r5
2000887e:	e70c      	b.n	2000869a <__udivmoddi4+0x122>
20008880:	3902      	subs	r1, #2
20008882:	442a      	add	r2, r5
20008884:	e6a5      	b.n	200085d2 <__udivmoddi4+0x5a>
20008886:	442c      	add	r4, r5
20008888:	3802      	subs	r0, #2
2000888a:	e6ba      	b.n	20008602 <__udivmoddi4+0x8a>
2000888c:	eba5 0c0c 	sub.w	ip, r5, ip
20008890:	f1a8 0002 	sub.w	r0, r8, #2
20008894:	4461      	add	r1, ip
20008896:	fbb1 f8fe 	udiv	r8, r1, lr
2000889a:	fb08 fc07 	mul.w	ip, r8, r7
2000889e:	e7ca      	b.n	20008836 <__udivmoddi4+0x2be>
200088a0:	f1a8 0802 	sub.w	r8, r8, #2
200088a4:	443c      	add	r4, r7
200088a6:	e744      	b.n	20008732 <__udivmoddi4+0x1ba>
200088a8:	3b02      	subs	r3, #2
200088aa:	443c      	add	r4, r7
200088ac:	e75e      	b.n	2000876c <__udivmoddi4+0x1f4>
200088ae:	4641      	mov	r1, r8
200088b0:	e791      	b.n	200087d6 <__udivmoddi4+0x25e>
200088b2:	eba1 010c 	sub.w	r1, r1, ip
200088b6:	4640      	mov	r0, r8
200088b8:	fbb1 f8fe 	udiv	r8, r1, lr
200088bc:	fb08 fc07 	mul.w	ip, r8, r7
200088c0:	e7b9      	b.n	20008836 <__udivmoddi4+0x2be>
200088c2:	bf00      	nop

200088c4 <__aeabi_idiv0>:
200088c4:	4770      	bx	lr
200088c6:	bf00      	nop

200088c8 <atoi>:
200088c8:	220a      	movs	r2, #10
200088ca:	2100      	movs	r1, #0
200088cc:	f000 bda6 	b.w	2000941c <strtol>

200088d0 <calloc>:
200088d0:	4b02      	ldr	r3, [pc, #8]	@ (200088dc <calloc+0xc>)
200088d2:	460a      	mov	r2, r1
200088d4:	4601      	mov	r1, r0
200088d6:	6818      	ldr	r0, [r3, #0]
200088d8:	f000 b802 	b.w	200088e0 <_calloc_r>
200088dc:	20010280 	.word	0x20010280

200088e0 <_calloc_r>:
200088e0:	b538      	push	{r3, r4, r5, lr}
200088e2:	fba1 1402 	umull	r1, r4, r1, r2
200088e6:	bb34      	cbnz	r4, 20008936 <_calloc_r+0x56>
200088e8:	f000 f832 	bl	20008950 <_malloc_r>
200088ec:	4605      	mov	r5, r0
200088ee:	b330      	cbz	r0, 2000893e <_calloc_r+0x5e>
200088f0:	f850 2c04 	ldr.w	r2, [r0, #-4]
200088f4:	f022 0203 	bic.w	r2, r2, #3
200088f8:	3a04      	subs	r2, #4
200088fa:	2a24      	cmp	r2, #36	@ 0x24
200088fc:	d80c      	bhi.n	20008918 <_calloc_r+0x38>
200088fe:	2a13      	cmp	r2, #19
20008900:	d90f      	bls.n	20008922 <_calloc_r+0x42>
20008902:	2a1b      	cmp	r2, #27
20008904:	e9c0 4400 	strd	r4, r4, [r0]
20008908:	d912      	bls.n	20008930 <_calloc_r+0x50>
2000890a:	2a24      	cmp	r2, #36	@ 0x24
2000890c:	e9c0 4402 	strd	r4, r4, [r0, #8]
20008910:	d018      	beq.n	20008944 <_calloc_r+0x64>
20008912:	f100 0210 	add.w	r2, r0, #16
20008916:	e005      	b.n	20008924 <_calloc_r+0x44>
20008918:	4621      	mov	r1, r4
2000891a:	f000 fe2f 	bl	2000957c <memset>
2000891e:	4628      	mov	r0, r5
20008920:	bd38      	pop	{r3, r4, r5, pc}
20008922:	4602      	mov	r2, r0
20008924:	2300      	movs	r3, #0
20008926:	4628      	mov	r0, r5
20008928:	e9c2 3300 	strd	r3, r3, [r2]
2000892c:	6093      	str	r3, [r2, #8]
2000892e:	bd38      	pop	{r3, r4, r5, pc}
20008930:	f100 0208 	add.w	r2, r0, #8
20008934:	e7f6      	b.n	20008924 <_calloc_r+0x44>
20008936:	f000 febb 	bl	200096b0 <__errno>
2000893a:	230c      	movs	r3, #12
2000893c:	6003      	str	r3, [r0, #0]
2000893e:	2500      	movs	r5, #0
20008940:	4628      	mov	r0, r5
20008942:	bd38      	pop	{r3, r4, r5, pc}
20008944:	f100 0218 	add.w	r2, r0, #24
20008948:	e9c0 4404 	strd	r4, r4, [r0, #16]
2000894c:	e7ea      	b.n	20008924 <_calloc_r+0x44>
2000894e:	bf00      	nop

20008950 <_malloc_r>:
20008950:	f101 030b 	add.w	r3, r1, #11
20008954:	2b16      	cmp	r3, #22
20008956:	e92d 4ff0 	stmdb	sp!, {r4, r5, r6, r7, r8, r9, sl, fp, lr}
2000895a:	4607      	mov	r7, r0
2000895c:	b083      	sub	sp, #12
2000895e:	d823      	bhi.n	200089a8 <_malloc_r+0x58>
20008960:	2910      	cmp	r1, #16
20008962:	f200 80af 	bhi.w	20008ac4 <_malloc_r+0x174>
20008966:	f000 faaf 	bl	20008ec8 <__malloc_lock>
2000896a:	2510      	movs	r5, #16
2000896c:	2318      	movs	r3, #24
2000896e:	2002      	movs	r0, #2
20008970:	4eba      	ldr	r6, [pc, #744]	@ (20008c5c <_malloc_r+0x30c>)
20008972:	4433      	add	r3, r6
20008974:	685c      	ldr	r4, [r3, #4]
20008976:	f1a3 0208 	sub.w	r2, r3, #8
2000897a:	4294      	cmp	r4, r2
2000897c:	f000 8156 	beq.w	20008c2c <_malloc_r+0x2dc>
20008980:	6863      	ldr	r3, [r4, #4]
20008982:	4638      	mov	r0, r7
20008984:	f023 0303 	bic.w	r3, r3, #3
20008988:	e9d4 1202 	ldrd	r1, r2, [r4, #8]
2000898c:	4423      	add	r3, r4
2000898e:	60ca      	str	r2, [r1, #12]
20008990:	6091      	str	r1, [r2, #8]
20008992:	685a      	ldr	r2, [r3, #4]
20008994:	3408      	adds	r4, #8
20008996:	f042 0201 	orr.w	r2, r2, #1
2000899a:	605a      	str	r2, [r3, #4]
2000899c:	f000 fa9a 	bl	20008ed4 <__malloc_unlock>
200089a0:	4620      	mov	r0, r4
200089a2:	b003      	add	sp, #12
200089a4:	e8bd 8ff0 	ldmia.w	sp!, {r4, r5, r6, r7, r8, r9, sl, fp, pc}
200089a8:	2b00      	cmp	r3, #0
200089aa:	f023 0507 	bic.w	r5, r3, #7
200089ae:	f2c0 8089 	blt.w	20008ac4 <_malloc_r+0x174>
200089b2:	42a9      	cmp	r1, r5
200089b4:	f200 8086 	bhi.w	20008ac4 <_malloc_r+0x174>
200089b8:	f000 fa86 	bl	20008ec8 <__malloc_lock>
200089bc:	f5b5 7ffc 	cmp.w	r5, #504	@ 0x1f8
200089c0:	f0c0 827b 	bcc.w	20008eba <_malloc_r+0x56a>
200089c4:	0a6b      	lsrs	r3, r5, #9
200089c6:	f000 8084 	beq.w	20008ad2 <_malloc_r+0x182>
200089ca:	2b04      	cmp	r3, #4
200089cc:	f200 8162 	bhi.w	20008c94 <_malloc_r+0x344>
200089d0:	09ab      	lsrs	r3, r5, #6
200089d2:	f103 0039 	add.w	r0, r3, #57	@ 0x39
200089d6:	f103 0e38 	add.w	lr, r3, #56	@ 0x38
200089da:	00c3      	lsls	r3, r0, #3
200089dc:	4e9f      	ldr	r6, [pc, #636]	@ (20008c5c <_malloc_r+0x30c>)
200089de:	4433      	add	r3, r6
200089e0:	f1a3 0c08 	sub.w	ip, r3, #8
200089e4:	685c      	ldr	r4, [r3, #4]
200089e6:	45a4      	cmp	ip, r4
200089e8:	d107      	bne.n	200089fa <_malloc_r+0xaa>
200089ea:	e00d      	b.n	20008a08 <_malloc_r+0xb8>
200089ec:	2a00      	cmp	r2, #0
200089ee:	68e1      	ldr	r1, [r4, #12]
200089f0:	f280 8116 	bge.w	20008c20 <_malloc_r+0x2d0>
200089f4:	458c      	cmp	ip, r1
200089f6:	460c      	mov	r4, r1
200089f8:	d006      	beq.n	20008a08 <_malloc_r+0xb8>
200089fa:	6863      	ldr	r3, [r4, #4]
200089fc:	f023 0303 	bic.w	r3, r3, #3
20008a00:	1b5a      	subs	r2, r3, r5
20008a02:	2a0f      	cmp	r2, #15
20008a04:	ddf2      	ble.n	200089ec <_malloc_r+0x9c>
20008a06:	4670      	mov	r0, lr
20008a08:	f8df 8268 	ldr.w	r8, [pc, #616]	@ 20008c74 <_malloc_r+0x324>
20008a0c:	6934      	ldr	r4, [r6, #16]
20008a0e:	4544      	cmp	r4, r8
20008a10:	f000 80f2 	beq.w	20008bf8 <_malloc_r+0x2a8>
20008a14:	6863      	ldr	r3, [r4, #4]
20008a16:	f023 0c03 	bic.w	ip, r3, #3
20008a1a:	ebac 0305 	sub.w	r3, ip, r5
20008a1e:	2b0f      	cmp	r3, #15
20008a20:	f300 8174 	bgt.w	20008d0c <_malloc_r+0x3bc>
20008a24:	2b00      	cmp	r3, #0
20008a26:	e9c6 8804 	strd	r8, r8, [r6, #16]
20008a2a:	f280 8163 	bge.w	20008cf4 <_malloc_r+0x3a4>
20008a2e:	f5bc 7f00 	cmp.w	ip, #512	@ 0x200
20008a32:	f8d6 e004 	ldr.w	lr, [r6, #4]
20008a36:	f080 80ff 	bcs.w	20008c38 <_malloc_r+0x2e8>
20008a3a:	ea4f 03dc 	mov.w	r3, ip, lsr #3
20008a3e:	2201      	movs	r2, #1
20008a40:	ea4f 1c5c 	mov.w	ip, ip, lsr #5
20008a44:	3301      	adds	r3, #1
20008a46:	fa02 f20c 	lsl.w	r2, r2, ip
20008a4a:	f856 1033 	ldr.w	r1, [r6, r3, lsl #3]
20008a4e:	ea4e 0e02 	orr.w	lr, lr, r2
20008a52:	eb06 02c3 	add.w	r2, r6, r3, lsl #3
20008a56:	3a08      	subs	r2, #8
20008a58:	f8c6 e004 	str.w	lr, [r6, #4]
20008a5c:	e9c4 1202 	strd	r1, r2, [r4, #8]
20008a60:	f846 4033 	str.w	r4, [r6, r3, lsl #3]
20008a64:	60cc      	str	r4, [r1, #12]
20008a66:	1083      	asrs	r3, r0, #2
20008a68:	f04f 0c01 	mov.w	ip, #1
20008a6c:	fa0c fc03 	lsl.w	ip, ip, r3
20008a70:	45f4      	cmp	ip, lr
20008a72:	d834      	bhi.n	20008ade <_malloc_r+0x18e>
20008a74:	ea1c 0f0e 	tst.w	ip, lr
20008a78:	d107      	bne.n	20008a8a <_malloc_r+0x13a>
20008a7a:	f020 0003 	bic.w	r0, r0, #3
20008a7e:	ea4f 0c4c 	mov.w	ip, ip, lsl #1
20008a82:	3004      	adds	r0, #4
20008a84:	ea1c 0f0e 	tst.w	ip, lr
20008a88:	d0f9      	beq.n	20008a7e <_malloc_r+0x12e>
20008a8a:	eb06 0ac0 	add.w	sl, r6, r0, lsl #3
20008a8e:	4681      	mov	r9, r0
20008a90:	46d6      	mov	lr, sl
20008a92:	f8de 300c 	ldr.w	r3, [lr, #12]
20008a96:	e00b      	b.n	20008ab0 <_malloc_r+0x160>
20008a98:	685a      	ldr	r2, [r3, #4]
20008a9a:	461c      	mov	r4, r3
20008a9c:	68db      	ldr	r3, [r3, #12]
20008a9e:	f022 0203 	bic.w	r2, r2, #3
20008aa2:	1b51      	subs	r1, r2, r5
20008aa4:	290f      	cmp	r1, #15
20008aa6:	f300 8101 	bgt.w	20008cac <_malloc_r+0x35c>
20008aaa:	2900      	cmp	r1, #0
20008aac:	f280 8115 	bge.w	20008cda <_malloc_r+0x38a>
20008ab0:	459e      	cmp	lr, r3
20008ab2:	d1f1      	bne.n	20008a98 <_malloc_r+0x148>
20008ab4:	f109 0901 	add.w	r9, r9, #1
20008ab8:	f10e 0e08 	add.w	lr, lr, #8
20008abc:	f019 0f03 	tst.w	r9, #3
20008ac0:	d1e7      	bne.n	20008a92 <_malloc_r+0x142>
20008ac2:	e158      	b.n	20008d76 <_malloc_r+0x426>
20008ac4:	230c      	movs	r3, #12
20008ac6:	603b      	str	r3, [r7, #0]
20008ac8:	2400      	movs	r4, #0
20008aca:	4620      	mov	r0, r4
20008acc:	b003      	add	sp, #12
20008ace:	e8bd 8ff0 	ldmia.w	sp!, {r4, r5, r6, r7, r8, r9, sl, fp, pc}
20008ad2:	f44f 7300 	mov.w	r3, #512	@ 0x200
20008ad6:	2040      	movs	r0, #64	@ 0x40
20008ad8:	f04f 0e3f 	mov.w	lr, #63	@ 0x3f
20008adc:	e77e      	b.n	200089dc <_malloc_r+0x8c>
20008ade:	68b4      	ldr	r4, [r6, #8]
20008ae0:	6863      	ldr	r3, [r4, #4]
20008ae2:	f023 0903 	bic.w	r9, r3, #3
20008ae6:	45a9      	cmp	r9, r5
20008ae8:	eba9 0305 	sub.w	r3, r9, r5
20008aec:	d302      	bcc.n	20008af4 <_malloc_r+0x1a4>
20008aee:	2b0f      	cmp	r3, #15
20008af0:	f300 8085 	bgt.w	20008bfe <_malloc_r+0x2ae>
20008af4:	4b5a      	ldr	r3, [pc, #360]	@ (20008c60 <_malloc_r+0x310>)
20008af6:	2008      	movs	r0, #8
20008af8:	681b      	ldr	r3, [r3, #0]
20008afa:	f103 0810 	add.w	r8, r3, #16
20008afe:	eb04 0309 	add.w	r3, r4, r9
20008b02:	9300      	str	r3, [sp, #0]
20008b04:	f000 fdde 	bl	200096c4 <sysconf>
20008b08:	4a56      	ldr	r2, [pc, #344]	@ (20008c64 <_malloc_r+0x314>)
20008b0a:	44a8      	add	r8, r5
20008b0c:	4683      	mov	fp, r0
20008b0e:	6813      	ldr	r3, [r2, #0]
20008b10:	3301      	adds	r3, #1
20008b12:	d005      	beq.n	20008b20 <_malloc_r+0x1d0>
20008b14:	f108 38ff 	add.w	r8, r8, #4294967295
20008b18:	4243      	negs	r3, r0
20008b1a:	4480      	add	r8, r0
20008b1c:	ea03 0808 	and.w	r8, r3, r8
20008b20:	4641      	mov	r1, r8
20008b22:	4638      	mov	r0, r7
20008b24:	f000 fdb2 	bl	2000968c <_sbrk_r>
20008b28:	f1b0 3fff 	cmp.w	r0, #4294967295
20008b2c:	4682      	mov	sl, r0
20008b2e:	4a4d      	ldr	r2, [pc, #308]	@ (20008c64 <_malloc_r+0x314>)
20008b30:	f000 8107 	beq.w	20008d42 <_malloc_r+0x3f2>
20008b34:	eb04 0309 	add.w	r3, r4, r9
20008b38:	4283      	cmp	r3, r0
20008b3a:	f200 8100 	bhi.w	20008d3e <_malloc_r+0x3ee>
20008b3e:	4b4a      	ldr	r3, [pc, #296]	@ (20008c68 <_malloc_r+0x318>)
20008b40:	f10b 3cff 	add.w	ip, fp, #4294967295
20008b44:	6818      	ldr	r0, [r3, #0]
20008b46:	4440      	add	r0, r8
20008b48:	6018      	str	r0, [r3, #0]
20008b4a:	f000 8164 	beq.w	20008e16 <_malloc_r+0x4c6>
20008b4e:	6811      	ldr	r1, [r2, #0]
20008b50:	3101      	adds	r1, #1
20008b52:	f000 816c 	beq.w	20008e2e <_malloc_r+0x4de>
20008b56:	eb04 0209 	add.w	r2, r4, r9
20008b5a:	ebaa 0202 	sub.w	r2, sl, r2
20008b5e:	4402      	add	r2, r0
20008b60:	601a      	str	r2, [r3, #0]
20008b62:	f01a 0207 	ands.w	r2, sl, #7
20008b66:	e9cd 2300 	strd	r2, r3, [sp]
20008b6a:	f000 8127 	beq.w	20008dbc <_malloc_r+0x46c>
20008b6e:	f1c2 0208 	rsb	r2, r2, #8
20008b72:	4638      	mov	r0, r7
20008b74:	4492      	add	sl, r2
20008b76:	445a      	add	r2, fp
20008b78:	44d0      	add	r8, sl
20008b7a:	ea08 010c 	and.w	r1, r8, ip
20008b7e:	1a52      	subs	r2, r2, r1
20008b80:	ea02 0b0c 	and.w	fp, r2, ip
20008b84:	4659      	mov	r1, fp
20008b86:	f000 fd81 	bl	2000968c <_sbrk_r>
20008b8a:	1c42      	adds	r2, r0, #1
20008b8c:	9b01      	ldr	r3, [sp, #4]
20008b8e:	f000 816a 	beq.w	20008e66 <_malloc_r+0x516>
20008b92:	eba0 000a 	sub.w	r0, r0, sl
20008b96:	eb00 080b 	add.w	r8, r0, fp
20008b9a:	6818      	ldr	r0, [r3, #0]
20008b9c:	f048 0201 	orr.w	r2, r8, #1
20008ba0:	42b4      	cmp	r4, r6
20008ba2:	f8c6 a008 	str.w	sl, [r6, #8]
20008ba6:	4458      	add	r0, fp
20008ba8:	f8ca 2004 	str.w	r2, [sl, #4]
20008bac:	6018      	str	r0, [r3, #0]
20008bae:	d017      	beq.n	20008be0 <_malloc_r+0x290>
20008bb0:	f1b9 0f0f 	cmp.w	r9, #15
20008bb4:	f240 813e 	bls.w	20008e34 <_malloc_r+0x4e4>
20008bb8:	6861      	ldr	r1, [r4, #4]
20008bba:	f1a9 020c 	sub.w	r2, r9, #12
20008bbe:	f04f 0c05 	mov.w	ip, #5
20008bc2:	f022 0207 	bic.w	r2, r2, #7
20008bc6:	f001 0101 	and.w	r1, r1, #1
20008bca:	4311      	orrs	r1, r2
20008bcc:	2a0f      	cmp	r2, #15
20008bce:	6061      	str	r1, [r4, #4]
20008bd0:	eb04 0102 	add.w	r1, r4, r2
20008bd4:	e9c1 cc01 	strd	ip, ip, [r1, #4]
20008bd8:	f200 814d 	bhi.w	20008e76 <_malloc_r+0x526>
20008bdc:	f8da 2004 	ldr.w	r2, [sl, #4]
20008be0:	4b22      	ldr	r3, [pc, #136]	@ (20008c6c <_malloc_r+0x31c>)
20008be2:	4654      	mov	r4, sl
20008be4:	6819      	ldr	r1, [r3, #0]
20008be6:	4281      	cmp	r1, r0
20008be8:	bf38      	it	cc
20008bea:	6018      	strcc	r0, [r3, #0]
20008bec:	4b20      	ldr	r3, [pc, #128]	@ (20008c70 <_malloc_r+0x320>)
20008bee:	6819      	ldr	r1, [r3, #0]
20008bf0:	4281      	cmp	r1, r0
20008bf2:	bf38      	it	cc
20008bf4:	6018      	strcc	r0, [r3, #0]
20008bf6:	e0a6      	b.n	20008d46 <_malloc_r+0x3f6>
20008bf8:	f8d6 e004 	ldr.w	lr, [r6, #4]
20008bfc:	e733      	b.n	20008a66 <_malloc_r+0x116>
20008bfe:	1962      	adds	r2, r4, r5
20008c00:	f045 0501 	orr.w	r5, r5, #1
20008c04:	f043 0301 	orr.w	r3, r3, #1
20008c08:	3408      	adds	r4, #8
20008c0a:	f844 5c04 	str.w	r5, [r4, #-4]
20008c0e:	4638      	mov	r0, r7
20008c10:	60b2      	str	r2, [r6, #8]
20008c12:	6053      	str	r3, [r2, #4]
20008c14:	f000 f95e 	bl	20008ed4 <__malloc_unlock>
20008c18:	4620      	mov	r0, r4
20008c1a:	b003      	add	sp, #12
20008c1c:	e8bd 8ff0 	ldmia.w	sp!, {r4, r5, r6, r7, r8, r9, sl, fp, pc}
20008c20:	68a2      	ldr	r2, [r4, #8]
20008c22:	4423      	add	r3, r4
20008c24:	4638      	mov	r0, r7
20008c26:	60d1      	str	r1, [r2, #12]
20008c28:	608a      	str	r2, [r1, #8]
20008c2a:	e6b2      	b.n	20008992 <_malloc_r+0x42>
20008c2c:	68dc      	ldr	r4, [r3, #12]
20008c2e:	42a3      	cmp	r3, r4
20008c30:	f47f aea6 	bne.w	20008980 <_malloc_r+0x30>
20008c34:	3002      	adds	r0, #2
20008c36:	e6e7      	b.n	20008a08 <_malloc_r+0xb8>
20008c38:	f5bc 6f20 	cmp.w	ip, #2560	@ 0xa00
20008c3c:	ea4f 225c 	mov.w	r2, ip, lsr #9
20008c40:	d376      	bcc.n	20008d30 <_malloc_r+0x3e0>
20008c42:	2a14      	cmp	r2, #20
20008c44:	f200 80cd 	bhi.w	20008de2 <_malloc_r+0x492>
20008c48:	f102 035c 	add.w	r3, r2, #92	@ 0x5c
20008c4c:	325b      	adds	r2, #91	@ 0x5b
20008c4e:	00db      	lsls	r3, r3, #3
20008c50:	18f1      	adds	r1, r6, r3
20008c52:	58f3      	ldr	r3, [r6, r3]
20008c54:	3908      	subs	r1, #8
20008c56:	4299      	cmp	r1, r3
20008c58:	d111      	bne.n	20008c7e <_malloc_r+0x32e>
20008c5a:	e0a5      	b.n	20008da8 <_malloc_r+0x458>
20008c5c:	2000fe78 	.word	0x2000fe78
20008c60:	20010818 	.word	0x20010818
20008c64:	2000fe70 	.word	0x2000fe70
20008c68:	200107e8 	.word	0x200107e8
20008c6c:	20010810 	.word	0x20010810
20008c70:	20010814 	.word	0x20010814
20008c74:	2000fe80 	.word	0x2000fe80
20008c78:	689b      	ldr	r3, [r3, #8]
20008c7a:	4299      	cmp	r1, r3
20008c7c:	d004      	beq.n	20008c88 <_malloc_r+0x338>
20008c7e:	685a      	ldr	r2, [r3, #4]
20008c80:	f022 0203 	bic.w	r2, r2, #3
20008c84:	4562      	cmp	r2, ip
20008c86:	d8f7      	bhi.n	20008c78 <_malloc_r+0x328>
20008c88:	68d9      	ldr	r1, [r3, #12]
20008c8a:	e9c4 3102 	strd	r3, r1, [r4, #8]
20008c8e:	608c      	str	r4, [r1, #8]
20008c90:	60dc      	str	r4, [r3, #12]
20008c92:	e6e8      	b.n	20008a66 <_malloc_r+0x116>
20008c94:	2b14      	cmp	r3, #20
20008c96:	d963      	bls.n	20008d60 <_malloc_r+0x410>
20008c98:	2b54      	cmp	r3, #84	@ 0x54
20008c9a:	f200 80ab 	bhi.w	20008df4 <_malloc_r+0x4a4>
20008c9e:	0b2b      	lsrs	r3, r5, #12
20008ca0:	f103 006f 	add.w	r0, r3, #111	@ 0x6f
20008ca4:	f103 0e6e 	add.w	lr, r3, #110	@ 0x6e
20008ca8:	00c3      	lsls	r3, r0, #3
20008caa:	e697      	b.n	200089dc <_malloc_r+0x8c>
20008cac:	f8d4 c008 	ldr.w	ip, [r4, #8]
20008cb0:	4638      	mov	r0, r7
20008cb2:	1967      	adds	r7, r4, r5
20008cb4:	f045 0501 	orr.w	r5, r5, #1
20008cb8:	6065      	str	r5, [r4, #4]
20008cba:	f8cc 300c 	str.w	r3, [ip, #12]
20008cbe:	f8c3 c008 	str.w	ip, [r3, #8]
20008cc2:	f041 0301 	orr.w	r3, r1, #1
20008cc6:	e9c6 7704 	strd	r7, r7, [r6, #16]
20008cca:	e9c7 8802 	strd	r8, r8, [r7, #8]
20008cce:	607b      	str	r3, [r7, #4]
20008cd0:	50a1      	str	r1, [r4, r2]
20008cd2:	3408      	adds	r4, #8
20008cd4:	f000 f8fe 	bl	20008ed4 <__malloc_unlock>
20008cd8:	e6f7      	b.n	20008aca <_malloc_r+0x17a>
20008cda:	4422      	add	r2, r4
20008cdc:	4638      	mov	r0, r7
20008cde:	6851      	ldr	r1, [r2, #4]
20008ce0:	f041 0101 	orr.w	r1, r1, #1
20008ce4:	6051      	str	r1, [r2, #4]
20008ce6:	f854 2f08 	ldr.w	r2, [r4, #8]!
20008cea:	60d3      	str	r3, [r2, #12]
20008cec:	609a      	str	r2, [r3, #8]
20008cee:	f000 f8f1 	bl	20008ed4 <__malloc_unlock>
20008cf2:	e6ea      	b.n	20008aca <_malloc_r+0x17a>
20008cf4:	44a4      	add	ip, r4
20008cf6:	4638      	mov	r0, r7
20008cf8:	3408      	adds	r4, #8
20008cfa:	f8dc 3004 	ldr.w	r3, [ip, #4]
20008cfe:	f043 0301 	orr.w	r3, r3, #1
20008d02:	f8cc 3004 	str.w	r3, [ip, #4]
20008d06:	f000 f8e5 	bl	20008ed4 <__malloc_unlock>
20008d0a:	e6de      	b.n	20008aca <_malloc_r+0x17a>
20008d0c:	1962      	adds	r2, r4, r5
20008d0e:	f043 0101 	orr.w	r1, r3, #1
20008d12:	f045 0501 	orr.w	r5, r5, #1
20008d16:	4638      	mov	r0, r7
20008d18:	6065      	str	r5, [r4, #4]
20008d1a:	e9c6 2204 	strd	r2, r2, [r6, #16]
20008d1e:	e9c2 8802 	strd	r8, r8, [r2, #8]
20008d22:	6051      	str	r1, [r2, #4]
20008d24:	f844 300c 	str.w	r3, [r4, ip]
20008d28:	3408      	adds	r4, #8
20008d2a:	f000 f8d3 	bl	20008ed4 <__malloc_unlock>
20008d2e:	e6cc      	b.n	20008aca <_malloc_r+0x17a>
20008d30:	ea4f 129c 	mov.w	r2, ip, lsr #6
20008d34:	f102 0339 	add.w	r3, r2, #57	@ 0x39
20008d38:	3238      	adds	r2, #56	@ 0x38
20008d3a:	00db      	lsls	r3, r3, #3
20008d3c:	e788      	b.n	20008c50 <_malloc_r+0x300>
20008d3e:	42b4      	cmp	r4, r6
20008d40:	d062      	beq.n	20008e08 <_malloc_r+0x4b8>
20008d42:	68b4      	ldr	r4, [r6, #8]
20008d44:	6862      	ldr	r2, [r4, #4]
20008d46:	f022 0803 	bic.w	r8, r2, #3
20008d4a:	45a8      	cmp	r8, r5
20008d4c:	eba8 0305 	sub.w	r3, r8, r5
20008d50:	d302      	bcc.n	20008d58 <_malloc_r+0x408>
20008d52:	2b0f      	cmp	r3, #15
20008d54:	f73f af53 	bgt.w	20008bfe <_malloc_r+0x2ae>
20008d58:	4638      	mov	r0, r7
20008d5a:	f000 f8bb 	bl	20008ed4 <__malloc_unlock>
20008d5e:	e6b3      	b.n	20008ac8 <_malloc_r+0x178>
20008d60:	f103 005c 	add.w	r0, r3, #92	@ 0x5c
20008d64:	f103 0e5b 	add.w	lr, r3, #91	@ 0x5b
20008d68:	00c3      	lsls	r3, r0, #3
20008d6a:	e637      	b.n	200089dc <_malloc_r+0x8c>
20008d6c:	f85a 3908 	ldr.w	r3, [sl], #-8
20008d70:	4553      	cmp	r3, sl
20008d72:	f040 80a0 	bne.w	20008eb6 <_malloc_r+0x566>
20008d76:	f010 0f03 	tst.w	r0, #3
20008d7a:	f100 30ff 	add.w	r0, r0, #4294967295
20008d7e:	d1f5      	bne.n	20008d6c <_malloc_r+0x41c>
20008d80:	6873      	ldr	r3, [r6, #4]
20008d82:	ea23 030c 	bic.w	r3, r3, ip
20008d86:	6073      	str	r3, [r6, #4]
20008d88:	ea4f 0c4c 	mov.w	ip, ip, lsl #1
20008d8c:	f10c 32ff 	add.w	r2, ip, #4294967295
20008d90:	429a      	cmp	r2, r3
20008d92:	d304      	bcc.n	20008d9e <_malloc_r+0x44e>
20008d94:	e6a3      	b.n	20008ade <_malloc_r+0x18e>
20008d96:	ea4f 0c4c 	mov.w	ip, ip, lsl #1
20008d9a:	f109 0904 	add.w	r9, r9, #4
20008d9e:	ea1c 0f03 	tst.w	ip, r3
20008da2:	d0f8      	beq.n	20008d96 <_malloc_r+0x446>
20008da4:	4648      	mov	r0, r9
20008da6:	e670      	b.n	20008a8a <_malloc_r+0x13a>
20008da8:	1092      	asrs	r2, r2, #2
20008daa:	f04f 0c01 	mov.w	ip, #1
20008dae:	fa0c f202 	lsl.w	r2, ip, r2
20008db2:	ea4e 0e02 	orr.w	lr, lr, r2
20008db6:	f8c6 e004 	str.w	lr, [r6, #4]
20008dba:	e766      	b.n	20008c8a <_malloc_r+0x33a>
20008dbc:	eb0a 0208 	add.w	r2, sl, r8
20008dc0:	4638      	mov	r0, r7
20008dc2:	ea02 020c 	and.w	r2, r2, ip
20008dc6:	ebab 0b02 	sub.w	fp, fp, r2
20008dca:	ea0b 0b0c 	and.w	fp, fp, ip
20008dce:	4659      	mov	r1, fp
20008dd0:	f000 fc5c 	bl	2000968c <_sbrk_r>
20008dd4:	1c43      	adds	r3, r0, #1
20008dd6:	9b01      	ldr	r3, [sp, #4]
20008dd8:	f47f aedb 	bne.w	20008b92 <_malloc_r+0x242>
20008ddc:	f8dd b000 	ldr.w	fp, [sp]
20008de0:	e6db      	b.n	20008b9a <_malloc_r+0x24a>
20008de2:	2a54      	cmp	r2, #84	@ 0x54
20008de4:	d82a      	bhi.n	20008e3c <_malloc_r+0x4ec>
20008de6:	ea4f 321c 	mov.w	r2, ip, lsr #12
20008dea:	f102 036f 	add.w	r3, r2, #111	@ 0x6f
20008dee:	326e      	adds	r2, #110	@ 0x6e
20008df0:	00db      	lsls	r3, r3, #3
20008df2:	e72d      	b.n	20008c50 <_malloc_r+0x300>
20008df4:	f5b3 7faa 	cmp.w	r3, #340	@ 0x154
20008df8:	d82a      	bhi.n	20008e50 <_malloc_r+0x500>
20008dfa:	0beb      	lsrs	r3, r5, #15
20008dfc:	f103 0078 	add.w	r0, r3, #120	@ 0x78
20008e00:	f103 0e77 	add.w	lr, r3, #119	@ 0x77
20008e04:	00c3      	lsls	r3, r0, #3
20008e06:	e5e9      	b.n	200089dc <_malloc_r+0x8c>
20008e08:	4b2e      	ldr	r3, [pc, #184]	@ (20008ec4 <_malloc_r+0x574>)
20008e0a:	f10b 3cff 	add.w	ip, fp, #4294967295
20008e0e:	6818      	ldr	r0, [r3, #0]
20008e10:	4440      	add	r0, r8
20008e12:	6018      	str	r0, [r3, #0]
20008e14:	e69b      	b.n	20008b4e <_malloc_r+0x1fe>
20008e16:	ea1a 0f0c 	tst.w	sl, ip
20008e1a:	f47f ae98 	bne.w	20008b4e <_malloc_r+0x1fe>
20008e1e:	44c8      	add	r8, r9
20008e20:	f8d6 a008 	ldr.w	sl, [r6, #8]
20008e24:	f048 0201 	orr.w	r2, r8, #1
20008e28:	f8ca 2004 	str.w	r2, [sl, #4]
20008e2c:	e6d8      	b.n	20008be0 <_malloc_r+0x290>
20008e2e:	f8c2 a000 	str.w	sl, [r2]
20008e32:	e696      	b.n	20008b62 <_malloc_r+0x212>
20008e34:	2301      	movs	r3, #1
20008e36:	f8ca 3004 	str.w	r3, [sl, #4]
20008e3a:	e78d      	b.n	20008d58 <_malloc_r+0x408>
20008e3c:	f5b2 7faa 	cmp.w	r2, #340	@ 0x154
20008e40:	d824      	bhi.n	20008e8c <_malloc_r+0x53c>
20008e42:	ea4f 32dc 	mov.w	r2, ip, lsr #15
20008e46:	f102 0378 	add.w	r3, r2, #120	@ 0x78
20008e4a:	3277      	adds	r2, #119	@ 0x77
20008e4c:	00db      	lsls	r3, r3, #3
20008e4e:	e6ff      	b.n	20008c50 <_malloc_r+0x300>
20008e50:	f240 5254 	movw	r2, #1364	@ 0x554
20008e54:	4293      	cmp	r3, r2
20008e56:	d824      	bhi.n	20008ea2 <_malloc_r+0x552>
20008e58:	0cab      	lsrs	r3, r5, #18
20008e5a:	f103 007d 	add.w	r0, r3, #125	@ 0x7d
20008e5e:	f103 0e7c 	add.w	lr, r3, #124	@ 0x7c
20008e62:	00c3      	lsls	r3, r0, #3
20008e64:	e5ba      	b.n	200089dc <_malloc_r+0x8c>
20008e66:	9a00      	ldr	r2, [sp, #0]
20008e68:	f04f 0b00 	mov.w	fp, #0
20008e6c:	3a08      	subs	r2, #8
20008e6e:	4490      	add	r8, r2
20008e70:	eba8 080a 	sub.w	r8, r8, sl
20008e74:	e691      	b.n	20008b9a <_malloc_r+0x24a>
20008e76:	4638      	mov	r0, r7
20008e78:	f104 0108 	add.w	r1, r4, #8
20008e7c:	9300      	str	r3, [sp, #0]
20008e7e:	f000 fd2f 	bl	200098e0 <_free_r>
20008e82:	9b00      	ldr	r3, [sp, #0]
20008e84:	f8d6 a008 	ldr.w	sl, [r6, #8]
20008e88:	6818      	ldr	r0, [r3, #0]
20008e8a:	e6a7      	b.n	20008bdc <_malloc_r+0x28c>
20008e8c:	f240 5354 	movw	r3, #1364	@ 0x554
20008e90:	429a      	cmp	r2, r3
20008e92:	d80c      	bhi.n	20008eae <_malloc_r+0x55e>
20008e94:	ea4f 429c 	mov.w	r2, ip, lsr #18
20008e98:	f102 037d 	add.w	r3, r2, #125	@ 0x7d
20008e9c:	327c      	adds	r2, #124	@ 0x7c
20008e9e:	00db      	lsls	r3, r3, #3
20008ea0:	e6d6      	b.n	20008c50 <_malloc_r+0x300>
20008ea2:	f44f 737e 	mov.w	r3, #1016	@ 0x3f8
20008ea6:	207f      	movs	r0, #127	@ 0x7f
20008ea8:	f04f 0e7e 	mov.w	lr, #126	@ 0x7e
20008eac:	e596      	b.n	200089dc <_malloc_r+0x8c>
20008eae:	f44f 737e 	mov.w	r3, #1016	@ 0x3f8
20008eb2:	227e      	movs	r2, #126	@ 0x7e
20008eb4:	e6cc      	b.n	20008c50 <_malloc_r+0x300>
20008eb6:	6873      	ldr	r3, [r6, #4]
20008eb8:	e766      	b.n	20008d88 <_malloc_r+0x438>
20008eba:	08e8      	lsrs	r0, r5, #3
20008ebc:	f105 0308 	add.w	r3, r5, #8
20008ec0:	e556      	b.n	20008970 <_malloc_r+0x20>
20008ec2:	bf00      	nop
20008ec4:	200107e8 	.word	0x200107e8

20008ec8 <__malloc_lock>:
20008ec8:	4801      	ldr	r0, [pc, #4]	@ (20008ed0 <__malloc_lock+0x8>)
20008eca:	f000 bbf7 	b.w	200096bc <__retarget_lock_acquire_recursive>
20008ece:	bf00      	nop
20008ed0:	200107e4 	.word	0x200107e4

20008ed4 <__malloc_unlock>:
20008ed4:	4801      	ldr	r0, [pc, #4]	@ (20008edc <__malloc_unlock+0x8>)
20008ed6:	f000 bbf3 	b.w	200096c0 <__retarget_lock_release_recursive>
20008eda:	bf00      	nop
20008edc:	200107e4 	.word	0x200107e4

20008ee0 <_realloc_r>:
20008ee0:	e92d 4ff0 	stmdb	sp!, {r4, r5, r6, r7, r8, r9, sl, fp, lr}
20008ee4:	4616      	mov	r6, r2
20008ee6:	b083      	sub	sp, #12
20008ee8:	2900      	cmp	r1, #0
20008eea:	f000 809e 	beq.w	2000902a <_realloc_r+0x14a>
20008eee:	460c      	mov	r4, r1
20008ef0:	f106 050b 	add.w	r5, r6, #11
20008ef4:	4680      	mov	r8, r0
20008ef6:	f7ff ffe7 	bl	20008ec8 <__malloc_lock>
20008efa:	f854 0c04 	ldr.w	r0, [r4, #-4]
20008efe:	2d16      	cmp	r5, #22
20008f00:	f1a4 0908 	sub.w	r9, r4, #8
20008f04:	f020 0703 	bic.w	r7, r0, #3
20008f08:	d862      	bhi.n	20008fd0 <_realloc_r+0xf0>
20008f0a:	2210      	movs	r2, #16
20008f0c:	2300      	movs	r3, #0
20008f0e:	4615      	mov	r5, r2
20008f10:	42b5      	cmp	r5, r6
20008f12:	f0c0 80a2 	bcc.w	2000905a <_realloc_r+0x17a>
20008f16:	2b00      	cmp	r3, #0
20008f18:	f040 809f 	bne.w	2000905a <_realloc_r+0x17a>
20008f1c:	4297      	cmp	r7, r2
20008f1e:	da61      	bge.n	20008fe4 <_realloc_r+0x104>
20008f20:	f8df b32c 	ldr.w	fp, [pc, #812]	@ 20009250 <_realloc_r+0x370>
20008f24:	eb09 0107 	add.w	r1, r9, r7
20008f28:	f8db 3008 	ldr.w	r3, [fp, #8]
20008f2c:	f8d1 c004 	ldr.w	ip, [r1, #4]
20008f30:	428b      	cmp	r3, r1
20008f32:	f000 809a 	beq.w	2000906a <_realloc_r+0x18a>
20008f36:	f02c 0301 	bic.w	r3, ip, #1
20008f3a:	440b      	add	r3, r1
20008f3c:	685b      	ldr	r3, [r3, #4]
20008f3e:	07db      	lsls	r3, r3, #31
20008f40:	d468      	bmi.n	20009014 <_realloc_r+0x134>
20008f42:	f02c 0c03 	bic.w	ip, ip, #3
20008f46:	eb07 030c 	add.w	r3, r7, ip
20008f4a:	4293      	cmp	r3, r2
20008f4c:	da45      	bge.n	20008fda <_realloc_r+0xfa>
20008f4e:	07c3      	lsls	r3, r0, #31
20008f50:	d412      	bmi.n	20008f78 <_realloc_r+0x98>
20008f52:	f854 3c08 	ldr.w	r3, [r4, #-8]
20008f56:	eba9 0a03 	sub.w	sl, r9, r3
20008f5a:	f8da 3004 	ldr.w	r3, [sl, #4]
20008f5e:	f023 0003 	bic.w	r0, r3, #3
20008f62:	4484      	add	ip, r0
20008f64:	eb0c 0b07 	add.w	fp, ip, r7
20008f68:	455a      	cmp	r2, fp
20008f6a:	f340 8101 	ble.w	20009170 <_realloc_r+0x290>
20008f6e:	eb07 0b00 	add.w	fp, r7, r0
20008f72:	455a      	cmp	r2, fp
20008f74:	f340 80d7 	ble.w	20009126 <_realloc_r+0x246>
20008f78:	4631      	mov	r1, r6
20008f7a:	4640      	mov	r0, r8
20008f7c:	f7ff fce8 	bl	20008950 <_malloc_r>
20008f80:	4606      	mov	r6, r0
20008f82:	2800      	cmp	r0, #0
20008f84:	f000 812c 	beq.w	200091e0 <_realloc_r+0x300>
20008f88:	f854 3c04 	ldr.w	r3, [r4, #-4]
20008f8c:	f1a0 0208 	sub.w	r2, r0, #8
20008f90:	f023 0301 	bic.w	r3, r3, #1
20008f94:	444b      	add	r3, r9
20008f96:	4293      	cmp	r3, r2
20008f98:	f000 80b4 	beq.w	20009104 <_realloc_r+0x224>
20008f9c:	1f3a      	subs	r2, r7, #4
20008f9e:	2a24      	cmp	r2, #36	@ 0x24
20008fa0:	f200 80e2 	bhi.w	20009168 <_realloc_r+0x288>
20008fa4:	2a13      	cmp	r2, #19
20008fa6:	f200 80b3 	bhi.w	20009110 <_realloc_r+0x230>
20008faa:	4603      	mov	r3, r0
20008fac:	4622      	mov	r2, r4
20008fae:	6811      	ldr	r1, [r2, #0]
20008fb0:	6019      	str	r1, [r3, #0]
20008fb2:	6851      	ldr	r1, [r2, #4]
20008fb4:	6059      	str	r1, [r3, #4]
20008fb6:	6892      	ldr	r2, [r2, #8]
20008fb8:	609a      	str	r2, [r3, #8]
20008fba:	4621      	mov	r1, r4
20008fbc:	4640      	mov	r0, r8
20008fbe:	f000 fc8f 	bl	200098e0 <_free_r>
20008fc2:	4640      	mov	r0, r8
20008fc4:	f7ff ff86 	bl	20008ed4 <__malloc_unlock>
20008fc8:	4630      	mov	r0, r6
20008fca:	b003      	add	sp, #12
20008fcc:	e8bd 8ff0 	ldmia.w	sp!, {r4, r5, r6, r7, r8, r9, sl, fp, pc}
20008fd0:	f025 0507 	bic.w	r5, r5, #7
20008fd4:	462a      	mov	r2, r5
20008fd6:	0feb      	lsrs	r3, r5, #31
20008fd8:	e79a      	b.n	20008f10 <_realloc_r+0x30>
20008fda:	461f      	mov	r7, r3
20008fdc:	e9d1 2302 	ldrd	r2, r3, [r1, #8]
20008fe0:	60d3      	str	r3, [r2, #12]
20008fe2:	609a      	str	r2, [r3, #8]
20008fe4:	1b78      	subs	r0, r7, r5
20008fe6:	f8d9 3004 	ldr.w	r3, [r9, #4]
20008fea:	eb09 0207 	add.w	r2, r9, r7
20008fee:	280f      	cmp	r0, #15
20008ff0:	f003 0301 	and.w	r3, r3, #1
20008ff4:	d81f      	bhi.n	20009036 <_realloc_r+0x156>
20008ff6:	433b      	orrs	r3, r7
20008ff8:	f8c9 3004 	str.w	r3, [r9, #4]
20008ffc:	6853      	ldr	r3, [r2, #4]
20008ffe:	f043 0301 	orr.w	r3, r3, #1
20009002:	6053      	str	r3, [r2, #4]
20009004:	4626      	mov	r6, r4
20009006:	4640      	mov	r0, r8
20009008:	f7ff ff64 	bl	20008ed4 <__malloc_unlock>
2000900c:	4630      	mov	r0, r6
2000900e:	b003      	add	sp, #12
20009010:	e8bd 8ff0 	ldmia.w	sp!, {r4, r5, r6, r7, r8, r9, sl, fp, pc}
20009014:	07c3      	lsls	r3, r0, #31
20009016:	d4af      	bmi.n	20008f78 <_realloc_r+0x98>
20009018:	f854 3c08 	ldr.w	r3, [r4, #-8]
2000901c:	eba9 0a03 	sub.w	sl, r9, r3
20009020:	f8da 3004 	ldr.w	r3, [sl, #4]
20009024:	f023 0003 	bic.w	r0, r3, #3
20009028:	e7a1      	b.n	20008f6e <_realloc_r+0x8e>
2000902a:	4611      	mov	r1, r2
2000902c:	b003      	add	sp, #12
2000902e:	e8bd 4ff0 	ldmia.w	sp!, {r4, r5, r6, r7, r8, r9, sl, fp, lr}
20009032:	f7ff bc8d 	b.w	20008950 <_malloc_r>
20009036:	432b      	orrs	r3, r5
20009038:	eb09 0105 	add.w	r1, r9, r5
2000903c:	f040 0001 	orr.w	r0, r0, #1
20009040:	f8c9 3004 	str.w	r3, [r9, #4]
20009044:	3108      	adds	r1, #8
20009046:	f841 0c04 	str.w	r0, [r1, #-4]
2000904a:	4640      	mov	r0, r8
2000904c:	6853      	ldr	r3, [r2, #4]
2000904e:	f043 0301 	orr.w	r3, r3, #1
20009052:	6053      	str	r3, [r2, #4]
20009054:	f000 fc44 	bl	200098e0 <_free_r>
20009058:	e7d4      	b.n	20009004 <_realloc_r+0x124>
2000905a:	230c      	movs	r3, #12
2000905c:	f8c8 3000 	str.w	r3, [r8]
20009060:	2600      	movs	r6, #0
20009062:	4630      	mov	r0, r6
20009064:	b003      	add	sp, #12
20009066:	e8bd 8ff0 	ldmia.w	sp!, {r4, r5, r6, r7, r8, r9, sl, fp, pc}
2000906a:	f02c 0c03 	bic.w	ip, ip, #3
2000906e:	f105 0110 	add.w	r1, r5, #16
20009072:	eb0c 0307 	add.w	r3, ip, r7
20009076:	428b      	cmp	r3, r1
20009078:	f280 8092 	bge.w	200091a0 <_realloc_r+0x2c0>
2000907c:	07c0      	lsls	r0, r0, #31
2000907e:	f53f af7b 	bmi.w	20008f78 <_realloc_r+0x98>
20009082:	f854 3c08 	ldr.w	r3, [r4, #-8]
20009086:	eba9 0a03 	sub.w	sl, r9, r3
2000908a:	f8da 3004 	ldr.w	r3, [sl, #4]
2000908e:	f023 0003 	bic.w	r0, r3, #3
20009092:	4484      	add	ip, r0
20009094:	eb0c 0307 	add.w	r3, ip, r7
20009098:	4299      	cmp	r1, r3
2000909a:	f73f af68 	bgt.w	20008f6e <_realloc_r+0x8e>
2000909e:	1f3a      	subs	r2, r7, #4
200090a0:	4656      	mov	r6, sl
200090a2:	f8da 100c 	ldr.w	r1, [sl, #12]
200090a6:	f856 0f08 	ldr.w	r0, [r6, #8]!
200090aa:	2a24      	cmp	r2, #36	@ 0x24
200090ac:	60c1      	str	r1, [r0, #12]
200090ae:	6088      	str	r0, [r1, #8]
200090b0:	f200 80b0 	bhi.w	20009214 <_realloc_r+0x334>
200090b4:	2a13      	cmp	r2, #19
200090b6:	f240 80ab 	bls.w	20009210 <_realloc_r+0x330>
200090ba:	6821      	ldr	r1, [r4, #0]
200090bc:	2a1b      	cmp	r2, #27
200090be:	f8ca 1008 	str.w	r1, [sl, #8]
200090c2:	6861      	ldr	r1, [r4, #4]
200090c4:	f8ca 100c 	str.w	r1, [sl, #12]
200090c8:	f200 80ab 	bhi.w	20009222 <_realloc_r+0x342>
200090cc:	3408      	adds	r4, #8
200090ce:	f10a 0210 	add.w	r2, sl, #16
200090d2:	6821      	ldr	r1, [r4, #0]
200090d4:	6011      	str	r1, [r2, #0]
200090d6:	6861      	ldr	r1, [r4, #4]
200090d8:	6051      	str	r1, [r2, #4]
200090da:	68a1      	ldr	r1, [r4, #8]
200090dc:	6091      	str	r1, [r2, #8]
200090de:	1b5b      	subs	r3, r3, r5
200090e0:	eb0a 0205 	add.w	r2, sl, r5
200090e4:	4640      	mov	r0, r8
200090e6:	f043 0301 	orr.w	r3, r3, #1
200090ea:	f8cb 2008 	str.w	r2, [fp, #8]
200090ee:	6053      	str	r3, [r2, #4]
200090f0:	f8da 3004 	ldr.w	r3, [sl, #4]
200090f4:	f003 0301 	and.w	r3, r3, #1
200090f8:	432b      	orrs	r3, r5
200090fa:	f8ca 3004 	str.w	r3, [sl, #4]
200090fe:	f7ff fee9 	bl	20008ed4 <__malloc_unlock>
20009102:	e783      	b.n	2000900c <_realloc_r+0x12c>
20009104:	f850 3c04 	ldr.w	r3, [r0, #-4]
20009108:	f023 0303 	bic.w	r3, r3, #3
2000910c:	441f      	add	r7, r3
2000910e:	e769      	b.n	20008fe4 <_realloc_r+0x104>
20009110:	6823      	ldr	r3, [r4, #0]
20009112:	2a1b      	cmp	r2, #27
20009114:	6003      	str	r3, [r0, #0]
20009116:	6863      	ldr	r3, [r4, #4]
20009118:	6043      	str	r3, [r0, #4]
2000911a:	d836      	bhi.n	2000918a <_realloc_r+0x2aa>
2000911c:	f104 0208 	add.w	r2, r4, #8
20009120:	f100 0308 	add.w	r3, r0, #8
20009124:	e743      	b.n	20008fae <_realloc_r+0xce>
20009126:	1f3a      	subs	r2, r7, #4
20009128:	4656      	mov	r6, sl
2000912a:	f8da 300c 	ldr.w	r3, [sl, #12]
2000912e:	2a24      	cmp	r2, #36	@ 0x24
20009130:	f856 1f08 	ldr.w	r1, [r6, #8]!
20009134:	60cb      	str	r3, [r1, #12]
20009136:	6099      	str	r1, [r3, #8]
20009138:	d822      	bhi.n	20009180 <_realloc_r+0x2a0>
2000913a:	2a13      	cmp	r2, #19
2000913c:	d91e      	bls.n	2000917c <_realloc_r+0x29c>
2000913e:	6823      	ldr	r3, [r4, #0]
20009140:	2a1b      	cmp	r2, #27
20009142:	f8ca 3008 	str.w	r3, [sl, #8]
20009146:	6863      	ldr	r3, [r4, #4]
20009148:	f8ca 300c 	str.w	r3, [sl, #12]
2000914c:	d83c      	bhi.n	200091c8 <_realloc_r+0x2e8>
2000914e:	3408      	adds	r4, #8
20009150:	f10a 0310 	add.w	r3, sl, #16
20009154:	6822      	ldr	r2, [r4, #0]
20009156:	601a      	str	r2, [r3, #0]
20009158:	6862      	ldr	r2, [r4, #4]
2000915a:	605a      	str	r2, [r3, #4]
2000915c:	68a2      	ldr	r2, [r4, #8]
2000915e:	609a      	str	r2, [r3, #8]
20009160:	4634      	mov	r4, r6
20009162:	465f      	mov	r7, fp
20009164:	46d1      	mov	r9, sl
20009166:	e73d      	b.n	20008fe4 <_realloc_r+0x104>
20009168:	4621      	mov	r1, r4
2000916a:	f000 f989 	bl	20009480 <memmove>
2000916e:	e724      	b.n	20008fba <_realloc_r+0xda>
20009170:	e9d1 1302 	ldrd	r1, r3, [r1, #8]
20009174:	1f3a      	subs	r2, r7, #4
20009176:	60cb      	str	r3, [r1, #12]
20009178:	6099      	str	r1, [r3, #8]
2000917a:	e7d5      	b.n	20009128 <_realloc_r+0x248>
2000917c:	4633      	mov	r3, r6
2000917e:	e7e9      	b.n	20009154 <_realloc_r+0x274>
20009180:	4621      	mov	r1, r4
20009182:	4630      	mov	r0, r6
20009184:	f000 f97c 	bl	20009480 <memmove>
20009188:	e7ea      	b.n	20009160 <_realloc_r+0x280>
2000918a:	68a3      	ldr	r3, [r4, #8]
2000918c:	2a24      	cmp	r2, #36	@ 0x24
2000918e:	6083      	str	r3, [r0, #8]
20009190:	68e3      	ldr	r3, [r4, #12]
20009192:	60c3      	str	r3, [r0, #12]
20009194:	d028      	beq.n	200091e8 <_realloc_r+0x308>
20009196:	f104 0210 	add.w	r2, r4, #16
2000919a:	f100 0310 	add.w	r3, r0, #16
2000919e:	e706      	b.n	20008fae <_realloc_r+0xce>
200091a0:	1b5b      	subs	r3, r3, r5
200091a2:	eb09 0205 	add.w	r2, r9, r5
200091a6:	4640      	mov	r0, r8
200091a8:	4626      	mov	r6, r4
200091aa:	f043 0301 	orr.w	r3, r3, #1
200091ae:	f8cb 2008 	str.w	r2, [fp, #8]
200091b2:	6053      	str	r3, [r2, #4]
200091b4:	f854 3c04 	ldr.w	r3, [r4, #-4]
200091b8:	f003 0301 	and.w	r3, r3, #1
200091bc:	432b      	orrs	r3, r5
200091be:	f844 3c04 	str.w	r3, [r4, #-4]
200091c2:	f7ff fe87 	bl	20008ed4 <__malloc_unlock>
200091c6:	e721      	b.n	2000900c <_realloc_r+0x12c>
200091c8:	68a3      	ldr	r3, [r4, #8]
200091ca:	2a24      	cmp	r2, #36	@ 0x24
200091cc:	f8ca 3010 	str.w	r3, [sl, #16]
200091d0:	68e3      	ldr	r3, [r4, #12]
200091d2:	f8ca 3014 	str.w	r3, [sl, #20]
200091d6:	d010      	beq.n	200091fa <_realloc_r+0x31a>
200091d8:	3410      	adds	r4, #16
200091da:	f10a 0318 	add.w	r3, sl, #24
200091de:	e7b9      	b.n	20009154 <_realloc_r+0x274>
200091e0:	4640      	mov	r0, r8
200091e2:	f7ff fe77 	bl	20008ed4 <__malloc_unlock>
200091e6:	e73b      	b.n	20009060 <_realloc_r+0x180>
200091e8:	6923      	ldr	r3, [r4, #16]
200091ea:	f104 0218 	add.w	r2, r4, #24
200091ee:	6103      	str	r3, [r0, #16]
200091f0:	6963      	ldr	r3, [r4, #20]
200091f2:	6143      	str	r3, [r0, #20]
200091f4:	f100 0318 	add.w	r3, r0, #24
200091f8:	e6d9      	b.n	20008fae <_realloc_r+0xce>
200091fa:	6923      	ldr	r3, [r4, #16]
200091fc:	3418      	adds	r4, #24
200091fe:	f8ca 3018 	str.w	r3, [sl, #24]
20009202:	f854 3c04 	ldr.w	r3, [r4, #-4]
20009206:	f8ca 301c 	str.w	r3, [sl, #28]
2000920a:	f10a 0320 	add.w	r3, sl, #32
2000920e:	e7a1      	b.n	20009154 <_realloc_r+0x274>
20009210:	4632      	mov	r2, r6
20009212:	e75e      	b.n	200090d2 <_realloc_r+0x1f2>
20009214:	4621      	mov	r1, r4
20009216:	4630      	mov	r0, r6
20009218:	9301      	str	r3, [sp, #4]
2000921a:	f000 f931 	bl	20009480 <memmove>
2000921e:	9b01      	ldr	r3, [sp, #4]
20009220:	e75d      	b.n	200090de <_realloc_r+0x1fe>
20009222:	68a1      	ldr	r1, [r4, #8]
20009224:	2a24      	cmp	r2, #36	@ 0x24
20009226:	f8ca 1010 	str.w	r1, [sl, #16]
2000922a:	68e1      	ldr	r1, [r4, #12]
2000922c:	f8ca 1014 	str.w	r1, [sl, #20]
20009230:	d003      	beq.n	2000923a <_realloc_r+0x35a>
20009232:	3410      	adds	r4, #16
20009234:	f10a 0218 	add.w	r2, sl, #24
20009238:	e74b      	b.n	200090d2 <_realloc_r+0x1f2>
2000923a:	6922      	ldr	r2, [r4, #16]
2000923c:	3418      	adds	r4, #24
2000923e:	f8ca 2018 	str.w	r2, [sl, #24]
20009242:	f854 2c04 	ldr.w	r2, [r4, #-4]
20009246:	f8ca 201c 	str.w	r2, [sl, #28]
2000924a:	f10a 0220 	add.w	r2, sl, #32
2000924e:	e740      	b.n	200090d2 <_realloc_r+0x1f2>
20009250:	2000fe78 	.word	0x2000fe78

20009254 <_strtol_l.part.0>:
20009254:	e92d 4ff0 	stmdb	sp!, {r4, r5, r6, r7, r8, r9, sl, fp, lr}
20009258:	4681      	mov	r9, r0
2000925a:	468e      	mov	lr, r1
2000925c:	486d      	ldr	r0, [pc, #436]	@ (20009414 <_strtol_l.part.0+0x1c0>)
2000925e:	4675      	mov	r5, lr
20009260:	f81e bb01 	ldrb.w	fp, [lr], #1
20009264:	f810 400b 	ldrb.w	r4, [r0, fp]
20009268:	f014 0408 	ands.w	r4, r4, #8
2000926c:	d1f7      	bne.n	2000925e <_strtol_l.part.0+0xa>
2000926e:	f1bb 0f2d 	cmp.w	fp, #45	@ 0x2d
20009272:	f023 0710 	bic.w	r7, r3, #16
20009276:	d05d      	beq.n	20009334 <_strtol_l.part.0+0xe0>
20009278:	f1bb 0f2b 	cmp.w	fp, #43	@ 0x2b
2000927c:	d010      	beq.n	200092a0 <_strtol_l.part.0+0x4c>
2000927e:	b9af      	cbnz	r7, 200092ac <_strtol_l.part.0+0x58>
20009280:	f1bb 0f30 	cmp.w	fp, #48	@ 0x30
20009284:	f000 808d 	beq.w	200093a2 <_strtol_l.part.0+0x14e>
20009288:	2b00      	cmp	r3, #0
2000928a:	f000 8085 	beq.w	20009398 <_strtol_l.part.0+0x144>
2000928e:	2310      	movs	r3, #16
20009290:	f06f 4678 	mvn.w	r6, #4160749568	@ 0xf8000000
20009294:	270f      	movs	r7, #15
20009296:	4698      	mov	r8, r3
20009298:	2400      	movs	r4, #0
2000929a:	f06f 4a00 	mvn.w	sl, #2147483648	@ 0x80000000
2000929e:	e00d      	b.n	200092bc <_strtol_l.part.0+0x68>
200092a0:	f89e b000 	ldrb.w	fp, [lr]
200092a4:	f105 0e02 	add.w	lr, r5, #2
200092a8:	2f00      	cmp	r7, #0
200092aa:	d060      	beq.n	2000936e <_strtol_l.part.0+0x11a>
200092ac:	f06f 4700 	mvn.w	r7, #2147483648	@ 0x80000000
200092b0:	4698      	mov	r8, r3
200092b2:	fbb7 f6f3 	udiv	r6, r7, r3
200092b6:	46ba      	mov	sl, r7
200092b8:	fb03 7716 	mls	r7, r3, r6, r7
200092bc:	2500      	movs	r5, #0
200092be:	4628      	mov	r0, r5
200092c0:	e00e      	b.n	200092e0 <_strtol_l.part.0+0x8c>
200092c2:	f1ab 0c37 	sub.w	ip, fp, #55	@ 0x37
200092c6:	459c      	cmp	ip, r3
200092c8:	da1d      	bge.n	20009306 <_strtol_l.part.0+0xb2>
200092ca:	3501      	adds	r5, #1
200092cc:	d004      	beq.n	200092d8 <_strtol_l.part.0+0x84>
200092ce:	42b0      	cmp	r0, r6
200092d0:	d802      	bhi.n	200092d8 <_strtol_l.part.0+0x84>
200092d2:	d122      	bne.n	2000931a <_strtol_l.part.0+0xc6>
200092d4:	45bc      	cmp	ip, r7
200092d6:	dd20      	ble.n	2000931a <_strtol_l.part.0+0xc6>
200092d8:	f04f 35ff 	mov.w	r5, #4294967295
200092dc:	f81e bb01 	ldrb.w	fp, [lr], #1
200092e0:	f1ab 0c30 	sub.w	ip, fp, #48	@ 0x30
200092e4:	f1bc 0f09 	cmp.w	ip, #9
200092e8:	d9ed      	bls.n	200092c6 <_strtol_l.part.0+0x72>
200092ea:	f1ab 0c41 	sub.w	ip, fp, #65	@ 0x41
200092ee:	f1bc 0f19 	cmp.w	ip, #25
200092f2:	d9e6      	bls.n	200092c2 <_strtol_l.part.0+0x6e>
200092f4:	f1ab 0c61 	sub.w	ip, fp, #97	@ 0x61
200092f8:	f1bc 0f19 	cmp.w	ip, #25
200092fc:	d803      	bhi.n	20009306 <_strtol_l.part.0+0xb2>
200092fe:	f1ab 0c57 	sub.w	ip, fp, #87	@ 0x57
20009302:	459c      	cmp	ip, r3
20009304:	dbe1      	blt.n	200092ca <_strtol_l.part.0+0x76>
20009306:	1c6b      	adds	r3, r5, #1
20009308:	d00b      	beq.n	20009322 <_strtol_l.part.0+0xce>
2000930a:	b104      	cbz	r4, 2000930e <_strtol_l.part.0+0xba>
2000930c:	4240      	negs	r0, r0
2000930e:	b112      	cbz	r2, 20009316 <_strtol_l.part.0+0xc2>
20009310:	2d00      	cmp	r5, #0
20009312:	d157      	bne.n	200093c4 <_strtol_l.part.0+0x170>
20009314:	6011      	str	r1, [r2, #0]
20009316:	e8bd 8ff0 	ldmia.w	sp!, {r4, r5, r6, r7, r8, r9, sl, fp, pc}
2000931a:	fb08 c000 	mla	r0, r8, r0, ip
2000931e:	2501      	movs	r5, #1
20009320:	e7dc      	b.n	200092dc <_strtol_l.part.0+0x88>
20009322:	2322      	movs	r3, #34	@ 0x22
20009324:	f8c9 3000 	str.w	r3, [r9]
20009328:	2a00      	cmp	r2, #0
2000932a:	d04d      	beq.n	200093c8 <_strtol_l.part.0+0x174>
2000932c:	f10e 31ff 	add.w	r1, lr, #4294967295
20009330:	4650      	mov	r0, sl
20009332:	e7ef      	b.n	20009314 <_strtol_l.part.0+0xc0>
20009334:	f89e b000 	ldrb.w	fp, [lr]
20009338:	f105 0e02 	add.w	lr, r5, #2
2000933c:	b967      	cbnz	r7, 20009358 <_strtol_l.part.0+0x104>
2000933e:	f1bb 0f30 	cmp.w	fp, #48	@ 0x30
20009342:	d044      	beq.n	200093ce <_strtol_l.part.0+0x17a>
20009344:	2b00      	cmp	r3, #0
20009346:	d150      	bne.n	200093ea <_strtol_l.part.0+0x196>
20009348:	230a      	movs	r3, #10
2000934a:	4e33      	ldr	r6, [pc, #204]	@ (20009418 <_strtol_l.part.0+0x1c4>)
2000934c:	2708      	movs	r7, #8
2000934e:	2401      	movs	r4, #1
20009350:	4698      	mov	r8, r3
20009352:	f04f 4a00 	mov.w	sl, #2147483648	@ 0x80000000
20009356:	e7b1      	b.n	200092bc <_strtol_l.part.0+0x68>
20009358:	f04f 4a00 	mov.w	sl, #2147483648	@ 0x80000000
2000935c:	4698      	mov	r8, r3
2000935e:	2401      	movs	r4, #1
20009360:	fbba f6f3 	udiv	r6, sl, r3
20009364:	fb03 f706 	mul.w	r7, r3, r6
20009368:	ebaa 0707 	sub.w	r7, sl, r7
2000936c:	e7a6      	b.n	200092bc <_strtol_l.part.0+0x68>
2000936e:	f1bb 0f30 	cmp.w	fp, #48	@ 0x30
20009372:	d189      	bne.n	20009288 <_strtol_l.part.0+0x34>
20009374:	78a8      	ldrb	r0, [r5, #2]
20009376:	f000 00df 	and.w	r0, r0, #223	@ 0xdf
2000937a:	2858      	cmp	r0, #88	@ 0x58
2000937c:	d11e      	bne.n	200093bc <_strtol_l.part.0+0x168>
2000937e:	2310      	movs	r3, #16
20009380:	f895 b003 	ldrb.w	fp, [r5, #3]
20009384:	f105 0e04 	add.w	lr, r5, #4
20009388:	4698      	mov	r8, r3
2000938a:	f06f 4700 	mvn.w	r7, #2147483648	@ 0x80000000
2000938e:	fbb7 f6f8 	udiv	r6, r7, r8
20009392:	fb08 7716 	mls	r7, r8, r6, r7
20009396:	e77f      	b.n	20009298 <_strtol_l.part.0+0x44>
20009398:	230a      	movs	r3, #10
2000939a:	4e1f      	ldr	r6, [pc, #124]	@ (20009418 <_strtol_l.part.0+0x1c4>)
2000939c:	2707      	movs	r7, #7
2000939e:	4698      	mov	r8, r3
200093a0:	e77a      	b.n	20009298 <_strtol_l.part.0+0x44>
200093a2:	f89e 0000 	ldrb.w	r0, [lr]
200093a6:	f000 00df 	and.w	r0, r0, #223	@ 0xdf
200093aa:	2858      	cmp	r0, #88	@ 0x58
200093ac:	d106      	bne.n	200093bc <_strtol_l.part.0+0x168>
200093ae:	2310      	movs	r3, #16
200093b0:	f89e b001 	ldrb.w	fp, [lr, #1]
200093b4:	f105 0e03 	add.w	lr, r5, #3
200093b8:	4698      	mov	r8, r3
200093ba:	e7e6      	b.n	2000938a <_strtol_l.part.0+0x136>
200093bc:	bb23      	cbnz	r3, 20009408 <_strtol_l.part.0+0x1b4>
200093be:	2308      	movs	r3, #8
200093c0:	4698      	mov	r8, r3
200093c2:	e7e2      	b.n	2000938a <_strtol_l.part.0+0x136>
200093c4:	4682      	mov	sl, r0
200093c6:	e7b1      	b.n	2000932c <_strtol_l.part.0+0xd8>
200093c8:	4650      	mov	r0, sl
200093ca:	e8bd 8ff0 	ldmia.w	sp!, {r4, r5, r6, r7, r8, r9, sl, fp, pc}
200093ce:	78a8      	ldrb	r0, [r5, #2]
200093d0:	f000 00df 	and.w	r0, r0, #223	@ 0xdf
200093d4:	2858      	cmp	r0, #88	@ 0x58
200093d6:	d010      	beq.n	200093fa <_strtol_l.part.0+0x1a6>
200093d8:	b1cb      	cbz	r3, 2000940e <_strtol_l.part.0+0x1ba>
200093da:	2310      	movs	r3, #16
200093dc:	4698      	mov	r8, r3
200093de:	f04f 4a00 	mov.w	sl, #2147483648	@ 0x80000000
200093e2:	2401      	movs	r4, #1
200093e4:	fbba f6f8 	udiv	r6, sl, r8
200093e8:	e768      	b.n	200092bc <_strtol_l.part.0+0x68>
200093ea:	2310      	movs	r3, #16
200093ec:	f04f 6600 	mov.w	r6, #134217728	@ 0x8000000
200093f0:	2401      	movs	r4, #1
200093f2:	f04f 4a00 	mov.w	sl, #2147483648	@ 0x80000000
200093f6:	4698      	mov	r8, r3
200093f8:	e760      	b.n	200092bc <_strtol_l.part.0+0x68>
200093fa:	2310      	movs	r3, #16
200093fc:	f895 b003 	ldrb.w	fp, [r5, #3]
20009400:	f105 0e04 	add.w	lr, r5, #4
20009404:	4698      	mov	r8, r3
20009406:	e7ea      	b.n	200093de <_strtol_l.part.0+0x18a>
20009408:	2310      	movs	r3, #16
2000940a:	4698      	mov	r8, r3
2000940c:	e7bd      	b.n	2000938a <_strtol_l.part.0+0x136>
2000940e:	2308      	movs	r3, #8
20009410:	4698      	mov	r8, r3
20009412:	e7e4      	b.n	200093de <_strtol_l.part.0+0x18a>
20009414:	2000f685 	.word	0x2000f685
20009418:	0ccccccc 	.word	0x0ccccccc

2000941c <strtol>:
2000941c:	2a24      	cmp	r2, #36	@ 0x24
2000941e:	4613      	mov	r3, r2
20009420:	b510      	push	{r4, lr}
20009422:	d809      	bhi.n	20009438 <strtol+0x1c>
20009424:	2a01      	cmp	r2, #1
20009426:	d007      	beq.n	20009438 <strtol+0x1c>
20009428:	4c06      	ldr	r4, [pc, #24]	@ (20009444 <strtol+0x28>)
2000942a:	460a      	mov	r2, r1
2000942c:	4601      	mov	r1, r0
2000942e:	6820      	ldr	r0, [r4, #0]
20009430:	e8bd 4010 	ldmia.w	sp!, {r4, lr}
20009434:	f7ff bf0e 	b.w	20009254 <_strtol_l.part.0>
20009438:	f000 f93a 	bl	200096b0 <__errno>
2000943c:	2316      	movs	r3, #22
2000943e:	6003      	str	r3, [r0, #0]
20009440:	2000      	movs	r0, #0
20009442:	bd10      	pop	{r4, pc}
20009444:	20010280 	.word	0x20010280

20009448 <vsprintf>:
20009448:	b570      	push	{r4, r5, r6, lr}
2000944a:	4613      	mov	r3, r2
2000944c:	b09a      	sub	sp, #104	@ 0x68
2000944e:	460a      	mov	r2, r1
20009450:	f06f 4100 	mvn.w	r1, #2147483648	@ 0x80000000
20009454:	4e08      	ldr	r6, [pc, #32]	@ (20009478 <vsprintf+0x30>)
20009456:	4604      	mov	r4, r0
20009458:	9102      	str	r1, [sp, #8]
2000945a:	2500      	movs	r5, #0
2000945c:	9105      	str	r1, [sp, #20]
2000945e:	4907      	ldr	r1, [pc, #28]	@ (2000947c <vsprintf+0x34>)
20009460:	6830      	ldr	r0, [r6, #0]
20009462:	9103      	str	r1, [sp, #12]
20009464:	4669      	mov	r1, sp
20009466:	9519      	str	r5, [sp, #100]	@ 0x64
20009468:	9400      	str	r4, [sp, #0]
2000946a:	9404      	str	r4, [sp, #16]
2000946c:	f000 fb2c 	bl	20009ac8 <_svfprintf_r>
20009470:	9b00      	ldr	r3, [sp, #0]
20009472:	701d      	strb	r5, [r3, #0]
20009474:	b01a      	add	sp, #104	@ 0x68
20009476:	bd70      	pop	{r4, r5, r6, pc}
20009478:	20010280 	.word	0x20010280
2000947c:	ffff0208 	.word	0xffff0208

20009480 <memmove>:
20009480:	4288      	cmp	r0, r1
20009482:	d90d      	bls.n	200094a0 <memmove+0x20>
20009484:	188b      	adds	r3, r1, r2
20009486:	4283      	cmp	r3, r0
20009488:	d90a      	bls.n	200094a0 <memmove+0x20>
2000948a:	eb00 0c02 	add.w	ip, r0, r2
2000948e:	b35a      	cbz	r2, 200094e8 <memmove+0x68>
20009490:	4662      	mov	r2, ip
20009492:	f813 cd01 	ldrb.w	ip, [r3, #-1]!
20009496:	4299      	cmp	r1, r3
20009498:	f802 cd01 	strb.w	ip, [r2, #-1]!
2000949c:	d1f9      	bne.n	20009492 <memmove+0x12>
2000949e:	4770      	bx	lr
200094a0:	2a0f      	cmp	r2, #15
200094a2:	d80d      	bhi.n	200094c0 <memmove+0x40>
200094a4:	f102 3cff 	add.w	ip, r2, #4294967295
200094a8:	b1f2      	cbz	r2, 200094e8 <memmove+0x68>
200094aa:	f10c 0c01 	add.w	ip, ip, #1
200094ae:	1e43      	subs	r3, r0, #1
200094b0:	448c      	add	ip, r1
200094b2:	f811 2b01 	ldrb.w	r2, [r1], #1
200094b6:	4561      	cmp	r1, ip
200094b8:	f803 2f01 	strb.w	r2, [r3, #1]!
200094bc:	d1f9      	bne.n	200094b2 <memmove+0x32>
200094be:	4770      	bx	lr
200094c0:	ea40 0301 	orr.w	r3, r0, r1
200094c4:	079b      	lsls	r3, r3, #30
200094c6:	b5f0      	push	{r4, r5, r6, r7, lr}
200094c8:	460c      	mov	r4, r1
200094ca:	d00e      	beq.n	200094ea <memmove+0x6a>
200094cc:	f102 3cff 	add.w	ip, r2, #4294967295
200094d0:	4603      	mov	r3, r0
200094d2:	f10c 0c01 	add.w	ip, ip, #1
200094d6:	3b01      	subs	r3, #1
200094d8:	448c      	add	ip, r1
200094da:	f811 2b01 	ldrb.w	r2, [r1], #1
200094de:	4561      	cmp	r1, ip
200094e0:	f803 2f01 	strb.w	r2, [r3, #1]!
200094e4:	d1f9      	bne.n	200094da <memmove+0x5a>
200094e6:	bdf0      	pop	{r4, r5, r6, r7, pc}
200094e8:	4770      	bx	lr
200094ea:	f1a2 0510 	sub.w	r5, r2, #16
200094ee:	f101 0e20 	add.w	lr, r1, #32
200094f2:	f101 0310 	add.w	r3, r1, #16
200094f6:	f100 0c10 	add.w	ip, r0, #16
200094fa:	f025 050f 	bic.w	r5, r5, #15
200094fe:	44ae      	add	lr, r5
20009500:	f853 6c10 	ldr.w	r6, [r3, #-16]
20009504:	3310      	adds	r3, #16
20009506:	f10c 0c10 	add.w	ip, ip, #16
2000950a:	f84c 6c20 	str.w	r6, [ip, #-32]
2000950e:	f853 6c1c 	ldr.w	r6, [r3, #-28]
20009512:	f84c 6c1c 	str.w	r6, [ip, #-28]
20009516:	f853 6c18 	ldr.w	r6, [r3, #-24]
2000951a:	4573      	cmp	r3, lr
2000951c:	f84c 6c18 	str.w	r6, [ip, #-24]
20009520:	f853 6c14 	ldr.w	r6, [r3, #-20]
20009524:	f84c 6c14 	str.w	r6, [ip, #-20]
20009528:	d1ea      	bne.n	20009500 <memmove+0x80>
2000952a:	eb01 0c05 	add.w	ip, r1, r5
2000952e:	f012 0f0c 	tst.w	r2, #12
20009532:	4405      	add	r5, r0
20009534:	f10c 0110 	add.w	r1, ip, #16
20009538:	f105 0310 	add.w	r3, r5, #16
2000953c:	f002 050f 	and.w	r5, r2, #15
20009540:	460e      	mov	r6, r1
20009542:	d018      	beq.n	20009576 <memmove+0xf6>
20009544:	3d04      	subs	r5, #4
20009546:	eba0 0e04 	sub.w	lr, r0, r4
2000954a:	f025 0403 	bic.w	r4, r5, #3
2000954e:	44a4      	add	ip, r4
20009550:	f10c 0c14 	add.w	ip, ip, #20
20009554:	680f      	ldr	r7, [r1, #0]
20009556:	eb01 050e 	add.w	r5, r1, lr
2000955a:	3104      	adds	r1, #4
2000955c:	602f      	str	r7, [r5, #0]
2000955e:	4561      	cmp	r1, ip
20009560:	d1f8      	bne.n	20009554 <memmove+0xd4>
20009562:	3404      	adds	r4, #4
20009564:	f002 0203 	and.w	r2, r2, #3
20009568:	19a1      	adds	r1, r4, r6
2000956a:	4423      	add	r3, r4
2000956c:	f102 3cff 	add.w	ip, r2, #4294967295
20009570:	2a00      	cmp	r2, #0
20009572:	d1ae      	bne.n	200094d2 <memmove+0x52>
20009574:	bdf0      	pop	{r4, r5, r6, r7, pc}
20009576:	462a      	mov	r2, r5
20009578:	e7f8      	b.n	2000956c <memmove+0xec>
2000957a:	bf00      	nop

2000957c <memset>:
2000957c:	0783      	lsls	r3, r0, #30
2000957e:	b530      	push	{r4, r5, lr}
20009580:	d046      	beq.n	20009610 <memset+0x94>
20009582:	1884      	adds	r4, r0, r2
20009584:	4684      	mov	ip, r0
20009586:	e004      	b.n	20009592 <memset+0x16>
20009588:	f803 1b01 	strb.w	r1, [r3], #1
2000958c:	079d      	lsls	r5, r3, #30
2000958e:	d004      	beq.n	2000959a <memset+0x1e>
20009590:	469c      	mov	ip, r3
20009592:	45a4      	cmp	ip, r4
20009594:	4663      	mov	r3, ip
20009596:	d1f7      	bne.n	20009588 <memset+0xc>
20009598:	bd30      	pop	{r4, r5, pc}
2000959a:	3a01      	subs	r2, #1
2000959c:	4402      	add	r2, r0
2000959e:	eba2 020c 	sub.w	r2, r2, ip
200095a2:	2a03      	cmp	r2, #3
200095a4:	d929      	bls.n	200095fa <memset+0x7e>
200095a6:	b2cc      	uxtb	r4, r1
200095a8:	2a0f      	cmp	r2, #15
200095aa:	eb04 2404 	add.w	r4, r4, r4, lsl #8
200095ae:	eb04 4404 	add.w	r4, r4, r4, lsl #16
200095b2:	d92f      	bls.n	20009614 <memset+0x98>
200095b4:	f1a2 0c10 	sub.w	ip, r2, #16
200095b8:	f103 0510 	add.w	r5, r3, #16
200095bc:	f02c 0c0f 	bic.w	ip, ip, #15
200095c0:	44ac      	add	ip, r5
200095c2:	e9c3 4400 	strd	r4, r4, [r3]
200095c6:	e9c3 4402 	strd	r4, r4, [r3, #8]
200095ca:	3310      	adds	r3, #16
200095cc:	4563      	cmp	r3, ip
200095ce:	d1f8      	bne.n	200095c2 <memset+0x46>
200095d0:	f012 0f0c 	tst.w	r2, #12
200095d4:	f002 0e0f 	and.w	lr, r2, #15
200095d8:	d018      	beq.n	2000960c <memset+0x90>
200095da:	f02e 0c03 	bic.w	ip, lr, #3
200095de:	f1ae 0504 	sub.w	r5, lr, #4
200095e2:	461a      	mov	r2, r3
200095e4:	449c      	add	ip, r3
200095e6:	f842 4b04 	str.w	r4, [r2], #4
200095ea:	4562      	cmp	r2, ip
200095ec:	d1fb      	bne.n	200095e6 <memset+0x6a>
200095ee:	f025 0403 	bic.w	r4, r5, #3
200095f2:	3304      	adds	r3, #4
200095f4:	f00e 0203 	and.w	r2, lr, #3
200095f8:	4423      	add	r3, r4
200095fa:	2a00      	cmp	r2, #0
200095fc:	d0cc      	beq.n	20009598 <memset+0x1c>
200095fe:	b2c9      	uxtb	r1, r1
20009600:	441a      	add	r2, r3
20009602:	f803 1b01 	strb.w	r1, [r3], #1
20009606:	4293      	cmp	r3, r2
20009608:	d1fb      	bne.n	20009602 <memset+0x86>
2000960a:	bd30      	pop	{r4, r5, pc}
2000960c:	4672      	mov	r2, lr
2000960e:	e7f4      	b.n	200095fa <memset+0x7e>
20009610:	4603      	mov	r3, r0
20009612:	e7c6      	b.n	200095a2 <memset+0x26>
20009614:	4696      	mov	lr, r2
20009616:	e7e0      	b.n	200095da <memset+0x5e>

20009618 <strtok>:
20009618:	4a02      	ldr	r2, [pc, #8]	@ (20009624 <strtok+0xc>)
2000961a:	2301      	movs	r3, #1
2000961c:	6812      	ldr	r2, [r2, #0]
2000961e:	3250      	adds	r2, #80	@ 0x50
20009620:	f000 b802 	b.w	20009628 <__strtok_r>
20009624:	20010280 	.word	0x20010280

20009628 <__strtok_r>:
20009628:	b318      	cbz	r0, 20009672 <__strtok_r+0x4a>
2000962a:	b570      	push	{r4, r5, r6, lr}
2000962c:	4686      	mov	lr, r0
2000962e:	468c      	mov	ip, r1
20009630:	f81e 5b01 	ldrb.w	r5, [lr], #1
20009634:	e001      	b.n	2000963a <__strtok_r+0x12>
20009636:	42a5      	cmp	r5, r4
20009638:	d014      	beq.n	20009664 <__strtok_r+0x3c>
2000963a:	f81c 4b01 	ldrb.w	r4, [ip], #1
2000963e:	2c00      	cmp	r4, #0
20009640:	d1f9      	bne.n	20009636 <__strtok_r+0xe>
20009642:	b1dd      	cbz	r5, 2000967c <__strtok_r+0x54>
20009644:	4676      	mov	r6, lr
20009646:	460c      	mov	r4, r1
20009648:	f816 5b01 	ldrb.w	r5, [r6], #1
2000964c:	e000      	b.n	20009650 <__strtok_r+0x28>
2000964e:	b163      	cbz	r3, 2000966a <__strtok_r+0x42>
20009650:	f814 3b01 	ldrb.w	r3, [r4], #1
20009654:	429d      	cmp	r5, r3
20009656:	d1fa      	bne.n	2000964e <__strtok_r+0x26>
20009658:	b14d      	cbz	r5, 2000966e <__strtok_r+0x46>
2000965a:	2300      	movs	r3, #0
2000965c:	f88e 3000 	strb.w	r3, [lr]
20009660:	6016      	str	r6, [r2, #0]
20009662:	bd70      	pop	{r4, r5, r6, pc}
20009664:	b16b      	cbz	r3, 20009682 <__strtok_r+0x5a>
20009666:	4670      	mov	r0, lr
20009668:	e7e0      	b.n	2000962c <__strtok_r+0x4>
2000966a:	46b6      	mov	lr, r6
2000966c:	e7ea      	b.n	20009644 <__strtok_r+0x1c>
2000966e:	462e      	mov	r6, r5
20009670:	e7f6      	b.n	20009660 <__strtok_r+0x38>
20009672:	6810      	ldr	r0, [r2, #0]
20009674:	2800      	cmp	r0, #0
20009676:	d1d8      	bne.n	2000962a <__strtok_r+0x2>
20009678:	2000      	movs	r0, #0
2000967a:	4770      	bx	lr
2000967c:	2000      	movs	r0, #0
2000967e:	6015      	str	r5, [r2, #0]
20009680:	bd70      	pop	{r4, r5, r6, pc}
20009682:	f8c2 e000 	str.w	lr, [r2]
20009686:	7003      	strb	r3, [r0, #0]
20009688:	bd70      	pop	{r4, r5, r6, pc}
2000968a:	bf00      	nop

2000968c <_sbrk_r>:
2000968c:	b538      	push	{r3, r4, r5, lr}
2000968e:	2200      	movs	r2, #0
20009690:	4d06      	ldr	r5, [pc, #24]	@ (200096ac <_sbrk_r+0x20>)
20009692:	4604      	mov	r4, r0
20009694:	4608      	mov	r0, r1
20009696:	602a      	str	r2, [r5, #0]
20009698:	f7fa feaa 	bl	200043f0 <_sbrk>
2000969c:	1c43      	adds	r3, r0, #1
2000969e:	d000      	beq.n	200096a2 <_sbrk_r+0x16>
200096a0:	bd38      	pop	{r3, r4, r5, pc}
200096a2:	682b      	ldr	r3, [r5, #0]
200096a4:	2b00      	cmp	r3, #0
200096a6:	d0fb      	beq.n	200096a0 <_sbrk_r+0x14>
200096a8:	6023      	str	r3, [r4, #0]
200096aa:	bd38      	pop	{r3, r4, r5, pc}
200096ac:	20059c90 	.word	0x20059c90

200096b0 <__errno>:
200096b0:	4b01      	ldr	r3, [pc, #4]	@ (200096b8 <__errno+0x8>)
200096b2:	6818      	ldr	r0, [r3, #0]
200096b4:	4770      	bx	lr
200096b6:	bf00      	nop
200096b8:	20010280 	.word	0x20010280

200096bc <__retarget_lock_acquire_recursive>:
200096bc:	4770      	bx	lr
200096be:	bf00      	nop

200096c0 <__retarget_lock_release_recursive>:
200096c0:	4770      	bx	lr
200096c2:	bf00      	nop

200096c4 <sysconf>:
200096c4:	2808      	cmp	r0, #8
200096c6:	d102      	bne.n	200096ce <sysconf+0xa>
200096c8:	f44f 5080 	mov.w	r0, #4096	@ 0x1000
200096cc:	4770      	bx	lr
200096ce:	b508      	push	{r3, lr}
200096d0:	f7ff ffee 	bl	200096b0 <__errno>
200096d4:	2216      	movs	r2, #22
200096d6:	4603      	mov	r3, r0
200096d8:	f04f 30ff 	mov.w	r0, #4294967295
200096dc:	601a      	str	r2, [r3, #0]
200096de:	bd08      	pop	{r3, pc}

200096e0 <memcpy>:
200096e0:	4684      	mov	ip, r0
200096e2:	ea41 0300 	orr.w	r3, r1, r0
200096e6:	f013 0303 	ands.w	r3, r3, #3
200096ea:	d149      	bne.n	20009780 <memcpy+0xa0>
200096ec:	3a40      	subs	r2, #64	@ 0x40
200096ee:	d323      	bcc.n	20009738 <memcpy+0x58>
200096f0:	680b      	ldr	r3, [r1, #0]
200096f2:	6003      	str	r3, [r0, #0]
200096f4:	684b      	ldr	r3, [r1, #4]
200096f6:	6043      	str	r3, [r0, #4]
200096f8:	688b      	ldr	r3, [r1, #8]
200096fa:	6083      	str	r3, [r0, #8]
200096fc:	68cb      	ldr	r3, [r1, #12]
200096fe:	60c3      	str	r3, [r0, #12]
20009700:	690b      	ldr	r3, [r1, #16]
20009702:	6103      	str	r3, [r0, #16]
20009704:	694b      	ldr	r3, [r1, #20]
20009706:	6143      	str	r3, [r0, #20]
20009708:	698b      	ldr	r3, [r1, #24]
2000970a:	6183      	str	r3, [r0, #24]
2000970c:	69cb      	ldr	r3, [r1, #28]
2000970e:	61c3      	str	r3, [r0, #28]
20009710:	6a0b      	ldr	r3, [r1, #32]
20009712:	6203      	str	r3, [r0, #32]
20009714:	6a4b      	ldr	r3, [r1, #36]	@ 0x24
20009716:	6243      	str	r3, [r0, #36]	@ 0x24
20009718:	6a8b      	ldr	r3, [r1, #40]	@ 0x28
2000971a:	6283      	str	r3, [r0, #40]	@ 0x28
2000971c:	6acb      	ldr	r3, [r1, #44]	@ 0x2c
2000971e:	62c3      	str	r3, [r0, #44]	@ 0x2c
20009720:	6b0b      	ldr	r3, [r1, #48]	@ 0x30
20009722:	6303      	str	r3, [r0, #48]	@ 0x30
20009724:	6b4b      	ldr	r3, [r1, #52]	@ 0x34
20009726:	6343      	str	r3, [r0, #52]	@ 0x34
20009728:	6b8b      	ldr	r3, [r1, #56]	@ 0x38
2000972a:	6383      	str	r3, [r0, #56]	@ 0x38
2000972c:	6bcb      	ldr	r3, [r1, #60]	@ 0x3c
2000972e:	63c3      	str	r3, [r0, #60]	@ 0x3c
20009730:	3040      	adds	r0, #64	@ 0x40
20009732:	3140      	adds	r1, #64	@ 0x40
20009734:	3a40      	subs	r2, #64	@ 0x40
20009736:	d2db      	bcs.n	200096f0 <memcpy+0x10>
20009738:	3230      	adds	r2, #48	@ 0x30
2000973a:	d30b      	bcc.n	20009754 <memcpy+0x74>
2000973c:	680b      	ldr	r3, [r1, #0]
2000973e:	6003      	str	r3, [r0, #0]
20009740:	684b      	ldr	r3, [r1, #4]
20009742:	6043      	str	r3, [r0, #4]
20009744:	688b      	ldr	r3, [r1, #8]
20009746:	6083      	str	r3, [r0, #8]
20009748:	68cb      	ldr	r3, [r1, #12]
2000974a:	60c3      	str	r3, [r0, #12]
2000974c:	3010      	adds	r0, #16
2000974e:	3110      	adds	r1, #16
20009750:	3a10      	subs	r2, #16
20009752:	d2f3      	bcs.n	2000973c <memcpy+0x5c>
20009754:	320c      	adds	r2, #12
20009756:	d305      	bcc.n	20009764 <memcpy+0x84>
20009758:	f851 3b04 	ldr.w	r3, [r1], #4
2000975c:	f840 3b04 	str.w	r3, [r0], #4
20009760:	3a04      	subs	r2, #4
20009762:	d2f9      	bcs.n	20009758 <memcpy+0x78>
20009764:	3204      	adds	r2, #4
20009766:	d008      	beq.n	2000977a <memcpy+0x9a>
20009768:	07d2      	lsls	r2, r2, #31
2000976a:	bf1c      	itt	ne
2000976c:	f811 3b01 	ldrbne.w	r3, [r1], #1
20009770:	f800 3b01 	strbne.w	r3, [r0], #1
20009774:	d301      	bcc.n	2000977a <memcpy+0x9a>
20009776:	880b      	ldrh	r3, [r1, #0]
20009778:	8003      	strh	r3, [r0, #0]
2000977a:	4660      	mov	r0, ip
2000977c:	4770      	bx	lr
2000977e:	bf00      	nop
20009780:	2a08      	cmp	r2, #8
20009782:	d313      	bcc.n	200097ac <memcpy+0xcc>
20009784:	078b      	lsls	r3, r1, #30
20009786:	d0b1      	beq.n	200096ec <memcpy+0xc>
20009788:	f010 0303 	ands.w	r3, r0, #3
2000978c:	d0ae      	beq.n	200096ec <memcpy+0xc>
2000978e:	f1c3 0304 	rsb	r3, r3, #4
20009792:	1ad2      	subs	r2, r2, r3
20009794:	07db      	lsls	r3, r3, #31
20009796:	bf1c      	itt	ne
20009798:	f811 3b01 	ldrbne.w	r3, [r1], #1
2000979c:	f800 3b01 	strbne.w	r3, [r0], #1
200097a0:	d3a4      	bcc.n	200096ec <memcpy+0xc>
200097a2:	f831 3b02 	ldrh.w	r3, [r1], #2
200097a6:	f820 3b02 	strh.w	r3, [r0], #2
200097aa:	e79f      	b.n	200096ec <memcpy+0xc>
200097ac:	3a04      	subs	r2, #4
200097ae:	d3d9      	bcc.n	20009764 <memcpy+0x84>
200097b0:	3a01      	subs	r2, #1
200097b2:	f811 3b01 	ldrb.w	r3, [r1], #1
200097b6:	f800 3b01 	strb.w	r3, [r0], #1
200097ba:	d2f9      	bcs.n	200097b0 <memcpy+0xd0>
200097bc:	780b      	ldrb	r3, [r1, #0]
200097be:	7003      	strb	r3, [r0, #0]
200097c0:	784b      	ldrb	r3, [r1, #1]
200097c2:	7043      	strb	r3, [r0, #1]
200097c4:	788b      	ldrb	r3, [r1, #2]
200097c6:	7083      	strb	r3, [r0, #2]
200097c8:	4660      	mov	r0, ip
200097ca:	4770      	bx	lr

200097cc <strlen>:
200097cc:	f020 0103 	bic.w	r1, r0, #3
200097d0:	f010 0003 	ands.w	r0, r0, #3
200097d4:	f1c0 0000 	rsb	r0, r0, #0
200097d8:	f851 3b04 	ldr.w	r3, [r1], #4
200097dc:	f100 0c04 	add.w	ip, r0, #4
200097e0:	ea4f 0ccc 	mov.w	ip, ip, lsl #3
200097e4:	f06f 0200 	mvn.w	r2, #0
200097e8:	bf1c      	itt	ne
200097ea:	fa22 f20c 	lsrne.w	r2, r2, ip
200097ee:	4313      	orrne	r3, r2
200097f0:	f04f 0c01 	mov.w	ip, #1
200097f4:	ea4c 2c0c 	orr.w	ip, ip, ip, lsl #8
200097f8:	ea4c 4c0c 	orr.w	ip, ip, ip, lsl #16
200097fc:	eba3 020c 	sub.w	r2, r3, ip
20009800:	ea22 0203 	bic.w	r2, r2, r3
20009804:	ea12 12cc 	ands.w	r2, r2, ip, lsl #7
20009808:	bf04      	itt	eq
2000980a:	f851 3b04 	ldreq.w	r3, [r1], #4
2000980e:	3004      	addeq	r0, #4
20009810:	d0f4      	beq.n	200097fc <strlen+0x30>
20009812:	f1c2 0100 	rsb	r1, r2, #0
20009816:	ea02 0201 	and.w	r2, r2, r1
2000981a:	fab2 f282 	clz	r2, r2
2000981e:	f1c2 021f 	rsb	r2, r2, #31
20009822:	eb00 00d2 	add.w	r0, r0, r2, lsr #3
20009826:	4770      	bx	lr

20009828 <_malloc_trim_r>:
20009828:	e92d 43f8 	stmdb	sp!, {r3, r4, r5, r6, r7, r8, r9, lr}
2000982c:	4606      	mov	r6, r0
2000982e:	f8df 80ac 	ldr.w	r8, [pc, #172]	@ 200098dc <_malloc_trim_r+0xb4>
20009832:	2008      	movs	r0, #8
20009834:	4689      	mov	r9, r1
20009836:	f7ff ff45 	bl	200096c4 <sysconf>
2000983a:	4605      	mov	r5, r0
2000983c:	4630      	mov	r0, r6
2000983e:	f7ff fb43 	bl	20008ec8 <__malloc_lock>
20009842:	f8d8 3008 	ldr.w	r3, [r8, #8]
20009846:	685f      	ldr	r7, [r3, #4]
20009848:	f027 0703 	bic.w	r7, r7, #3
2000984c:	f1a7 0411 	sub.w	r4, r7, #17
20009850:	eba4 0409 	sub.w	r4, r4, r9
20009854:	442c      	add	r4, r5
20009856:	fbb4 f4f5 	udiv	r4, r4, r5
2000985a:	3c01      	subs	r4, #1
2000985c:	fb05 f404 	mul.w	r4, r5, r4
20009860:	42a5      	cmp	r5, r4
20009862:	dc08      	bgt.n	20009876 <_malloc_trim_r+0x4e>
20009864:	2100      	movs	r1, #0
20009866:	4630      	mov	r0, r6
20009868:	f7ff ff10 	bl	2000968c <_sbrk_r>
2000986c:	f8d8 3008 	ldr.w	r3, [r8, #8]
20009870:	443b      	add	r3, r7
20009872:	4298      	cmp	r0, r3
20009874:	d005      	beq.n	20009882 <_malloc_trim_r+0x5a>
20009876:	4630      	mov	r0, r6
20009878:	f7ff fb2c 	bl	20008ed4 <__malloc_unlock>
2000987c:	2000      	movs	r0, #0
2000987e:	e8bd 83f8 	ldmia.w	sp!, {r3, r4, r5, r6, r7, r8, r9, pc}
20009882:	4261      	negs	r1, r4
20009884:	4630      	mov	r0, r6
20009886:	f7ff ff01 	bl	2000968c <_sbrk_r>
2000988a:	3001      	adds	r0, #1
2000988c:	d00f      	beq.n	200098ae <_malloc_trim_r+0x86>
2000988e:	1b3f      	subs	r7, r7, r4
20009890:	4a10      	ldr	r2, [pc, #64]	@ (200098d4 <_malloc_trim_r+0xac>)
20009892:	f8d8 3008 	ldr.w	r3, [r8, #8]
20009896:	4630      	mov	r0, r6
20009898:	f047 0701 	orr.w	r7, r7, #1
2000989c:	605f      	str	r7, [r3, #4]
2000989e:	6813      	ldr	r3, [r2, #0]
200098a0:	1b1b      	subs	r3, r3, r4
200098a2:	6013      	str	r3, [r2, #0]
200098a4:	f7ff fb16 	bl	20008ed4 <__malloc_unlock>
200098a8:	2001      	movs	r0, #1
200098aa:	e8bd 83f8 	ldmia.w	sp!, {r3, r4, r5, r6, r7, r8, r9, pc}
200098ae:	2100      	movs	r1, #0
200098b0:	4630      	mov	r0, r6
200098b2:	f7ff feeb 	bl	2000968c <_sbrk_r>
200098b6:	f8d8 2008 	ldr.w	r2, [r8, #8]
200098ba:	1a83      	subs	r3, r0, r2
200098bc:	2b0f      	cmp	r3, #15
200098be:	ddda      	ble.n	20009876 <_malloc_trim_r+0x4e>
200098c0:	f043 0301 	orr.w	r3, r3, #1
200098c4:	4903      	ldr	r1, [pc, #12]	@ (200098d4 <_malloc_trim_r+0xac>)
200098c6:	6053      	str	r3, [r2, #4]
200098c8:	4b03      	ldr	r3, [pc, #12]	@ (200098d8 <_malloc_trim_r+0xb0>)
200098ca:	681b      	ldr	r3, [r3, #0]
200098cc:	1ac0      	subs	r0, r0, r3
200098ce:	6008      	str	r0, [r1, #0]
200098d0:	e7d1      	b.n	20009876 <_malloc_trim_r+0x4e>
200098d2:	bf00      	nop
200098d4:	200107e8 	.word	0x200107e8
200098d8:	2000fe70 	.word	0x2000fe70
200098dc:	2000fe78 	.word	0x2000fe78

200098e0 <_free_r>:
200098e0:	2900      	cmp	r1, #0
200098e2:	d05a      	beq.n	2000999a <_free_r+0xba>
200098e4:	b5f8      	push	{r3, r4, r5, r6, r7, lr}
200098e6:	460c      	mov	r4, r1
200098e8:	4607      	mov	r7, r0
200098ea:	f7ff faed 	bl	20008ec8 <__malloc_lock>
200098ee:	4d73      	ldr	r5, [pc, #460]	@ (20009abc <_free_r+0x1dc>)
200098f0:	f854 cc04 	ldr.w	ip, [r4, #-4]
200098f4:	f1a4 0208 	sub.w	r2, r4, #8
200098f8:	68a8      	ldr	r0, [r5, #8]
200098fa:	f02c 0301 	bic.w	r3, ip, #1
200098fe:	f00c 0e01 	and.w	lr, ip, #1
20009902:	18d1      	adds	r1, r2, r3
20009904:	684e      	ldr	r6, [r1, #4]
20009906:	4288      	cmp	r0, r1
20009908:	f026 0603 	bic.w	r6, r6, #3
2000990c:	d07c      	beq.n	20009a08 <_free_r+0x128>
2000990e:	1988      	adds	r0, r1, r6
20009910:	604e      	str	r6, [r1, #4]
20009912:	6840      	ldr	r0, [r0, #4]
20009914:	f000 0001 	and.w	r0, r0, #1
20009918:	f1be 0f00 	cmp.w	lr, #0
2000991c:	d12e      	bne.n	2000997c <_free_r+0x9c>
2000991e:	f854 4c08 	ldr.w	r4, [r4, #-8]
20009922:	f105 0c08 	add.w	ip, r5, #8
20009926:	1b12      	subs	r2, r2, r4
20009928:	4423      	add	r3, r4
2000992a:	6894      	ldr	r4, [r2, #8]
2000992c:	4564      	cmp	r4, ip
2000992e:	d060      	beq.n	200099f2 <_free_r+0x112>
20009930:	f8d2 e00c 	ldr.w	lr, [r2, #12]
20009934:	f8c4 e00c 	str.w	lr, [r4, #12]
20009938:	f8ce 4008 	str.w	r4, [lr, #8]
2000993c:	2800      	cmp	r0, #0
2000993e:	d07d      	beq.n	20009a3c <_free_r+0x15c>
20009940:	f043 0001 	orr.w	r0, r3, #1
20009944:	6050      	str	r0, [r2, #4]
20009946:	600b      	str	r3, [r1, #0]
20009948:	f5b3 7f00 	cmp.w	r3, #512	@ 0x200
2000994c:	d22e      	bcs.n	200099ac <_free_r+0xcc>
2000994e:	0958      	lsrs	r0, r3, #5
20009950:	08d9      	lsrs	r1, r3, #3
20009952:	2301      	movs	r3, #1
20009954:	4083      	lsls	r3, r0
20009956:	6868      	ldr	r0, [r5, #4]
20009958:	3101      	adds	r1, #1
2000995a:	4303      	orrs	r3, r0
2000995c:	f855 0031 	ldr.w	r0, [r5, r1, lsl #3]
20009960:	606b      	str	r3, [r5, #4]
20009962:	eb05 03c1 	add.w	r3, r5, r1, lsl #3
20009966:	3b08      	subs	r3, #8
20009968:	e9c2 0302 	strd	r0, r3, [r2, #8]
2000996c:	f845 2031 	str.w	r2, [r5, r1, lsl #3]
20009970:	60c2      	str	r2, [r0, #12]
20009972:	4638      	mov	r0, r7
20009974:	e8bd 40f8 	ldmia.w	sp!, {r3, r4, r5, r6, r7, lr}
20009978:	f7ff baac 	b.w	20008ed4 <__malloc_unlock>
2000997c:	b970      	cbnz	r0, 2000999c <_free_r+0xbc>
2000997e:	4433      	add	r3, r6
20009980:	f105 0c08 	add.w	ip, r5, #8
20009984:	6888      	ldr	r0, [r1, #8]
20009986:	f043 0401 	orr.w	r4, r3, #1
2000998a:	4560      	cmp	r0, ip
2000998c:	d06e      	beq.n	20009a6c <_free_r+0x18c>
2000998e:	68c9      	ldr	r1, [r1, #12]
20009990:	60c1      	str	r1, [r0, #12]
20009992:	6088      	str	r0, [r1, #8]
20009994:	6054      	str	r4, [r2, #4]
20009996:	50d3      	str	r3, [r2, r3]
20009998:	e7d6      	b.n	20009948 <_free_r+0x68>
2000999a:	4770      	bx	lr
2000999c:	f04c 0101 	orr.w	r1, ip, #1
200099a0:	f5b3 7f00 	cmp.w	r3, #512	@ 0x200
200099a4:	f844 1c04 	str.w	r1, [r4, #-4]
200099a8:	50d3      	str	r3, [r2, r3]
200099aa:	d3d0      	bcc.n	2000994e <_free_r+0x6e>
200099ac:	f5b3 6f20 	cmp.w	r3, #2560	@ 0xa00
200099b0:	ea4f 2153 	mov.w	r1, r3, lsr #9
200099b4:	d244      	bcs.n	20009a40 <_free_r+0x160>
200099b6:	0999      	lsrs	r1, r3, #6
200099b8:	f101 0039 	add.w	r0, r1, #57	@ 0x39
200099bc:	f101 0438 	add.w	r4, r1, #56	@ 0x38
200099c0:	00c1      	lsls	r1, r0, #3
200099c2:	1868      	adds	r0, r5, r1
200099c4:	5869      	ldr	r1, [r5, r1]
200099c6:	3808      	subs	r0, #8
200099c8:	4288      	cmp	r0, r1
200099ca:	d103      	bne.n	200099d4 <_free_r+0xf4>
200099cc:	e055      	b.n	20009a7a <_free_r+0x19a>
200099ce:	6889      	ldr	r1, [r1, #8]
200099d0:	4288      	cmp	r0, r1
200099d2:	d004      	beq.n	200099de <_free_r+0xfe>
200099d4:	684c      	ldr	r4, [r1, #4]
200099d6:	f024 0403 	bic.w	r4, r4, #3
200099da:	429c      	cmp	r4, r3
200099dc:	d8f7      	bhi.n	200099ce <_free_r+0xee>
200099de:	68c8      	ldr	r0, [r1, #12]
200099e0:	e9c2 1002 	strd	r1, r0, [r2, #8]
200099e4:	6082      	str	r2, [r0, #8]
200099e6:	4638      	mov	r0, r7
200099e8:	60ca      	str	r2, [r1, #12]
200099ea:	e8bd 40f8 	ldmia.w	sp!, {r3, r4, r5, r6, r7, lr}
200099ee:	f7ff ba71 	b.w	20008ed4 <__malloc_unlock>
200099f2:	bb80      	cbnz	r0, 20009a56 <_free_r+0x176>
200099f4:	441e      	add	r6, r3
200099f6:	e9d1 1302 	ldrd	r1, r3, [r1, #8]
200099fa:	60cb      	str	r3, [r1, #12]
200099fc:	6099      	str	r1, [r3, #8]
200099fe:	f046 0301 	orr.w	r3, r6, #1
20009a02:	6053      	str	r3, [r2, #4]
20009a04:	5196      	str	r6, [r2, r6]
20009a06:	e7b4      	b.n	20009972 <_free_r+0x92>
20009a08:	441e      	add	r6, r3
20009a0a:	f1be 0f00 	cmp.w	lr, #0
20009a0e:	d107      	bne.n	20009a20 <_free_r+0x140>
20009a10:	f854 3c08 	ldr.w	r3, [r4, #-8]
20009a14:	1ad2      	subs	r2, r2, r3
20009a16:	441e      	add	r6, r3
20009a18:	e9d2 1302 	ldrd	r1, r3, [r2, #8]
20009a1c:	60cb      	str	r3, [r1, #12]
20009a1e:	6099      	str	r1, [r3, #8]
20009a20:	f046 0301 	orr.w	r3, r6, #1
20009a24:	6053      	str	r3, [r2, #4]
20009a26:	4b26      	ldr	r3, [pc, #152]	@ (20009ac0 <_free_r+0x1e0>)
20009a28:	60aa      	str	r2, [r5, #8]
20009a2a:	681b      	ldr	r3, [r3, #0]
20009a2c:	42b3      	cmp	r3, r6
20009a2e:	d8a0      	bhi.n	20009972 <_free_r+0x92>
20009a30:	4b24      	ldr	r3, [pc, #144]	@ (20009ac4 <_free_r+0x1e4>)
20009a32:	4638      	mov	r0, r7
20009a34:	6819      	ldr	r1, [r3, #0]
20009a36:	f7ff fef7 	bl	20009828 <_malloc_trim_r>
20009a3a:	e79a      	b.n	20009972 <_free_r+0x92>
20009a3c:	4433      	add	r3, r6
20009a3e:	e7a1      	b.n	20009984 <_free_r+0xa4>
20009a40:	2914      	cmp	r1, #20
20009a42:	d90d      	bls.n	20009a60 <_free_r+0x180>
20009a44:	2954      	cmp	r1, #84	@ 0x54
20009a46:	d81f      	bhi.n	20009a88 <_free_r+0x1a8>
20009a48:	0b19      	lsrs	r1, r3, #12
20009a4a:	f101 006f 	add.w	r0, r1, #111	@ 0x6f
20009a4e:	f101 046e 	add.w	r4, r1, #110	@ 0x6e
20009a52:	00c1      	lsls	r1, r0, #3
20009a54:	e7b5      	b.n	200099c2 <_free_r+0xe2>
20009a56:	f043 0001 	orr.w	r0, r3, #1
20009a5a:	6050      	str	r0, [r2, #4]
20009a5c:	600b      	str	r3, [r1, #0]
20009a5e:	e788      	b.n	20009972 <_free_r+0x92>
20009a60:	f101 005c 	add.w	r0, r1, #92	@ 0x5c
20009a64:	f101 045b 	add.w	r4, r1, #91	@ 0x5b
20009a68:	00c1      	lsls	r1, r0, #3
20009a6a:	e7aa      	b.n	200099c2 <_free_r+0xe2>
20009a6c:	e9c5 2204 	strd	r2, r2, [r5, #16]
20009a70:	e9c2 cc02 	strd	ip, ip, [r2, #8]
20009a74:	6054      	str	r4, [r2, #4]
20009a76:	50d3      	str	r3, [r2, r3]
20009a78:	e77b      	b.n	20009972 <_free_r+0x92>
20009a7a:	10a4      	asrs	r4, r4, #2
20009a7c:	2301      	movs	r3, #1
20009a7e:	40a3      	lsls	r3, r4
20009a80:	686c      	ldr	r4, [r5, #4]
20009a82:	4323      	orrs	r3, r4
20009a84:	606b      	str	r3, [r5, #4]
20009a86:	e7ab      	b.n	200099e0 <_free_r+0x100>
20009a88:	f5b1 7faa 	cmp.w	r1, #340	@ 0x154
20009a8c:	d806      	bhi.n	20009a9c <_free_r+0x1bc>
20009a8e:	0bd9      	lsrs	r1, r3, #15
20009a90:	f101 0078 	add.w	r0, r1, #120	@ 0x78
20009a94:	f101 0477 	add.w	r4, r1, #119	@ 0x77
20009a98:	00c1      	lsls	r1, r0, #3
20009a9a:	e792      	b.n	200099c2 <_free_r+0xe2>
20009a9c:	f240 5054 	movw	r0, #1364	@ 0x554
20009aa0:	4281      	cmp	r1, r0
20009aa2:	d806      	bhi.n	20009ab2 <_free_r+0x1d2>
20009aa4:	0c99      	lsrs	r1, r3, #18
20009aa6:	f101 007d 	add.w	r0, r1, #125	@ 0x7d
20009aaa:	f101 047c 	add.w	r4, r1, #124	@ 0x7c
20009aae:	00c1      	lsls	r1, r0, #3
20009ab0:	e787      	b.n	200099c2 <_free_r+0xe2>
20009ab2:	f44f 717e 	mov.w	r1, #1016	@ 0x3f8
20009ab6:	247e      	movs	r4, #126	@ 0x7e
20009ab8:	e783      	b.n	200099c2 <_free_r+0xe2>
20009aba:	bf00      	nop
20009abc:	2000fe78 	.word	0x2000fe78
20009ac0:	2000fe74 	.word	0x2000fe74
20009ac4:	20010818 	.word	0x20010818

20009ac8 <_svfprintf_r>:
20009ac8:	e92d 4ff0 	stmdb	sp!, {r4, r5, r6, r7, r8, r9, sl, fp, lr}
20009acc:	b0df      	sub	sp, #380	@ 0x17c
20009ace:	460c      	mov	r4, r1
20009ad0:	4682      	mov	sl, r0
20009ad2:	910e      	str	r1, [sp, #56]	@ 0x38
20009ad4:	f10d 08b8 	add.w	r8, sp, #184	@ 0xb8
20009ad8:	920b      	str	r2, [sp, #44]	@ 0x2c
20009ada:	9312      	str	r3, [sp, #72]	@ 0x48
20009adc:	f002 f92c 	bl	2000bd38 <_localeconv_r>
20009ae0:	6803      	ldr	r3, [r0, #0]
20009ae2:	4618      	mov	r0, r3
20009ae4:	931a      	str	r3, [sp, #104]	@ 0x68
20009ae6:	f7ff fe71 	bl	200097cc <strlen>
20009aea:	2208      	movs	r2, #8
20009aec:	9019      	str	r0, [sp, #100]	@ 0x64
20009aee:	2100      	movs	r1, #0
20009af0:	4640      	mov	r0, r8
20009af2:	f7ff fd43 	bl	2000957c <memset>
20009af6:	89a3      	ldrh	r3, [r4, #12]
20009af8:	061f      	lsls	r7, r3, #24
20009afa:	d503      	bpl.n	20009b04 <_svfprintf_r+0x3c>
20009afc:	6923      	ldr	r3, [r4, #16]
20009afe:	2b00      	cmp	r3, #0
20009b00:	f001 815a 	beq.w	2000adb8 <_svfprintf_r+0x12f0>
20009b04:	2300      	movs	r3, #0
20009b06:	f8cd a020 	str.w	sl, [sp, #32]
20009b0a:	469e      	mov	lr, r3
20009b0c:	e9cd 3333 	strd	r3, r3, [sp, #204]	@ 0xcc
20009b10:	ab35      	add	r3, sp, #212	@ 0xd4
20009b12:	f8cd e06c 	str.w	lr, [sp, #108]	@ 0x6c
20009b16:	f8cd e070 	str.w	lr, [sp, #112]	@ 0x70
20009b1a:	461c      	mov	r4, r3
20009b1c:	9332      	str	r3, [sp, #200]	@ 0xc8
20009b1e:	f8cd e030 	str.w	lr, [sp, #48]	@ 0x30
20009b22:	f8cd e054 	str.w	lr, [sp, #84]	@ 0x54
20009b26:	ed9f 7b72 	vldr	d7, [pc, #456]	@ 20009cf0 <_svfprintf_r+0x228>
20009b2a:	e9cd ee1d 	strd	lr, lr, [sp, #116]	@ 0x74
20009b2e:	ed8d 7b16 	vstr	d7, [sp, #88]	@ 0x58
20009b32:	9e0b      	ldr	r6, [sp, #44]	@ 0x2c
20009b34:	9f08      	ldr	r7, [sp, #32]
20009b36:	4b70      	ldr	r3, [pc, #448]	@ (20009cf8 <_svfprintf_r+0x230>)
20009b38:	f8d3 50e4 	ldr.w	r5, [r3, #228]	@ 0xe4
20009b3c:	f002 f8f6 	bl	2000bd2c <__locale_mb_cur_max>
20009b40:	4632      	mov	r2, r6
20009b42:	4603      	mov	r3, r0
20009b44:	a92a      	add	r1, sp, #168	@ 0xa8
20009b46:	4638      	mov	r0, r7
20009b48:	f8cd 8000 	str.w	r8, [sp]
20009b4c:	47a8      	blx	r5
20009b4e:	2800      	cmp	r0, #0
20009b50:	4603      	mov	r3, r0
20009b52:	f000 809b 	beq.w	20009c8c <_svfprintf_r+0x1c4>
20009b56:	f2c0 8091 	blt.w	20009c7c <_svfprintf_r+0x1b4>
20009b5a:	9a2a      	ldr	r2, [sp, #168]	@ 0xa8
20009b5c:	2a25      	cmp	r2, #37	@ 0x25
20009b5e:	d001      	beq.n	20009b64 <_svfprintf_r+0x9c>
20009b60:	441e      	add	r6, r3
20009b62:	e7e8      	b.n	20009b36 <_svfprintf_r+0x6e>
20009b64:	9b0b      	ldr	r3, [sp, #44]	@ 0x2c
20009b66:	4605      	mov	r5, r0
20009b68:	1af7      	subs	r7, r6, r3
20009b6a:	f040 8093 	bne.w	20009c94 <_svfprintf_r+0x1cc>
20009b6e:	2300      	movs	r3, #0
20009b70:	f04f 32ff 	mov.w	r2, #4294967295
20009b74:	1c75      	adds	r5, r6, #1
20009b76:	f896 9001 	ldrb.w	r9, [r6, #1]
20009b7a:	f88d 309f 	strb.w	r3, [sp, #159]	@ 0x9f
20009b7e:	930d      	str	r3, [sp, #52]	@ 0x34
20009b80:	920a      	str	r2, [sp, #40]	@ 0x28
20009b82:	9307      	str	r3, [sp, #28]
20009b84:	3501      	adds	r5, #1
20009b86:	f1a9 0320 	sub.w	r3, r9, #32
20009b8a:	2b5a      	cmp	r3, #90	@ 0x5a
20009b8c:	f200 80b6 	bhi.w	20009cfc <_svfprintf_r+0x234>
20009b90:	e8df f013 	tbh	[pc, r3, lsl #1]
20009b94:	00b403e5 	.word	0x00b403e5
20009b98:	03de00b4 	.word	0x03de00b4
20009b9c:	00b400b4 	.word	0x00b400b4
20009ba0:	03bd00b4 	.word	0x03bd00b4
20009ba4:	00b400b4 	.word	0x00b400b4
20009ba8:	030a02f8 	.word	0x030a02f8
20009bac:	030300b4 	.word	0x030300b4
20009bb0:	00b403f7 	.word	0x00b403f7
20009bb4:	005b03f0 	.word	0x005b03f0
20009bb8:	005b005b 	.word	0x005b005b
20009bbc:	005b005b 	.word	0x005b005b
20009bc0:	005b005b 	.word	0x005b005b
20009bc4:	005b005b 	.word	0x005b005b
20009bc8:	00b400b4 	.word	0x00b400b4
20009bcc:	00b400b4 	.word	0x00b400b4
20009bd0:	00b400b4 	.word	0x00b400b4
20009bd4:	012500b4 	.word	0x012500b4
20009bd8:	024200b4 	.word	0x024200b4
20009bdc:	0125043a 	.word	0x0125043a
20009be0:	01250125 	.word	0x01250125
20009be4:	00b400b4 	.word	0x00b400b4
20009be8:	00b400b4 	.word	0x00b400b4
20009bec:	00b40432 	.word	0x00b40432
20009bf0:	038600b4 	.word	0x038600b4
20009bf4:	00b400b4 	.word	0x00b400b4
20009bf8:	027800b4 	.word	0x027800b4
20009bfc:	041400b4 	.word	0x041400b4
20009c00:	00b400b4 	.word	0x00b400b4
20009c04:	00b4089a 	.word	0x00b4089a
20009c08:	00b400b4 	.word	0x00b400b4
20009c0c:	00b400b4 	.word	0x00b400b4
20009c10:	00b400b4 	.word	0x00b400b4
20009c14:	012500b4 	.word	0x012500b4
20009c18:	024200b4 	.word	0x024200b4
20009c1c:	01250168 	.word	0x01250168
20009c20:	01250125 	.word	0x01250125
20009c24:	01680310 	.word	0x01680310
20009c28:	00b4006d 	.word	0x00b4006d
20009c2c:	00b4032a 	.word	0x00b4032a
20009c30:	0356031b 	.word	0x0356031b
20009c34:	006d0335 	.word	0x006d0335
20009c38:	027800b4 	.word	0x027800b4
20009c3c:	02ad006a 	.word	0x02ad006a
20009c40:	00b400b4 	.word	0x00b400b4
20009c44:	00b408c7 	.word	0x00b408c7
20009c48:	006a      	.short	0x006a
20009c4a:	f1a9 0330 	sub.w	r3, r9, #48	@ 0x30
20009c4e:	2200      	movs	r2, #0
20009c50:	eb02 0282 	add.w	r2, r2, r2, lsl #2
20009c54:	f815 9b01 	ldrb.w	r9, [r5], #1
20009c58:	eb03 0242 	add.w	r2, r3, r2, lsl #1
20009c5c:	f1a9 0330 	sub.w	r3, r9, #48	@ 0x30
20009c60:	2b09      	cmp	r3, #9
20009c62:	d9f5      	bls.n	20009c50 <_svfprintf_r+0x188>
20009c64:	920d      	str	r2, [sp, #52]	@ 0x34
20009c66:	e78e      	b.n	20009b86 <_svfprintf_r+0xbe>
20009c68:	f895 9000 	ldrb.w	r9, [r5]
20009c6c:	e78a      	b.n	20009b84 <_svfprintf_r+0xbc>
20009c6e:	9b07      	ldr	r3, [sp, #28]
20009c70:	f895 9000 	ldrb.w	r9, [r5]
20009c74:	f043 0320 	orr.w	r3, r3, #32
20009c78:	9307      	str	r3, [sp, #28]
20009c7a:	e783      	b.n	20009b84 <_svfprintf_r+0xbc>
20009c7c:	2208      	movs	r2, #8
20009c7e:	2100      	movs	r1, #0
20009c80:	4640      	mov	r0, r8
20009c82:	f7ff fc7b 	bl	2000957c <memset>
20009c86:	2301      	movs	r3, #1
20009c88:	441e      	add	r6, r3
20009c8a:	e754      	b.n	20009b36 <_svfprintf_r+0x6e>
20009c8c:	9b0b      	ldr	r3, [sp, #44]	@ 0x2c
20009c8e:	4605      	mov	r5, r0
20009c90:	1af7      	subs	r7, r6, r3
20009c92:	d011      	beq.n	20009cb8 <_svfprintf_r+0x1f0>
20009c94:	9b0b      	ldr	r3, [sp, #44]	@ 0x2c
20009c96:	9a33      	ldr	r2, [sp, #204]	@ 0xcc
20009c98:	e9c4 3700 	strd	r3, r7, [r4]
20009c9c:	3201      	adds	r2, #1
20009c9e:	9b34      	ldr	r3, [sp, #208]	@ 0xd0
20009ca0:	2a07      	cmp	r2, #7
20009ca2:	443b      	add	r3, r7
20009ca4:	9233      	str	r2, [sp, #204]	@ 0xcc
20009ca6:	9334      	str	r3, [sp, #208]	@ 0xd0
20009ca8:	dc17      	bgt.n	20009cda <_svfprintf_r+0x212>
20009caa:	3408      	adds	r4, #8
20009cac:	9b0c      	ldr	r3, [sp, #48]	@ 0x30
20009cae:	443b      	add	r3, r7
20009cb0:	930c      	str	r3, [sp, #48]	@ 0x30
20009cb2:	2d00      	cmp	r5, #0
20009cb4:	f47f af5b 	bne.w	20009b6e <_svfprintf_r+0xa6>
20009cb8:	9b34      	ldr	r3, [sp, #208]	@ 0xd0
20009cba:	f8dd a020 	ldr.w	sl, [sp, #32]
20009cbe:	2b00      	cmp	r3, #0
20009cc0:	f041 83e0 	bne.w	2000b484 <_svfprintf_r+0x19bc>
20009cc4:	9b0e      	ldr	r3, [sp, #56]	@ 0x38
20009cc6:	899b      	ldrh	r3, [r3, #12]
20009cc8:	f003 0340 	and.w	r3, r3, #64	@ 0x40
20009ccc:	2b00      	cmp	r3, #0
20009cce:	f041 8766 	bne.w	2000bb9e <_svfprintf_r+0x20d6>
20009cd2:	980c      	ldr	r0, [sp, #48]	@ 0x30
20009cd4:	b05f      	add	sp, #380	@ 0x17c
20009cd6:	e8bd 8ff0 	ldmia.w	sp!, {r4, r5, r6, r7, r8, r9, sl, fp, pc}
20009cda:	aa32      	add	r2, sp, #200	@ 0xc8
20009cdc:	990e      	ldr	r1, [sp, #56]	@ 0x38
20009cde:	9808      	ldr	r0, [sp, #32]
20009ce0:	f001 ffc6 	bl	2000bc70 <__ssprint_r>
20009ce4:	2800      	cmp	r0, #0
20009ce6:	d1ed      	bne.n	20009cc4 <_svfprintf_r+0x1fc>
20009ce8:	ac35      	add	r4, sp, #212	@ 0xd4
20009cea:	e7df      	b.n	20009cac <_svfprintf_r+0x1e4>
20009cec:	f3af 8000 	nop.w
	...
20009cf8:	200103c8 	.word	0x200103c8
20009cfc:	950b      	str	r5, [sp, #44]	@ 0x2c
20009cfe:	f1b9 0f00 	cmp.w	r9, #0
20009d02:	d0d9      	beq.n	20009cb8 <_svfprintf_r+0x1f0>
20009d04:	2300      	movs	r3, #0
20009d06:	2201      	movs	r2, #1
20009d08:	af45      	add	r7, sp, #276	@ 0x114
20009d0a:	f88d 9114 	strb.w	r9, [sp, #276]	@ 0x114
20009d0e:	f88d 309f 	strb.w	r3, [sp, #159]	@ 0x9f
20009d12:	930f      	str	r3, [sp, #60]	@ 0x3c
20009d14:	9210      	str	r2, [sp, #64]	@ 0x40
20009d16:	930a      	str	r3, [sp, #40]	@ 0x28
20009d18:	9318      	str	r3, [sp, #96]	@ 0x60
20009d1a:	9209      	str	r2, [sp, #36]	@ 0x24
20009d1c:	e9cd 3313 	strd	r3, r3, [sp, #76]	@ 0x4c
20009d20:	9b07      	ldr	r3, [sp, #28]
20009d22:	9d34      	ldr	r5, [sp, #208]	@ 0xd0
20009d24:	f013 0384 	ands.w	r3, r3, #132	@ 0x84
20009d28:	46ae      	mov	lr, r5
20009d2a:	f000 80d5 	beq.w	20009ed8 <_svfprintf_r+0x410>
20009d2e:	f89d 209f 	ldrb.w	r2, [sp, #159]	@ 0x9f
20009d32:	b1ea      	cbz	r2, 20009d70 <_svfprintf_r+0x2a8>
20009d34:	9833      	ldr	r0, [sp, #204]	@ 0xcc
20009d36:	2600      	movs	r6, #0
20009d38:	3001      	adds	r0, #1
20009d3a:	2201      	movs	r2, #1
20009d3c:	3501      	adds	r5, #1
20009d3e:	6062      	str	r2, [r4, #4]
20009d40:	2807      	cmp	r0, #7
20009d42:	f10d 029f 	add.w	r2, sp, #159	@ 0x9f
20009d46:	e9cd 0533 	strd	r0, r5, [sp, #204]	@ 0xcc
20009d4a:	6022      	str	r2, [r4, #0]
20009d4c:	f300 84c3 	bgt.w	2000a6d6 <_svfprintf_r+0xc0e>
20009d50:	3408      	adds	r4, #8
20009d52:	b16e      	cbz	r6, 20009d70 <_svfprintf_r+0x2a8>
20009d54:	9833      	ldr	r0, [sp, #204]	@ 0xcc
20009d56:	3001      	adds	r0, #1
20009d58:	aa28      	add	r2, sp, #160	@ 0xa0
20009d5a:	3502      	adds	r5, #2
20009d5c:	6022      	str	r2, [r4, #0]
20009d5e:	2807      	cmp	r0, #7
20009d60:	f04f 0202 	mov.w	r2, #2
20009d64:	e9cd 0533 	strd	r0, r5, [sp, #204]	@ 0xcc
20009d68:	6062      	str	r2, [r4, #4]
20009d6a:	f300 84a6 	bgt.w	2000a6ba <_svfprintf_r+0xbf2>
20009d6e:	3408      	adds	r4, #8
20009d70:	2b80      	cmp	r3, #128	@ 0x80
20009d72:	f000 83e1 	beq.w	2000a538 <_svfprintf_r+0xa70>
20009d76:	9b0a      	ldr	r3, [sp, #40]	@ 0x28
20009d78:	9a10      	ldr	r2, [sp, #64]	@ 0x40
20009d7a:	1a9e      	subs	r6, r3, r2
20009d7c:	2e00      	cmp	r6, #0
20009d7e:	f300 80bc 	bgt.w	20009efa <_svfprintf_r+0x432>
20009d82:	9b07      	ldr	r3, [sp, #28]
20009d84:	05de      	lsls	r6, r3, #23
20009d86:	f100 80f0 	bmi.w	20009f6a <_svfprintf_r+0x4a2>
20009d8a:	9b10      	ldr	r3, [sp, #64]	@ 0x40
20009d8c:	6027      	str	r7, [r4, #0]
20009d8e:	441d      	add	r5, r3
20009d90:	6063      	str	r3, [r4, #4]
20009d92:	9b33      	ldr	r3, [sp, #204]	@ 0xcc
20009d94:	9534      	str	r5, [sp, #208]	@ 0xd0
20009d96:	3301      	adds	r3, #1
20009d98:	2b07      	cmp	r3, #7
20009d9a:	9333      	str	r3, [sp, #204]	@ 0xcc
20009d9c:	f300 843a 	bgt.w	2000a614 <_svfprintf_r+0xb4c>
20009da0:	3408      	adds	r4, #8
20009da2:	9b07      	ldr	r3, [sp, #28]
20009da4:	075a      	lsls	r2, r3, #29
20009da6:	d505      	bpl.n	20009db4 <_svfprintf_r+0x2ec>
20009da8:	9b0d      	ldr	r3, [sp, #52]	@ 0x34
20009daa:	9a09      	ldr	r2, [sp, #36]	@ 0x24
20009dac:	1a9e      	subs	r6, r3, r2
20009dae:	2e00      	cmp	r6, #0
20009db0:	f300 849f 	bgt.w	2000a6f2 <_svfprintf_r+0xc2a>
20009db4:	9909      	ldr	r1, [sp, #36]	@ 0x24
20009db6:	e9dd 320c 	ldrd	r3, r2, [sp, #48]	@ 0x30
20009dba:	428a      	cmp	r2, r1
20009dbc:	bfac      	ite	ge
20009dbe:	189b      	addge	r3, r3, r2
20009dc0:	185b      	addlt	r3, r3, r1
20009dc2:	930c      	str	r3, [sp, #48]	@ 0x30
20009dc4:	2d00      	cmp	r5, #0
20009dc6:	f040 83f3 	bne.w	2000a5b0 <_svfprintf_r+0xae8>
20009dca:	2300      	movs	r3, #0
20009dcc:	9333      	str	r3, [sp, #204]	@ 0xcc
20009dce:	9b0f      	ldr	r3, [sp, #60]	@ 0x3c
20009dd0:	b11b      	cbz	r3, 20009dda <_svfprintf_r+0x312>
20009dd2:	990f      	ldr	r1, [sp, #60]	@ 0x3c
20009dd4:	9808      	ldr	r0, [sp, #32]
20009dd6:	f7ff fd83 	bl	200098e0 <_free_r>
20009dda:	ac35      	add	r4, sp, #212	@ 0xd4
20009ddc:	e6a9      	b.n	20009b32 <_svfprintf_r+0x6a>
20009dde:	9b12      	ldr	r3, [sp, #72]	@ 0x48
20009de0:	f04f 32ff 	mov.w	r2, #4294967295
20009de4:	950b      	str	r5, [sp, #44]	@ 0x2c
20009de6:	3307      	adds	r3, #7
20009de8:	f023 0107 	bic.w	r1, r3, #7
20009dec:	4ba0      	ldr	r3, [pc, #640]	@ (2000a070 <_svfprintf_r+0x5a8>)
20009dee:	ecb1 7b02 	vldmia	r1!, {d7}
20009df2:	ec57 6b17 	vmov	r6, r7, d7
20009df6:	9112      	str	r1, [sp, #72]	@ 0x48
20009df8:	f027 4100 	bic.w	r1, r7, #2147483648	@ 0x80000000
20009dfc:	ed8d 7a20 	vstr	s14, [sp, #128]	@ 0x80
20009e00:	9121      	str	r1, [sp, #132]	@ 0x84
20009e02:	e9dd ab20 	ldrd	sl, fp, [sp, #128]	@ 0x80
20009e06:	ed8d 7b16 	vstr	d7, [sp, #88]	@ 0x58
20009e0a:	4650      	mov	r0, sl
20009e0c:	4659      	mov	r1, fp
20009e0e:	f7fa fa31 	bl	20004274 <__wrap___aeabi_dcmpun>
20009e12:	2800      	cmp	r0, #0
20009e14:	f040 8660 	bne.w	2000aad8 <_svfprintf_r+0x1010>
20009e18:	f04f 32ff 	mov.w	r2, #4294967295
20009e1c:	4b94      	ldr	r3, [pc, #592]	@ (2000a070 <_svfprintf_r+0x5a8>)
20009e1e:	4650      	mov	r0, sl
20009e20:	4659      	mov	r1, fp
20009e22:	f7fa fa5f 	bl	200042e4 <__wrap___aeabi_dcmple>
20009e26:	4605      	mov	r5, r0
20009e28:	2800      	cmp	r0, #0
20009e2a:	f040 8655 	bne.w	2000aad8 <_svfprintf_r+0x1010>
20009e2e:	9b07      	ldr	r3, [sp, #28]
20009e30:	2200      	movs	r2, #0
20009e32:	4630      	mov	r0, r6
20009e34:	4639      	mov	r1, r7
20009e36:	f023 0380 	bic.w	r3, r3, #128	@ 0x80
20009e3a:	9307      	str	r3, [sp, #28]
20009e3c:	2300      	movs	r3, #0
20009e3e:	f7fa fa3d 	bl	200042bc <__wrap___aeabi_dcmplt>
20009e42:	2800      	cmp	r0, #0
20009e44:	f041 82b6 	bne.w	2000b3b4 <_svfprintf_r+0x18ec>
20009e48:	f1b9 0f47 	cmp.w	r9, #71	@ 0x47
20009e4c:	f89d 309f 	ldrb.w	r3, [sp, #159]	@ 0x9f
20009e50:	bfcc      	ite	gt
20009e52:	4f88      	ldrgt	r7, [pc, #544]	@ (2000a074 <_svfprintf_r+0x5ac>)
20009e54:	4f88      	ldrle	r7, [pc, #544]	@ (2000a078 <_svfprintf_r+0x5b0>)
20009e56:	2b00      	cmp	r3, #0
20009e58:	f041 8563 	bne.w	2000b922 <_svfprintf_r+0x1e5a>
20009e5c:	2203      	movs	r2, #3
20009e5e:	930f      	str	r3, [sp, #60]	@ 0x3c
20009e60:	9210      	str	r2, [sp, #64]	@ 0x40
20009e62:	e758      	b.n	20009d16 <_svfprintf_r+0x24e>
20009e64:	9907      	ldr	r1, [sp, #28]
20009e66:	950b      	str	r5, [sp, #44]	@ 0x2c
20009e68:	0688      	lsls	r0, r1, #26
20009e6a:	f140 8623 	bpl.w	2000aab4 <_svfprintf_r+0xfec>
20009e6e:	9b12      	ldr	r3, [sp, #72]	@ 0x48
20009e70:	9107      	str	r1, [sp, #28]
20009e72:	3307      	adds	r3, #7
20009e74:	f023 0307 	bic.w	r3, r3, #7
20009e78:	461a      	mov	r2, r3
20009e7a:	685b      	ldr	r3, [r3, #4]
20009e7c:	f852 5b08 	ldr.w	r5, [r2], #8
20009e80:	461e      	mov	r6, r3
20009e82:	9212      	str	r2, [sp, #72]	@ 0x48
20009e84:	2b00      	cmp	r3, #0
20009e86:	f2c0 82d1 	blt.w	2000a42c <_svfprintf_r+0x964>
20009e8a:	9a0a      	ldr	r2, [sp, #40]	@ 0x28
20009e8c:	2a00      	cmp	r2, #0
20009e8e:	f2c0 8143 	blt.w	2000a118 <_svfprintf_r+0x650>
20009e92:	9b07      	ldr	r3, [sp, #28]
20009e94:	f023 0380 	bic.w	r3, r3, #128	@ 0x80
20009e98:	9307      	str	r3, [sp, #28]
20009e9a:	ea55 0306 	orrs.w	r3, r5, r6
20009e9e:	f040 813b 	bne.w	2000a118 <_svfprintf_r+0x650>
20009ea2:	1e13      	subs	r3, r2, #0
20009ea4:	bf18      	it	ne
20009ea6:	2301      	movne	r3, #1
20009ea8:	2a00      	cmp	r2, #0
20009eaa:	f040 8135 	bne.w	2000a118 <_svfprintf_r+0x650>
20009eae:	461a      	mov	r2, r3
20009eb0:	930f      	str	r3, [sp, #60]	@ 0x3c
20009eb2:	f89d 309f 	ldrb.w	r3, [sp, #159]	@ 0x9f
20009eb6:	af5e      	add	r7, sp, #376	@ 0x178
20009eb8:	9d34      	ldr	r5, [sp, #208]	@ 0xd0
20009eba:	1e19      	subs	r1, r3, #0
20009ebc:	9b07      	ldr	r3, [sp, #28]
20009ebe:	46ae      	mov	lr, r5
20009ec0:	920a      	str	r2, [sp, #40]	@ 0x28
20009ec2:	bf18      	it	ne
20009ec4:	2101      	movne	r1, #1
20009ec6:	f013 0384 	ands.w	r3, r3, #132	@ 0x84
20009eca:	9210      	str	r2, [sp, #64]	@ 0x40
20009ecc:	9109      	str	r1, [sp, #36]	@ 0x24
20009ece:	9218      	str	r2, [sp, #96]	@ 0x60
20009ed0:	e9cd 2213 	strd	r2, r2, [sp, #76]	@ 0x4c
20009ed4:	f47f af2b 	bne.w	20009d2e <_svfprintf_r+0x266>
20009ed8:	9a0d      	ldr	r2, [sp, #52]	@ 0x34
20009eda:	9909      	ldr	r1, [sp, #36]	@ 0x24
20009edc:	1a56      	subs	r6, r2, r1
20009ede:	2e00      	cmp	r6, #0
20009ee0:	f300 850c 	bgt.w	2000a8fc <_svfprintf_r+0xe34>
20009ee4:	f89d 209f 	ldrb.w	r2, [sp, #159]	@ 0x9f
20009ee8:	2a00      	cmp	r2, #0
20009eea:	f47f af23 	bne.w	20009d34 <_svfprintf_r+0x26c>
20009eee:	9b0a      	ldr	r3, [sp, #40]	@ 0x28
20009ef0:	9a10      	ldr	r2, [sp, #64]	@ 0x40
20009ef2:	1a9e      	subs	r6, r3, r2
20009ef4:	2e00      	cmp	r6, #0
20009ef6:	f77f af44 	ble.w	20009d82 <_svfprintf_r+0x2ba>
20009efa:	2e10      	cmp	r6, #16
20009efc:	9a33      	ldr	r2, [sp, #204]	@ 0xcc
20009efe:	f8df a17c 	ldr.w	sl, [pc, #380]	@ 2000a07c <_svfprintf_r+0x5b4>
20009f02:	dd23      	ble.n	20009f4c <_svfprintf_r+0x484>
20009f04:	4629      	mov	r1, r5
20009f06:	2310      	movs	r3, #16
20009f08:	f8dd b020 	ldr.w	fp, [sp, #32]
20009f0c:	9d0e      	ldr	r5, [sp, #56]	@ 0x38
20009f0e:	e002      	b.n	20009f16 <_svfprintf_r+0x44e>
20009f10:	3e10      	subs	r6, #16
20009f12:	2e10      	cmp	r6, #16
20009f14:	dd19      	ble.n	20009f4a <_svfprintf_r+0x482>
20009f16:	3201      	adds	r2, #1
20009f18:	3110      	adds	r1, #16
20009f1a:	4858      	ldr	r0, [pc, #352]	@ (2000a07c <_svfprintf_r+0x5b4>)
20009f1c:	2a07      	cmp	r2, #7
20009f1e:	e9c4 0300 	strd	r0, r3, [r4]
20009f22:	e9cd 2133 	strd	r2, r1, [sp, #204]	@ 0xcc
20009f26:	f104 0408 	add.w	r4, r4, #8
20009f2a:	ddf1      	ble.n	20009f10 <_svfprintf_r+0x448>
20009f2c:	aa32      	add	r2, sp, #200	@ 0xc8
20009f2e:	4629      	mov	r1, r5
20009f30:	4658      	mov	r0, fp
20009f32:	ac35      	add	r4, sp, #212	@ 0xd4
20009f34:	f001 fe9c 	bl	2000bc70 <__ssprint_r>
20009f38:	2800      	cmp	r0, #0
20009f3a:	f040 8414 	bne.w	2000a766 <_svfprintf_r+0xc9e>
20009f3e:	3e10      	subs	r6, #16
20009f40:	2310      	movs	r3, #16
20009f42:	2e10      	cmp	r6, #16
20009f44:	e9dd 2133 	ldrd	r2, r1, [sp, #204]	@ 0xcc
20009f48:	dce5      	bgt.n	20009f16 <_svfprintf_r+0x44e>
20009f4a:	460d      	mov	r5, r1
20009f4c:	3201      	adds	r2, #1
20009f4e:	4435      	add	r5, r6
20009f50:	f8c4 a000 	str.w	sl, [r4]
20009f54:	2a07      	cmp	r2, #7
20009f56:	6066      	str	r6, [r4, #4]
20009f58:	e9cd 2533 	strd	r2, r5, [sp, #204]	@ 0xcc
20009f5c:	f300 8511 	bgt.w	2000a982 <_svfprintf_r+0xeba>
20009f60:	9b07      	ldr	r3, [sp, #28]
20009f62:	3408      	adds	r4, #8
20009f64:	05de      	lsls	r6, r3, #23
20009f66:	f57f af10 	bpl.w	20009d8a <_svfprintf_r+0x2c2>
20009f6a:	f1b9 0f65 	cmp.w	r9, #101	@ 0x65
20009f6e:	f340 835c 	ble.w	2000a62a <_svfprintf_r+0xb62>
20009f72:	2200      	movs	r2, #0
20009f74:	2300      	movs	r3, #0
20009f76:	e9dd 0116 	ldrd	r0, r1, [sp, #88]	@ 0x58
20009f7a:	f7fa f98d 	bl	20004298 <__wrap___aeabi_dcmpeq>
20009f7e:	2800      	cmp	r0, #0
20009f80:	f000 83fa 	beq.w	2000a778 <_svfprintf_r+0xcb0>
20009f84:	9b33      	ldr	r3, [sp, #204]	@ 0xcc
20009f86:	3501      	adds	r5, #1
20009f88:	4a3d      	ldr	r2, [pc, #244]	@ (2000a080 <_svfprintf_r+0x5b8>)
20009f8a:	3301      	adds	r3, #1
20009f8c:	9534      	str	r5, [sp, #208]	@ 0xd0
20009f8e:	6022      	str	r2, [r4, #0]
20009f90:	2201      	movs	r2, #1
20009f92:	2b07      	cmp	r3, #7
20009f94:	9333      	str	r3, [sp, #204]	@ 0xcc
20009f96:	6062      	str	r2, [r4, #4]
20009f98:	f301 8080 	bgt.w	2000b09c <_svfprintf_r+0x15d4>
20009f9c:	3408      	adds	r4, #8
20009f9e:	9b29      	ldr	r3, [sp, #164]	@ 0xa4
20009fa0:	9a15      	ldr	r2, [sp, #84]	@ 0x54
20009fa2:	4293      	cmp	r3, r2
20009fa4:	f280 8513 	bge.w	2000a9ce <_svfprintf_r+0xf06>
20009fa8:	9b19      	ldr	r3, [sp, #100]	@ 0x64
20009faa:	9a1a      	ldr	r2, [sp, #104]	@ 0x68
20009fac:	441d      	add	r5, r3
20009fae:	e9c4 2300 	strd	r2, r3, [r4]
20009fb2:	9b33      	ldr	r3, [sp, #204]	@ 0xcc
20009fb4:	9534      	str	r5, [sp, #208]	@ 0xd0
20009fb6:	3301      	adds	r3, #1
20009fb8:	2b07      	cmp	r3, #7
20009fba:	9333      	str	r3, [sp, #204]	@ 0xcc
20009fbc:	f300 86f0 	bgt.w	2000ada0 <_svfprintf_r+0x12d8>
20009fc0:	3408      	adds	r4, #8
20009fc2:	9b15      	ldr	r3, [sp, #84]	@ 0x54
20009fc4:	1e5e      	subs	r6, r3, #1
20009fc6:	2e00      	cmp	r6, #0
20009fc8:	f77f aeeb 	ble.w	20009da2 <_svfprintf_r+0x2da>
20009fcc:	2e10      	cmp	r6, #16
20009fce:	9b33      	ldr	r3, [sp, #204]	@ 0xcc
20009fd0:	f8df a0a8 	ldr.w	sl, [pc, #168]	@ 2000a07c <_svfprintf_r+0x5b4>
20009fd4:	f340 8314 	ble.w	2000a600 <_svfprintf_r+0xb38>
20009fd8:	2710      	movs	r7, #16
20009fda:	f8dd 9020 	ldr.w	r9, [sp, #32]
20009fde:	f8dd b038 	ldr.w	fp, [sp, #56]	@ 0x38
20009fe2:	e003      	b.n	20009fec <_svfprintf_r+0x524>
20009fe4:	3e10      	subs	r6, #16
20009fe6:	2e10      	cmp	r6, #16
20009fe8:	f340 830a 	ble.w	2000a600 <_svfprintf_r+0xb38>
20009fec:	3301      	adds	r3, #1
20009fee:	3510      	adds	r5, #16
20009ff0:	2b07      	cmp	r3, #7
20009ff2:	e9c4 a700 	strd	sl, r7, [r4]
20009ff6:	e9cd 3533 	strd	r3, r5, [sp, #204]	@ 0xcc
20009ffa:	f104 0408 	add.w	r4, r4, #8
20009ffe:	ddf1      	ble.n	20009fe4 <_svfprintf_r+0x51c>
2000a000:	aa32      	add	r2, sp, #200	@ 0xc8
2000a002:	4659      	mov	r1, fp
2000a004:	4648      	mov	r0, r9
2000a006:	f001 fe33 	bl	2000bc70 <__ssprint_r>
2000a00a:	2800      	cmp	r0, #0
2000a00c:	f041 8029 	bne.w	2000b062 <_svfprintf_r+0x159a>
2000a010:	ac35      	add	r4, sp, #212	@ 0xd4
2000a012:	e9dd 3533 	ldrd	r3, r5, [sp, #204]	@ 0xcc
2000a016:	e7e5      	b.n	20009fe4 <_svfprintf_r+0x51c>
2000a018:	9b12      	ldr	r3, [sp, #72]	@ 0x48
2000a01a:	f1b9 0f43 	cmp.w	r9, #67	@ 0x43
2000a01e:	950b      	str	r5, [sp, #44]	@ 0x2c
2000a020:	f103 0504 	add.w	r5, r3, #4
2000a024:	d003      	beq.n	2000a02e <_svfprintf_r+0x566>
2000a026:	9b07      	ldr	r3, [sp, #28]
2000a028:	06de      	lsls	r6, r3, #27
2000a02a:	f140 869f 	bpl.w	2000ad6c <_svfprintf_r+0x12a4>
2000a02e:	2208      	movs	r2, #8
2000a030:	2100      	movs	r1, #0
2000a032:	a830      	add	r0, sp, #192	@ 0xc0
2000a034:	af45      	add	r7, sp, #276	@ 0x114
2000a036:	f7ff faa1 	bl	2000957c <memset>
2000a03a:	9a12      	ldr	r2, [sp, #72]	@ 0x48
2000a03c:	ab30      	add	r3, sp, #192	@ 0xc0
2000a03e:	9808      	ldr	r0, [sp, #32]
2000a040:	6812      	ldr	r2, [r2, #0]
2000a042:	4639      	mov	r1, r7
2000a044:	f003 fb8a 	bl	2000d75c <_wcrtomb_r>
2000a048:	4603      	mov	r3, r0
2000a04a:	9010      	str	r0, [sp, #64]	@ 0x40
2000a04c:	3301      	adds	r3, #1
2000a04e:	f001 85a1 	beq.w	2000bb94 <_svfprintf_r+0x20cc>
2000a052:	9b10      	ldr	r3, [sp, #64]	@ 0x40
2000a054:	ea23 73e3 	bic.w	r3, r3, r3, asr #31
2000a058:	9309      	str	r3, [sp, #36]	@ 0x24
2000a05a:	2300      	movs	r3, #0
2000a05c:	9512      	str	r5, [sp, #72]	@ 0x48
2000a05e:	f88d 309f 	strb.w	r3, [sp, #159]	@ 0x9f
2000a062:	930f      	str	r3, [sp, #60]	@ 0x3c
2000a064:	930a      	str	r3, [sp, #40]	@ 0x28
2000a066:	9318      	str	r3, [sp, #96]	@ 0x60
2000a068:	e9cd 3313 	strd	r3, r3, [sp, #76]	@ 0x4c
2000a06c:	e658      	b.n	20009d20 <_svfprintf_r+0x258>
2000a06e:	bf00      	nop
2000a070:	7fefffff 	.word	0x7fefffff
2000a074:	2000eb98 	.word	0x2000eb98
2000a078:	2000eb94 	.word	0x2000eb94
2000a07c:	2000f788 	.word	0x2000f788
2000a080:	2000ebd4 	.word	0x2000ebd4
2000a084:	9e12      	ldr	r6, [sp, #72]	@ 0x48
2000a086:	2300      	movs	r3, #0
2000a088:	950b      	str	r5, [sp, #44]	@ 0x2c
2000a08a:	f856 7b04 	ldr.w	r7, [r6], #4
2000a08e:	f88d 309f 	strb.w	r3, [sp, #159]	@ 0x9f
2000a092:	2f00      	cmp	r7, #0
2000a094:	f000 869f 	beq.w	2000add6 <_svfprintf_r+0x130e>
2000a098:	f1b9 0f53 	cmp.w	r9, #83	@ 0x53
2000a09c:	f001 800a 	beq.w	2000b0b4 <_svfprintf_r+0x15ec>
2000a0a0:	9b07      	ldr	r3, [sp, #28]
2000a0a2:	f013 0310 	ands.w	r3, r3, #16
2000a0a6:	9313      	str	r3, [sp, #76]	@ 0x4c
2000a0a8:	f041 8004 	bne.w	2000b0b4 <_svfprintf_r+0x15ec>
2000a0ac:	9b0a      	ldr	r3, [sp, #40]	@ 0x28
2000a0ae:	2b00      	cmp	r3, #0
2000a0b0:	f2c1 81f3 	blt.w	2000b49a <_svfprintf_r+0x19d2>
2000a0b4:	461a      	mov	r2, r3
2000a0b6:	9913      	ldr	r1, [sp, #76]	@ 0x4c
2000a0b8:	4638      	mov	r0, r7
2000a0ba:	f001 fe41 	bl	2000bd40 <memchr>
2000a0be:	f89d 309f 	ldrb.w	r3, [sp, #159]	@ 0x9f
2000a0c2:	900f      	str	r0, [sp, #60]	@ 0x3c
2000a0c4:	2800      	cmp	r0, #0
2000a0c6:	f001 8494 	beq.w	2000b9f2 <_svfprintf_r+0x1f2a>
2000a0ca:	9a0f      	ldr	r2, [sp, #60]	@ 0x3c
2000a0cc:	1bd2      	subs	r2, r2, r7
2000a0ce:	9210      	str	r2, [sp, #64]	@ 0x40
2000a0d0:	ea22 72e2 	bic.w	r2, r2, r2, asr #31
2000a0d4:	9209      	str	r2, [sp, #36]	@ 0x24
2000a0d6:	b10b      	cbz	r3, 2000a0dc <_svfprintf_r+0x614>
2000a0d8:	3201      	adds	r2, #1
2000a0da:	9209      	str	r2, [sp, #36]	@ 0x24
2000a0dc:	9b13      	ldr	r3, [sp, #76]	@ 0x4c
2000a0de:	f04f 0973 	mov.w	r9, #115	@ 0x73
2000a0e2:	9612      	str	r6, [sp, #72]	@ 0x48
2000a0e4:	930a      	str	r3, [sp, #40]	@ 0x28
2000a0e6:	9318      	str	r3, [sp, #96]	@ 0x60
2000a0e8:	9314      	str	r3, [sp, #80]	@ 0x50
2000a0ea:	930f      	str	r3, [sp, #60]	@ 0x3c
2000a0ec:	e618      	b.n	20009d20 <_svfprintf_r+0x258>
2000a0ee:	9907      	ldr	r1, [sp, #28]
2000a0f0:	950b      	str	r5, [sp, #44]	@ 0x2c
2000a0f2:	068f      	lsls	r7, r1, #26
2000a0f4:	f140 849b 	bpl.w	2000aa2e <_svfprintf_r+0xf66>
2000a0f8:	9b12      	ldr	r3, [sp, #72]	@ 0x48
2000a0fa:	2200      	movs	r2, #0
2000a0fc:	3307      	adds	r3, #7
2000a0fe:	f88d 209f 	strb.w	r2, [sp, #159]	@ 0x9f
2000a102:	9a0a      	ldr	r2, [sp, #40]	@ 0x28
2000a104:	f023 0307 	bic.w	r3, r3, #7
2000a108:	2a00      	cmp	r2, #0
2000a10a:	685e      	ldr	r6, [r3, #4]
2000a10c:	f853 5b08 	ldr.w	r5, [r3], #8
2000a110:	9312      	str	r3, [sp, #72]	@ 0x48
2000a112:	f280 8462 	bge.w	2000a9da <_svfprintf_r+0xf12>
2000a116:	9107      	str	r1, [sp, #28]
2000a118:	2d0a      	cmp	r5, #10
2000a11a:	f176 0300 	sbcs.w	r3, r6, #0
2000a11e:	f080 8198 	bcs.w	2000a452 <_svfprintf_r+0x98a>
2000a122:	9b0a      	ldr	r3, [sp, #40]	@ 0x28
2000a124:	3530      	adds	r5, #48	@ 0x30
2000a126:	f89d c09f 	ldrb.w	ip, [sp, #159]	@ 0x9f
2000a12a:	f20d 1777 	addw	r7, sp, #375	@ 0x177
2000a12e:	2b01      	cmp	r3, #1
2000a130:	f88d 5177 	strb.w	r5, [sp, #375]	@ 0x177
2000a134:	bfb8      	it	lt
2000a136:	2301      	movlt	r3, #1
2000a138:	9309      	str	r3, [sp, #36]	@ 0x24
2000a13a:	2300      	movs	r3, #0
2000a13c:	9313      	str	r3, [sp, #76]	@ 0x4c
2000a13e:	2301      	movs	r3, #1
2000a140:	9310      	str	r3, [sp, #64]	@ 0x40
2000a142:	2300      	movs	r3, #0
2000a144:	930f      	str	r3, [sp, #60]	@ 0x3c
2000a146:	f1bc 0f00 	cmp.w	ip, #0
2000a14a:	d002      	beq.n	2000a152 <_svfprintf_r+0x68a>
2000a14c:	9b09      	ldr	r3, [sp, #36]	@ 0x24
2000a14e:	3301      	adds	r3, #1
2000a150:	9309      	str	r3, [sp, #36]	@ 0x24
2000a152:	9b13      	ldr	r3, [sp, #76]	@ 0x4c
2000a154:	2b00      	cmp	r3, #0
2000a156:	f001 854a 	beq.w	2000bbee <_svfprintf_r+0x2126>
2000a15a:	9b09      	ldr	r3, [sp, #36]	@ 0x24
2000a15c:	3302      	adds	r3, #2
2000a15e:	9309      	str	r3, [sp, #36]	@ 0x24
2000a160:	9b07      	ldr	r3, [sp, #28]
2000a162:	e9dd 0533 	ldrd	r0, r5, [sp, #204]	@ 0xcc
2000a166:	f013 0384 	ands.w	r3, r3, #132	@ 0x84
2000a16a:	46ae      	mov	lr, r5
2000a16c:	4602      	mov	r2, r0
2000a16e:	f000 8237 	beq.w	2000a5e0 <_svfprintf_r+0xb18>
2000a172:	f1bc 0f00 	cmp.w	ip, #0
2000a176:	f040 82f8 	bne.w	2000a76a <_svfprintf_r+0xca2>
2000a17a:	f8cd c060 	str.w	ip, [sp, #96]	@ 0x60
2000a17e:	e9cd cc13 	strd	ip, ip, [sp, #76]	@ 0x4c
2000a182:	e5e8      	b.n	20009d56 <_svfprintf_r+0x28e>
2000a184:	9b12      	ldr	r3, [sp, #72]	@ 0x48
2000a186:	f853 2b04 	ldr.w	r2, [r3], #4
2000a18a:	2a00      	cmp	r2, #0
2000a18c:	920d      	str	r2, [sp, #52]	@ 0x34
2000a18e:	f280 843b 	bge.w	2000aa08 <_svfprintf_r+0xf40>
2000a192:	9a0d      	ldr	r2, [sp, #52]	@ 0x34
2000a194:	9312      	str	r3, [sp, #72]	@ 0x48
2000a196:	4252      	negs	r2, r2
2000a198:	920d      	str	r2, [sp, #52]	@ 0x34
2000a19a:	9b07      	ldr	r3, [sp, #28]
2000a19c:	f895 9000 	ldrb.w	r9, [r5]
2000a1a0:	f043 0304 	orr.w	r3, r3, #4
2000a1a4:	9307      	str	r3, [sp, #28]
2000a1a6:	e4ed      	b.n	20009b84 <_svfprintf_r+0xbc>
2000a1a8:	232b      	movs	r3, #43	@ 0x2b
2000a1aa:	f895 9000 	ldrb.w	r9, [r5]
2000a1ae:	f88d 309f 	strb.w	r3, [sp, #159]	@ 0x9f
2000a1b2:	e4e7      	b.n	20009b84 <_svfprintf_r+0xbc>
2000a1b4:	f895 9000 	ldrb.w	r9, [r5]
2000a1b8:	9b07      	ldr	r3, [sp, #28]
2000a1ba:	f1b9 0f68 	cmp.w	r9, #104	@ 0x68
2000a1be:	f000 85df 	beq.w	2000ad80 <_svfprintf_r+0x12b8>
2000a1c2:	f043 0340 	orr.w	r3, r3, #64	@ 0x40
2000a1c6:	9307      	str	r3, [sp, #28]
2000a1c8:	e4dc      	b.n	20009b84 <_svfprintf_r+0xbc>
2000a1ca:	9a07      	ldr	r2, [sp, #28]
2000a1cc:	9b12      	ldr	r3, [sp, #72]	@ 0x48
2000a1ce:	0692      	lsls	r2, r2, #26
2000a1d0:	950b      	str	r5, [sp, #44]	@ 0x2c
2000a1d2:	f103 0104 	add.w	r1, r3, #4
2000a1d6:	f140 845b 	bpl.w	2000aa90 <_svfprintf_r+0xfc8>
2000a1da:	681b      	ldr	r3, [r3, #0]
2000a1dc:	9a0c      	ldr	r2, [sp, #48]	@ 0x30
2000a1de:	601a      	str	r2, [r3, #0]
2000a1e0:	17d2      	asrs	r2, r2, #31
2000a1e2:	605a      	str	r2, [r3, #4]
2000a1e4:	9112      	str	r1, [sp, #72]	@ 0x48
2000a1e6:	e4a4      	b.n	20009b32 <_svfprintf_r+0x6a>
2000a1e8:	f895 9000 	ldrb.w	r9, [r5]
2000a1ec:	9b07      	ldr	r3, [sp, #28]
2000a1ee:	f1b9 0f6c 	cmp.w	r9, #108	@ 0x6c
2000a1f2:	f000 85cd 	beq.w	2000ad90 <_svfprintf_r+0x12c8>
2000a1f6:	f043 0310 	orr.w	r3, r3, #16
2000a1fa:	9307      	str	r3, [sp, #28]
2000a1fc:	e4c2      	b.n	20009b84 <_svfprintf_r+0xbc>
2000a1fe:	2200      	movs	r2, #0
2000a200:	9912      	ldr	r1, [sp, #72]	@ 0x48
2000a202:	950b      	str	r5, [sp, #44]	@ 0x2c
2000a204:	f647 0330 	movw	r3, #30768	@ 0x7830
2000a208:	9d0a      	ldr	r5, [sp, #40]	@ 0x28
2000a20a:	f851 0b04 	ldr.w	r0, [r1], #4
2000a20e:	4295      	cmp	r5, r2
2000a210:	f8ad 30a0 	strh.w	r3, [sp, #160]	@ 0xa0
2000a214:	f88d 209f 	strb.w	r2, [sp, #159]	@ 0x9f
2000a218:	4603      	mov	r3, r0
2000a21a:	f2c0 8585 	blt.w	2000ad28 <_svfprintf_r+0x1260>
2000a21e:	9d07      	ldr	r5, [sp, #28]
2000a220:	f025 0580 	bic.w	r5, r5, #128	@ 0x80
2000a224:	f045 0502 	orr.w	r5, r5, #2
2000a228:	9507      	str	r5, [sp, #28]
2000a22a:	2800      	cmp	r0, #0
2000a22c:	f040 8788 	bne.w	2000b140 <_svfprintf_r+0x1678>
2000a230:	980a      	ldr	r0, [sp, #40]	@ 0x28
2000a232:	2800      	cmp	r0, #0
2000a234:	f040 8784 	bne.w	2000b140 <_svfprintf_r+0x1678>
2000a238:	f04f 0978 	mov.w	r9, #120	@ 0x78
2000a23c:	9112      	str	r1, [sp, #72]	@ 0x48
2000a23e:	e3d6      	b.n	2000a9ee <_svfprintf_r+0xf26>
2000a240:	9807      	ldr	r0, [sp, #28]
2000a242:	950b      	str	r5, [sp, #44]	@ 0x2c
2000a244:	0681      	lsls	r1, r0, #26
2000a246:	f140 8411 	bpl.w	2000aa6c <_svfprintf_r+0xfa4>
2000a24a:	9b12      	ldr	r3, [sp, #72]	@ 0x48
2000a24c:	3307      	adds	r3, #7
2000a24e:	f023 0307 	bic.w	r3, r3, #7
2000a252:	461a      	mov	r2, r3
2000a254:	6859      	ldr	r1, [r3, #4]
2000a256:	f852 3b08 	ldr.w	r3, [r2], #8
2000a25a:	9212      	str	r2, [sp, #72]	@ 0x48
2000a25c:	2200      	movs	r2, #0
2000a25e:	f88d 209f 	strb.w	r2, [sp, #159]	@ 0x9f
2000a262:	9a0a      	ldr	r2, [sp, #40]	@ 0x28
2000a264:	2a00      	cmp	r2, #0
2000a266:	db2d      	blt.n	2000a2c4 <_svfprintf_r+0x7fc>
2000a268:	f420 6290 	bic.w	r2, r0, #1152	@ 0x480
2000a26c:	9207      	str	r2, [sp, #28]
2000a26e:	9a0a      	ldr	r2, [sp, #40]	@ 0x28
2000a270:	bb5a      	cbnz	r2, 2000a2ca <_svfprintf_r+0x802>
2000a272:	ea53 0201 	orrs.w	r2, r3, r1
2000a276:	bf14      	ite	ne
2000a278:	2201      	movne	r2, #1
2000a27a:	2200      	moveq	r2, #0
2000a27c:	d125      	bne.n	2000a2ca <_svfprintf_r+0x802>
2000a27e:	f010 0101 	ands.w	r1, r0, #1
2000a282:	9109      	str	r1, [sp, #36]	@ 0x24
2000a284:	f000 83c5 	beq.w	2000aa12 <_svfprintf_r+0xf4a>
2000a288:	2330      	movs	r3, #48	@ 0x30
2000a28a:	f20d 1777 	addw	r7, sp, #375	@ 0x177
2000a28e:	920a      	str	r2, [sp, #40]	@ 0x28
2000a290:	f88d 3177 	strb.w	r3, [sp, #375]	@ 0x177
2000a294:	9110      	str	r1, [sp, #64]	@ 0x40
2000a296:	920f      	str	r2, [sp, #60]	@ 0x3c
2000a298:	9218      	str	r2, [sp, #96]	@ 0x60
2000a29a:	e9cd 2213 	strd	r2, r2, [sp, #76]	@ 0x4c
2000a29e:	e53f      	b.n	20009d20 <_svfprintf_r+0x258>
2000a2a0:	9b07      	ldr	r3, [sp, #28]
2000a2a2:	950b      	str	r5, [sp, #44]	@ 0x2c
2000a2a4:	069d      	lsls	r5, r3, #26
2000a2a6:	f043 0010 	orr.w	r0, r3, #16
2000a2aa:	d4ce      	bmi.n	2000a24a <_svfprintf_r+0x782>
2000a2ac:	9b12      	ldr	r3, [sp, #72]	@ 0x48
2000a2ae:	1d1a      	adds	r2, r3, #4
2000a2b0:	9b12      	ldr	r3, [sp, #72]	@ 0x48
2000a2b2:	2100      	movs	r1, #0
2000a2b4:	9212      	str	r2, [sp, #72]	@ 0x48
2000a2b6:	2200      	movs	r2, #0
2000a2b8:	681b      	ldr	r3, [r3, #0]
2000a2ba:	f88d 209f 	strb.w	r2, [sp, #159]	@ 0x9f
2000a2be:	9a0a      	ldr	r2, [sp, #40]	@ 0x28
2000a2c0:	2a00      	cmp	r2, #0
2000a2c2:	dad1      	bge.n	2000a268 <_svfprintf_r+0x7a0>
2000a2c4:	f420 6280 	bic.w	r2, r0, #1024	@ 0x400
2000a2c8:	9207      	str	r2, [sp, #28]
2000a2ca:	af5e      	add	r7, sp, #376	@ 0x178
2000a2cc:	f003 0207 	and.w	r2, r3, #7
2000a2d0:	08db      	lsrs	r3, r3, #3
2000a2d2:	4638      	mov	r0, r7
2000a2d4:	ea43 7341 	orr.w	r3, r3, r1, lsl #29
2000a2d8:	3230      	adds	r2, #48	@ 0x30
2000a2da:	08c9      	lsrs	r1, r1, #3
2000a2dc:	f807 2d01 	strb.w	r2, [r7, #-1]!
2000a2e0:	ea53 0501 	orrs.w	r5, r3, r1
2000a2e4:	d1f2      	bne.n	2000a2cc <_svfprintf_r+0x804>
2000a2e6:	2a30      	cmp	r2, #48	@ 0x30
2000a2e8:	d003      	beq.n	2000a2f2 <_svfprintf_r+0x82a>
2000a2ea:	9b07      	ldr	r3, [sp, #28]
2000a2ec:	07db      	lsls	r3, r3, #31
2000a2ee:	f100 84dc 	bmi.w	2000acaa <_svfprintf_r+0x11e2>
2000a2f2:	ab5e      	add	r3, sp, #376	@ 0x178
2000a2f4:	9a0a      	ldr	r2, [sp, #40]	@ 0x28
2000a2f6:	1bdb      	subs	r3, r3, r7
2000a2f8:	429a      	cmp	r2, r3
2000a2fa:	9310      	str	r3, [sp, #64]	@ 0x40
2000a2fc:	bfb8      	it	lt
2000a2fe:	461a      	movlt	r2, r3
2000a300:	9209      	str	r2, [sp, #36]	@ 0x24
2000a302:	2300      	movs	r3, #0
2000a304:	930f      	str	r3, [sp, #60]	@ 0x3c
2000a306:	9318      	str	r3, [sp, #96]	@ 0x60
2000a308:	e9cd 3313 	strd	r3, r3, [sp, #76]	@ 0x4c
2000a30c:	e508      	b.n	20009d20 <_svfprintf_r+0x258>
2000a30e:	9f08      	ldr	r7, [sp, #32]
2000a310:	4638      	mov	r0, r7
2000a312:	f001 fd11 	bl	2000bd38 <_localeconv_r>
2000a316:	6843      	ldr	r3, [r0, #4]
2000a318:	4618      	mov	r0, r3
2000a31a:	931c      	str	r3, [sp, #112]	@ 0x70
2000a31c:	f7ff fa56 	bl	200097cc <strlen>
2000a320:	901e      	str	r0, [sp, #120]	@ 0x78
2000a322:	4606      	mov	r6, r0
2000a324:	4638      	mov	r0, r7
2000a326:	f001 fd07 	bl	2000bd38 <_localeconv_r>
2000a32a:	6883      	ldr	r3, [r0, #8]
2000a32c:	f895 9000 	ldrb.w	r9, [r5]
2000a330:	931d      	str	r3, [sp, #116]	@ 0x74
2000a332:	2e00      	cmp	r6, #0
2000a334:	f43f ac26 	beq.w	20009b84 <_svfprintf_r+0xbc>
2000a338:	2b00      	cmp	r3, #0
2000a33a:	f43f ac23 	beq.w	20009b84 <_svfprintf_r+0xbc>
2000a33e:	781b      	ldrb	r3, [r3, #0]
2000a340:	2b00      	cmp	r3, #0
2000a342:	f43f ac1f 	beq.w	20009b84 <_svfprintf_r+0xbc>
2000a346:	9b07      	ldr	r3, [sp, #28]
2000a348:	f443 6380 	orr.w	r3, r3, #1024	@ 0x400
2000a34c:	9307      	str	r3, [sp, #28]
2000a34e:	e419      	b.n	20009b84 <_svfprintf_r+0xbc>
2000a350:	9b07      	ldr	r3, [sp, #28]
2000a352:	f895 9000 	ldrb.w	r9, [r5]
2000a356:	f043 0301 	orr.w	r3, r3, #1
2000a35a:	9307      	str	r3, [sp, #28]
2000a35c:	e412      	b.n	20009b84 <_svfprintf_r+0xbc>
2000a35e:	f89d 309f 	ldrb.w	r3, [sp, #159]	@ 0x9f
2000a362:	f895 9000 	ldrb.w	r9, [r5]
2000a366:	2b00      	cmp	r3, #0
2000a368:	f47f ac0c 	bne.w	20009b84 <_svfprintf_r+0xbc>
2000a36c:	2320      	movs	r3, #32
2000a36e:	f88d 309f 	strb.w	r3, [sp, #159]	@ 0x9f
2000a372:	e407      	b.n	20009b84 <_svfprintf_r+0xbc>
2000a374:	9b07      	ldr	r3, [sp, #28]
2000a376:	f895 9000 	ldrb.w	r9, [r5]
2000a37a:	f043 0380 	orr.w	r3, r3, #128	@ 0x80
2000a37e:	9307      	str	r3, [sp, #28]
2000a380:	e400      	b.n	20009b84 <_svfprintf_r+0xbc>
2000a382:	4629      	mov	r1, r5
2000a384:	f811 9b01 	ldrb.w	r9, [r1], #1
2000a388:	f1b9 0f2a 	cmp.w	r9, #42	@ 0x2a
2000a38c:	f001 83f0 	beq.w	2000bb70 <_svfprintf_r+0x20a8>
2000a390:	f1a9 0330 	sub.w	r3, r9, #48	@ 0x30
2000a394:	2b09      	cmp	r3, #9
2000a396:	f201 820a 	bhi.w	2000b7ae <_svfprintf_r+0x1ce6>
2000a39a:	2200      	movs	r2, #0
2000a39c:	eb02 0282 	add.w	r2, r2, r2, lsl #2
2000a3a0:	f811 9b01 	ldrb.w	r9, [r1], #1
2000a3a4:	eb03 0242 	add.w	r2, r3, r2, lsl #1
2000a3a8:	f1a9 0330 	sub.w	r3, r9, #48	@ 0x30
2000a3ac:	2b09      	cmp	r3, #9
2000a3ae:	d9f5      	bls.n	2000a39c <_svfprintf_r+0x8d4>
2000a3b0:	ea42 73e2 	orr.w	r3, r2, r2, asr #31
2000a3b4:	460d      	mov	r5, r1
2000a3b6:	930a      	str	r3, [sp, #40]	@ 0x28
2000a3b8:	f7ff bbe5 	b.w	20009b86 <_svfprintf_r+0xbe>
2000a3bc:	9b07      	ldr	r3, [sp, #28]
2000a3be:	950b      	str	r5, [sp, #44]	@ 0x2c
2000a3c0:	f043 0110 	orr.w	r1, r3, #16
2000a3c4:	069b      	lsls	r3, r3, #26
2000a3c6:	f53f ae97 	bmi.w	2000a0f8 <_svfprintf_r+0x630>
2000a3ca:	9b12      	ldr	r3, [sp, #72]	@ 0x48
2000a3cc:	1d1a      	adds	r2, r3, #4
2000a3ce:	2600      	movs	r6, #0
2000a3d0:	9b12      	ldr	r3, [sp, #72]	@ 0x48
2000a3d2:	980a      	ldr	r0, [sp, #40]	@ 0x28
2000a3d4:	681b      	ldr	r3, [r3, #0]
2000a3d6:	42b0      	cmp	r0, r6
2000a3d8:	f88d 609f 	strb.w	r6, [sp, #159]	@ 0x9f
2000a3dc:	461d      	mov	r5, r3
2000a3de:	f2c0 87ac 	blt.w	2000b33a <_svfprintf_r+0x1872>
2000a3e2:	f021 0180 	bic.w	r1, r1, #128	@ 0x80
2000a3e6:	9212      	str	r2, [sp, #72]	@ 0x48
2000a3e8:	9107      	str	r1, [sp, #28]
2000a3ea:	2b00      	cmp	r3, #0
2000a3ec:	f47f ae94 	bne.w	2000a118 <_svfprintf_r+0x650>
2000a3f0:	2800      	cmp	r0, #0
2000a3f2:	f000 82fc 	beq.w	2000a9ee <_svfprintf_r+0xf26>
2000a3f6:	e68f      	b.n	2000a118 <_svfprintf_r+0x650>
2000a3f8:	9b07      	ldr	r3, [sp, #28]
2000a3fa:	f895 9000 	ldrb.w	r9, [r5]
2000a3fe:	f043 0308 	orr.w	r3, r3, #8
2000a402:	9307      	str	r3, [sp, #28]
2000a404:	f7ff bbbe 	b.w	20009b84 <_svfprintf_r+0xbc>
2000a408:	9b07      	ldr	r3, [sp, #28]
2000a40a:	950b      	str	r5, [sp, #44]	@ 0x2c
2000a40c:	069d      	lsls	r5, r3, #26
2000a40e:	f043 0110 	orr.w	r1, r3, #16
2000a412:	f53f ad2c 	bmi.w	20009e6e <_svfprintf_r+0x3a6>
2000a416:	9b12      	ldr	r3, [sp, #72]	@ 0x48
2000a418:	1d1a      	adds	r2, r3, #4
2000a41a:	9b12      	ldr	r3, [sp, #72]	@ 0x48
2000a41c:	9107      	str	r1, [sp, #28]
2000a41e:	681d      	ldr	r5, [r3, #0]
2000a420:	9212      	str	r2, [sp, #72]	@ 0x48
2000a422:	17ee      	asrs	r6, r5, #31
2000a424:	4633      	mov	r3, r6
2000a426:	2b00      	cmp	r3, #0
2000a428:	f6bf ad2f 	bge.w	20009e8a <_svfprintf_r+0x3c2>
2000a42c:	232d      	movs	r3, #45	@ 0x2d
2000a42e:	426d      	negs	r5, r5
2000a430:	f88d 309f 	strb.w	r3, [sp, #159]	@ 0x9f
2000a434:	eb66 0646 	sbc.w	r6, r6, r6, lsl #1
2000a438:	9b0a      	ldr	r3, [sp, #40]	@ 0x28
2000a43a:	2b00      	cmp	r3, #0
2000a43c:	f6ff ae6c 	blt.w	2000a118 <_svfprintf_r+0x650>
2000a440:	9b07      	ldr	r3, [sp, #28]
2000a442:	2d0a      	cmp	r5, #10
2000a444:	f023 0380 	bic.w	r3, r3, #128	@ 0x80
2000a448:	9307      	str	r3, [sp, #28]
2000a44a:	f176 0300 	sbcs.w	r3, r6, #0
2000a44e:	f4ff ae68 	bcc.w	2000a122 <_svfprintf_r+0x65a>
2000a452:	9b07      	ldr	r3, [sp, #28]
2000a454:	2200      	movs	r2, #0
2000a456:	9409      	str	r4, [sp, #36]	@ 0x24
2000a458:	a95e      	add	r1, sp, #376	@ 0x178
2000a45a:	f403 6380 	and.w	r3, r3, #1024	@ 0x400
2000a45e:	f8cd 903c 	str.w	r9, [sp, #60]	@ 0x3c
2000a462:	f8df b9c4 	ldr.w	fp, [pc, #2500]	@ 2000ae28 <_svfprintf_r+0x1360>
2000a466:	4696      	mov	lr, r2
2000a468:	461c      	mov	r4, r3
2000a46a:	f8dd 9074 	ldr.w	r9, [sp, #116]	@ 0x74
2000a46e:	e023      	b.n	2000a4b8 <_svfprintf_r+0x9f0>
2000a470:	19ab      	adds	r3, r5, r6
2000a472:	46aa      	mov	sl, r5
2000a474:	4630      	mov	r0, r6
2000a476:	4639      	mov	r1, r7
2000a478:	f143 0300 	adc.w	r3, r3, #0
2000a47c:	fbab 2c03 	umull	r2, ip, fp, r3
2000a480:	f02c 0203 	bic.w	r2, ip, #3
2000a484:	eb02 029c 	add.w	r2, r2, ip, lsr #2
2000a488:	1a9b      	subs	r3, r3, r2
2000a48a:	f04f 32cc 	mov.w	r2, #3435973836	@ 0xcccccccc
2000a48e:	1aeb      	subs	r3, r5, r3
2000a490:	f166 0600 	sbc.w	r6, r6, #0
2000a494:	fb02 f203 	mul.w	r2, r2, r3
2000a498:	f1ba 0f0a 	cmp.w	sl, #10
2000a49c:	fba3 530b 	umull	r5, r3, r3, fp
2000a4a0:	fb0b 2206 	mla	r2, fp, r6, r2
2000a4a4:	ea4f 0555 	mov.w	r5, r5, lsr #1
2000a4a8:	f170 0000 	sbcs.w	r0, r0, #0
2000a4ac:	4413      	add	r3, r2
2000a4ae:	ea45 75c3 	orr.w	r5, r5, r3, lsl #31
2000a4b2:	ea4f 0653 	mov.w	r6, r3, lsr #1
2000a4b6:	d32b      	bcc.n	2000a510 <_svfprintf_r+0xa48>
2000a4b8:	19ab      	adds	r3, r5, r6
2000a4ba:	f10e 0e01 	add.w	lr, lr, #1
2000a4be:	f101 37ff 	add.w	r7, r1, #4294967295
2000a4c2:	f143 0300 	adc.w	r3, r3, #0
2000a4c6:	fbab 2003 	umull	r2, r0, fp, r3
2000a4ca:	f020 0203 	bic.w	r2, r0, #3
2000a4ce:	eb02 0290 	add.w	r2, r2, r0, lsr #2
2000a4d2:	1a9b      	subs	r3, r3, r2
2000a4d4:	1aeb      	subs	r3, r5, r3
2000a4d6:	fba3 320b 	umull	r3, r2, r3, fp
2000a4da:	f166 0000 	sbc.w	r0, r6, #0
2000a4de:	085b      	lsrs	r3, r3, #1
2000a4e0:	fb0b 2200 	mla	r2, fp, r0, r2
2000a4e4:	ea43 73c2 	orr.w	r3, r3, r2, lsl #31
2000a4e8:	eb03 0383 	add.w	r3, r3, r3, lsl #2
2000a4ec:	eba5 0343 	sub.w	r3, r5, r3, lsl #1
2000a4f0:	3330      	adds	r3, #48	@ 0x30
2000a4f2:	f801 3c01 	strb.w	r3, [r1, #-1]
2000a4f6:	2c00      	cmp	r4, #0
2000a4f8:	d0ba      	beq.n	2000a470 <_svfprintf_r+0x9a8>
2000a4fa:	f899 3000 	ldrb.w	r3, [r9]
2000a4fe:	2bff      	cmp	r3, #255	@ 0xff
2000a500:	d0b6      	beq.n	2000a470 <_svfprintf_r+0x9a8>
2000a502:	4573      	cmp	r3, lr
2000a504:	d1b4      	bne.n	2000a470 <_svfprintf_r+0x9a8>
2000a506:	2d0a      	cmp	r5, #10
2000a508:	f176 0300 	sbcs.w	r3, r6, #0
2000a50c:	f081 80ba 	bcs.w	2000b684 <_svfprintf_r+0x1bbc>
2000a510:	2200      	movs	r2, #0
2000a512:	ab5e      	add	r3, sp, #376	@ 0x178
2000a514:	9c09      	ldr	r4, [sp, #36]	@ 0x24
2000a516:	1bdb      	subs	r3, r3, r7
2000a518:	9213      	str	r2, [sp, #76]	@ 0x4c
2000a51a:	9a0a      	ldr	r2, [sp, #40]	@ 0x28
2000a51c:	f8cd 9074 	str.w	r9, [sp, #116]	@ 0x74
2000a520:	429a      	cmp	r2, r3
2000a522:	f8dd 903c 	ldr.w	r9, [sp, #60]	@ 0x3c
2000a526:	f89d c09f 	ldrb.w	ip, [sp, #159]	@ 0x9f
2000a52a:	bfb8      	it	lt
2000a52c:	461a      	movlt	r2, r3
2000a52e:	f8cd e054 	str.w	lr, [sp, #84]	@ 0x54
2000a532:	9310      	str	r3, [sp, #64]	@ 0x40
2000a534:	9209      	str	r2, [sp, #36]	@ 0x24
2000a536:	e604      	b.n	2000a142 <_svfprintf_r+0x67a>
2000a538:	9b0d      	ldr	r3, [sp, #52]	@ 0x34
2000a53a:	9a09      	ldr	r2, [sp, #36]	@ 0x24
2000a53c:	1a9e      	subs	r6, r3, r2
2000a53e:	2e00      	cmp	r6, #0
2000a540:	f77f ac19 	ble.w	20009d76 <_svfprintf_r+0x2ae>
2000a544:	2e10      	cmp	r6, #16
2000a546:	9a33      	ldr	r2, [sp, #204]	@ 0xcc
2000a548:	f8df a8e4 	ldr.w	sl, [pc, #2276]	@ 2000ae30 <_svfprintf_r+0x1368>
2000a54c:	dd23      	ble.n	2000a596 <_svfprintf_r+0xace>
2000a54e:	4629      	mov	r1, r5
2000a550:	2310      	movs	r3, #16
2000a552:	4655      	mov	r5, sl
2000a554:	f8dd b038 	ldr.w	fp, [sp, #56]	@ 0x38
2000a558:	f8dd a020 	ldr.w	sl, [sp, #32]
2000a55c:	e002      	b.n	2000a564 <_svfprintf_r+0xa9c>
2000a55e:	3e10      	subs	r6, #16
2000a560:	2e10      	cmp	r6, #16
2000a562:	dd16      	ble.n	2000a592 <_svfprintf_r+0xaca>
2000a564:	3201      	adds	r2, #1
2000a566:	3110      	adds	r1, #16
2000a568:	2a07      	cmp	r2, #7
2000a56a:	e9c4 5300 	strd	r5, r3, [r4]
2000a56e:	e9cd 2133 	strd	r2, r1, [sp, #204]	@ 0xcc
2000a572:	f104 0408 	add.w	r4, r4, #8
2000a576:	ddf2      	ble.n	2000a55e <_svfprintf_r+0xa96>
2000a578:	aa32      	add	r2, sp, #200	@ 0xc8
2000a57a:	4659      	mov	r1, fp
2000a57c:	4650      	mov	r0, sl
2000a57e:	f001 fb77 	bl	2000bc70 <__ssprint_r>
2000a582:	b9f8      	cbnz	r0, 2000a5c4 <_svfprintf_r+0xafc>
2000a584:	3e10      	subs	r6, #16
2000a586:	ac35      	add	r4, sp, #212	@ 0xd4
2000a588:	2310      	movs	r3, #16
2000a58a:	2e10      	cmp	r6, #16
2000a58c:	e9dd 2133 	ldrd	r2, r1, [sp, #204]	@ 0xcc
2000a590:	dce8      	bgt.n	2000a564 <_svfprintf_r+0xa9c>
2000a592:	46aa      	mov	sl, r5
2000a594:	460d      	mov	r5, r1
2000a596:	3201      	adds	r2, #1
2000a598:	4435      	add	r5, r6
2000a59a:	f8c4 a000 	str.w	sl, [r4]
2000a59e:	2a07      	cmp	r2, #7
2000a5a0:	6066      	str	r6, [r4, #4]
2000a5a2:	e9cd 2533 	strd	r2, r5, [sp, #204]	@ 0xcc
2000a5a6:	f300 85b0 	bgt.w	2000b10a <_svfprintf_r+0x1642>
2000a5aa:	3408      	adds	r4, #8
2000a5ac:	f7ff bbe3 	b.w	20009d76 <_svfprintf_r+0x2ae>
2000a5b0:	aa32      	add	r2, sp, #200	@ 0xc8
2000a5b2:	990e      	ldr	r1, [sp, #56]	@ 0x38
2000a5b4:	9808      	ldr	r0, [sp, #32]
2000a5b6:	f001 fb5b 	bl	2000bc70 <__ssprint_r>
2000a5ba:	2800      	cmp	r0, #0
2000a5bc:	f43f ac05 	beq.w	20009dca <_svfprintf_r+0x302>
2000a5c0:	f8dd a020 	ldr.w	sl, [sp, #32]
2000a5c4:	9b0f      	ldr	r3, [sp, #60]	@ 0x3c
2000a5c6:	2b00      	cmp	r3, #0
2000a5c8:	f43f ab7c 	beq.w	20009cc4 <_svfprintf_r+0x1fc>
2000a5cc:	990f      	ldr	r1, [sp, #60]	@ 0x3c
2000a5ce:	4650      	mov	r0, sl
2000a5d0:	f7ff f986 	bl	200098e0 <_free_r>
2000a5d4:	9b0e      	ldr	r3, [sp, #56]	@ 0x38
2000a5d6:	899b      	ldrh	r3, [r3, #12]
2000a5d8:	f003 0340 	and.w	r3, r3, #64	@ 0x40
2000a5dc:	f7ff bb76 	b.w	20009ccc <_svfprintf_r+0x204>
2000a5e0:	9e0d      	ldr	r6, [sp, #52]	@ 0x34
2000a5e2:	9909      	ldr	r1, [sp, #36]	@ 0x24
2000a5e4:	9318      	str	r3, [sp, #96]	@ 0x60
2000a5e6:	1a76      	subs	r6, r6, r1
2000a5e8:	2e00      	cmp	r6, #0
2000a5ea:	e9cd 3313 	strd	r3, r3, [sp, #76]	@ 0x4c
2000a5ee:	f300 813e 	bgt.w	2000a86e <_svfprintf_r+0xda6>
2000a5f2:	f1bc 0f00 	cmp.w	ip, #0
2000a5f6:	f43f abae 	beq.w	20009d56 <_svfprintf_r+0x28e>
2000a5fa:	2602      	movs	r6, #2
2000a5fc:	f7ff bb9c 	b.w	20009d38 <_svfprintf_r+0x270>
2000a600:	3301      	adds	r3, #1
2000a602:	4435      	add	r5, r6
2000a604:	f8c4 a000 	str.w	sl, [r4]
2000a608:	2b07      	cmp	r3, #7
2000a60a:	6066      	str	r6, [r4, #4]
2000a60c:	e9cd 3533 	strd	r3, r5, [sp, #204]	@ 0xcc
2000a610:	f77f abc6 	ble.w	20009da0 <_svfprintf_r+0x2d8>
2000a614:	aa32      	add	r2, sp, #200	@ 0xc8
2000a616:	990e      	ldr	r1, [sp, #56]	@ 0x38
2000a618:	9808      	ldr	r0, [sp, #32]
2000a61a:	f001 fb29 	bl	2000bc70 <__ssprint_r>
2000a61e:	2800      	cmp	r0, #0
2000a620:	d1ce      	bne.n	2000a5c0 <_svfprintf_r+0xaf8>
2000a622:	9d34      	ldr	r5, [sp, #208]	@ 0xd0
2000a624:	ac35      	add	r4, sp, #212	@ 0xd4
2000a626:	f7ff bbbc 	b.w	20009da2 <_svfprintf_r+0x2da>
2000a62a:	9b15      	ldr	r3, [sp, #84]	@ 0x54
2000a62c:	3501      	adds	r5, #1
2000a62e:	9e33      	ldr	r6, [sp, #204]	@ 0xcc
2000a630:	f104 0908 	add.w	r9, r4, #8
2000a634:	2b01      	cmp	r3, #1
2000a636:	f106 0601 	add.w	r6, r6, #1
2000a63a:	f340 8161 	ble.w	2000a900 <_svfprintf_r+0xe38>
2000a63e:	2301      	movs	r3, #1
2000a640:	2e07      	cmp	r6, #7
2000a642:	6027      	str	r7, [r4, #0]
2000a644:	6063      	str	r3, [r4, #4]
2000a646:	e9cd 6533 	strd	r6, r5, [sp, #204]	@ 0xcc
2000a64a:	f300 81b3 	bgt.w	2000a9b4 <_svfprintf_r+0xeec>
2000a64e:	9b19      	ldr	r3, [sp, #100]	@ 0x64
2000a650:	3601      	adds	r6, #1
2000a652:	9a1a      	ldr	r2, [sp, #104]	@ 0x68
2000a654:	441d      	add	r5, r3
2000a656:	2e07      	cmp	r6, #7
2000a658:	e9c9 2300 	strd	r2, r3, [r9]
2000a65c:	e9cd 6533 	strd	r6, r5, [sp, #204]	@ 0xcc
2000a660:	f300 819b 	bgt.w	2000a99a <_svfprintf_r+0xed2>
2000a664:	f109 0908 	add.w	r9, r9, #8
2000a668:	9b15      	ldr	r3, [sp, #84]	@ 0x54
2000a66a:	2200      	movs	r2, #0
2000a66c:	1e5c      	subs	r4, r3, #1
2000a66e:	2300      	movs	r3, #0
2000a670:	e9dd 0116 	ldrd	r0, r1, [sp, #88]	@ 0x58
2000a674:	f7f9 fe10 	bl	20004298 <__wrap___aeabi_dcmpeq>
2000a678:	2800      	cmp	r0, #0
2000a67a:	f040 815a 	bne.w	2000a932 <_svfprintf_r+0xe6a>
2000a67e:	3601      	adds	r6, #1
2000a680:	3701      	adds	r7, #1
2000a682:	4425      	add	r5, r4
2000a684:	f8c9 4004 	str.w	r4, [r9, #4]
2000a688:	2e07      	cmp	r6, #7
2000a68a:	f8c9 7000 	str.w	r7, [r9]
2000a68e:	e9cd 6533 	strd	r6, r5, [sp, #204]	@ 0xcc
2000a692:	f300 8141 	bgt.w	2000a918 <_svfprintf_r+0xe50>
2000a696:	f109 0908 	add.w	r9, r9, #8
2000a69a:	9b1b      	ldr	r3, [sp, #108]	@ 0x6c
2000a69c:	3601      	adds	r6, #1
2000a69e:	441d      	add	r5, r3
2000a6a0:	f8c9 3004 	str.w	r3, [r9, #4]
2000a6a4:	2e07      	cmp	r6, #7
2000a6a6:	ab2c      	add	r3, sp, #176	@ 0xb0
2000a6a8:	e9cd 6533 	strd	r6, r5, [sp, #204]	@ 0xcc
2000a6ac:	f8c9 3000 	str.w	r3, [r9]
2000a6b0:	dcb0      	bgt.n	2000a614 <_svfprintf_r+0xb4c>
2000a6b2:	f109 0408 	add.w	r4, r9, #8
2000a6b6:	f7ff bb74 	b.w	20009da2 <_svfprintf_r+0x2da>
2000a6ba:	aa32      	add	r2, sp, #200	@ 0xc8
2000a6bc:	990e      	ldr	r1, [sp, #56]	@ 0x38
2000a6be:	9808      	ldr	r0, [sp, #32]
2000a6c0:	931f      	str	r3, [sp, #124]	@ 0x7c
2000a6c2:	f001 fad5 	bl	2000bc70 <__ssprint_r>
2000a6c6:	2800      	cmp	r0, #0
2000a6c8:	f47f af7a 	bne.w	2000a5c0 <_svfprintf_r+0xaf8>
2000a6cc:	9d34      	ldr	r5, [sp, #208]	@ 0xd0
2000a6ce:	ac35      	add	r4, sp, #212	@ 0xd4
2000a6d0:	9b1f      	ldr	r3, [sp, #124]	@ 0x7c
2000a6d2:	f7ff bb4d 	b.w	20009d70 <_svfprintf_r+0x2a8>
2000a6d6:	aa32      	add	r2, sp, #200	@ 0xc8
2000a6d8:	990e      	ldr	r1, [sp, #56]	@ 0x38
2000a6da:	9808      	ldr	r0, [sp, #32]
2000a6dc:	931f      	str	r3, [sp, #124]	@ 0x7c
2000a6de:	f001 fac7 	bl	2000bc70 <__ssprint_r>
2000a6e2:	2800      	cmp	r0, #0
2000a6e4:	f47f af6c 	bne.w	2000a5c0 <_svfprintf_r+0xaf8>
2000a6e8:	9d34      	ldr	r5, [sp, #208]	@ 0xd0
2000a6ea:	ac35      	add	r4, sp, #212	@ 0xd4
2000a6ec:	9b1f      	ldr	r3, [sp, #124]	@ 0x7c
2000a6ee:	f7ff bb30 	b.w	20009d52 <_svfprintf_r+0x28a>
2000a6f2:	2e10      	cmp	r6, #16
2000a6f4:	9b33      	ldr	r3, [sp, #204]	@ 0xcc
2000a6f6:	f8df a73c 	ldr.w	sl, [pc, #1852]	@ 2000ae34 <_svfprintf_r+0x136c>
2000a6fa:	dd20      	ble.n	2000a73e <_svfprintf_r+0xc76>
2000a6fc:	2710      	movs	r7, #16
2000a6fe:	f8dd 9020 	ldr.w	r9, [sp, #32]
2000a702:	f8dd b038 	ldr.w	fp, [sp, #56]	@ 0x38
2000a706:	e002      	b.n	2000a70e <_svfprintf_r+0xc46>
2000a708:	3e10      	subs	r6, #16
2000a70a:	2e10      	cmp	r6, #16
2000a70c:	dd17      	ble.n	2000a73e <_svfprintf_r+0xc76>
2000a70e:	3301      	adds	r3, #1
2000a710:	3510      	adds	r5, #16
2000a712:	2b07      	cmp	r3, #7
2000a714:	e9c4 a700 	strd	sl, r7, [r4]
2000a718:	e9cd 3533 	strd	r3, r5, [sp, #204]	@ 0xcc
2000a71c:	f104 0408 	add.w	r4, r4, #8
2000a720:	ddf2      	ble.n	2000a708 <_svfprintf_r+0xc40>
2000a722:	aa32      	add	r2, sp, #200	@ 0xc8
2000a724:	4659      	mov	r1, fp
2000a726:	4648      	mov	r0, r9
2000a728:	ac35      	add	r4, sp, #212	@ 0xd4
2000a72a:	f001 faa1 	bl	2000bc70 <__ssprint_r>
2000a72e:	2800      	cmp	r0, #0
2000a730:	f040 8497 	bne.w	2000b062 <_svfprintf_r+0x159a>
2000a734:	3e10      	subs	r6, #16
2000a736:	2e10      	cmp	r6, #16
2000a738:	e9dd 3533 	ldrd	r3, r5, [sp, #204]	@ 0xcc
2000a73c:	dce7      	bgt.n	2000a70e <_svfprintf_r+0xc46>
2000a73e:	3301      	adds	r3, #1
2000a740:	4435      	add	r5, r6
2000a742:	2b07      	cmp	r3, #7
2000a744:	e9c4 a600 	strd	sl, r6, [r4]
2000a748:	e9cd 3533 	strd	r3, r5, [sp, #204]	@ 0xcc
2000a74c:	f77f ab32 	ble.w	20009db4 <_svfprintf_r+0x2ec>
2000a750:	aa32      	add	r2, sp, #200	@ 0xc8
2000a752:	990e      	ldr	r1, [sp, #56]	@ 0x38
2000a754:	9808      	ldr	r0, [sp, #32]
2000a756:	f001 fa8b 	bl	2000bc70 <__ssprint_r>
2000a75a:	2800      	cmp	r0, #0
2000a75c:	f47f af30 	bne.w	2000a5c0 <_svfprintf_r+0xaf8>
2000a760:	9d34      	ldr	r5, [sp, #208]	@ 0xd0
2000a762:	f7ff bb27 	b.w	20009db4 <_svfprintf_r+0x2ec>
2000a766:	46da      	mov	sl, fp
2000a768:	e72c      	b.n	2000a5c4 <_svfprintf_r+0xafc>
2000a76a:	2200      	movs	r2, #0
2000a76c:	2602      	movs	r6, #2
2000a76e:	9218      	str	r2, [sp, #96]	@ 0x60
2000a770:	e9cd 2213 	strd	r2, r2, [sp, #76]	@ 0x4c
2000a774:	f7ff bae0 	b.w	20009d38 <_svfprintf_r+0x270>
2000a778:	9929      	ldr	r1, [sp, #164]	@ 0xa4
2000a77a:	2900      	cmp	r1, #0
2000a77c:	f340 841e 	ble.w	2000afbc <_svfprintf_r+0x14f4>
2000a780:	9b13      	ldr	r3, [sp, #76]	@ 0x4c
2000a782:	9a15      	ldr	r2, [sp, #84]	@ 0x54
2000a784:	4293      	cmp	r3, r2
2000a786:	bfa8      	it	ge
2000a788:	4613      	movge	r3, r2
2000a78a:	2b00      	cmp	r3, #0
2000a78c:	4699      	mov	r9, r3
2000a78e:	dd0a      	ble.n	2000a7a6 <_svfprintf_r+0xcde>
2000a790:	441d      	add	r5, r3
2000a792:	e9c4 7300 	strd	r7, r3, [r4]
2000a796:	9b33      	ldr	r3, [sp, #204]	@ 0xcc
2000a798:	9534      	str	r5, [sp, #208]	@ 0xd0
2000a79a:	3301      	adds	r3, #1
2000a79c:	2b07      	cmp	r3, #7
2000a79e:	9333      	str	r3, [sp, #204]	@ 0xcc
2000a7a0:	f300 874e 	bgt.w	2000b640 <_svfprintf_r+0x1b78>
2000a7a4:	3408      	adds	r4, #8
2000a7a6:	9e13      	ldr	r6, [sp, #76]	@ 0x4c
2000a7a8:	f1b9 0f00 	cmp.w	r9, #0
2000a7ac:	bfa8      	it	ge
2000a7ae:	eba6 0609 	subge.w	r6, r6, r9
2000a7b2:	2e00      	cmp	r6, #0
2000a7b4:	f300 831f 	bgt.w	2000adf6 <_svfprintf_r+0x132e>
2000a7b8:	9a07      	ldr	r2, [sp, #28]
2000a7ba:	9b13      	ldr	r3, [sp, #76]	@ 0x4c
2000a7bc:	0552      	lsls	r2, r2, #21
2000a7be:	443b      	add	r3, r7
2000a7c0:	f100 8354 	bmi.w	2000ae6c <_svfprintf_r+0x13a4>
2000a7c4:	9e29      	ldr	r6, [sp, #164]	@ 0xa4
2000a7c6:	9a15      	ldr	r2, [sp, #84]	@ 0x54
2000a7c8:	4296      	cmp	r6, r2
2000a7ca:	db03      	blt.n	2000a7d4 <_svfprintf_r+0xd0c>
2000a7cc:	9907      	ldr	r1, [sp, #28]
2000a7ce:	07c8      	lsls	r0, r1, #31
2000a7d0:	f140 8628 	bpl.w	2000b424 <_svfprintf_r+0x195c>
2000a7d4:	9a19      	ldr	r2, [sp, #100]	@ 0x64
2000a7d6:	991a      	ldr	r1, [sp, #104]	@ 0x68
2000a7d8:	4415      	add	r5, r2
2000a7da:	e9c4 1200 	strd	r1, r2, [r4]
2000a7de:	9a33      	ldr	r2, [sp, #204]	@ 0xcc
2000a7e0:	9534      	str	r5, [sp, #208]	@ 0xd0
2000a7e2:	3201      	adds	r2, #1
2000a7e4:	2a07      	cmp	r2, #7
2000a7e6:	9233      	str	r2, [sp, #204]	@ 0xcc
2000a7e8:	f300 879a 	bgt.w	2000b720 <_svfprintf_r+0x1c58>
2000a7ec:	3408      	adds	r4, #8
2000a7ee:	9a15      	ldr	r2, [sp, #84]	@ 0x54
2000a7f0:	4417      	add	r7, r2
2000a7f2:	1b96      	subs	r6, r2, r6
2000a7f4:	1aff      	subs	r7, r7, r3
2000a7f6:	42b7      	cmp	r7, r6
2000a7f8:	bfa8      	it	ge
2000a7fa:	4637      	movge	r7, r6
2000a7fc:	2f00      	cmp	r7, #0
2000a7fe:	dd0a      	ble.n	2000a816 <_svfprintf_r+0xd4e>
2000a800:	6023      	str	r3, [r4, #0]
2000a802:	443d      	add	r5, r7
2000a804:	9b33      	ldr	r3, [sp, #204]	@ 0xcc
2000a806:	6067      	str	r7, [r4, #4]
2000a808:	3301      	adds	r3, #1
2000a80a:	9534      	str	r5, [sp, #208]	@ 0xd0
2000a80c:	2b07      	cmp	r3, #7
2000a80e:	9333      	str	r3, [sp, #204]	@ 0xcc
2000a810:	f300 87be 	bgt.w	2000b790 <_svfprintf_r+0x1cc8>
2000a814:	3408      	adds	r4, #8
2000a816:	2f00      	cmp	r7, #0
2000a818:	bfa8      	it	ge
2000a81a:	1bf6      	subge	r6, r6, r7
2000a81c:	2e00      	cmp	r6, #0
2000a81e:	f77f aac0 	ble.w	20009da2 <_svfprintf_r+0x2da>
2000a822:	2e10      	cmp	r6, #16
2000a824:	9b33      	ldr	r3, [sp, #204]	@ 0xcc
2000a826:	f8df a608 	ldr.w	sl, [pc, #1544]	@ 2000ae30 <_svfprintf_r+0x1368>
2000a82a:	f77f aee9 	ble.w	2000a600 <_svfprintf_r+0xb38>
2000a82e:	2710      	movs	r7, #16
2000a830:	f8dd 9020 	ldr.w	r9, [sp, #32]
2000a834:	f8dd b038 	ldr.w	fp, [sp, #56]	@ 0x38
2000a838:	e003      	b.n	2000a842 <_svfprintf_r+0xd7a>
2000a83a:	3e10      	subs	r6, #16
2000a83c:	2e10      	cmp	r6, #16
2000a83e:	f77f aedf 	ble.w	2000a600 <_svfprintf_r+0xb38>
2000a842:	3301      	adds	r3, #1
2000a844:	3510      	adds	r5, #16
2000a846:	2b07      	cmp	r3, #7
2000a848:	e9c4 a700 	strd	sl, r7, [r4]
2000a84c:	e9cd 3533 	strd	r3, r5, [sp, #204]	@ 0xcc
2000a850:	f104 0408 	add.w	r4, r4, #8
2000a854:	ddf1      	ble.n	2000a83a <_svfprintf_r+0xd72>
2000a856:	aa32      	add	r2, sp, #200	@ 0xc8
2000a858:	4659      	mov	r1, fp
2000a85a:	4648      	mov	r0, r9
2000a85c:	f001 fa08 	bl	2000bc70 <__ssprint_r>
2000a860:	2800      	cmp	r0, #0
2000a862:	f040 83fe 	bne.w	2000b062 <_svfprintf_r+0x159a>
2000a866:	ac35      	add	r4, sp, #212	@ 0xd4
2000a868:	e9dd 3533 	ldrd	r3, r5, [sp, #204]	@ 0xcc
2000a86c:	e7e5      	b.n	2000a83a <_svfprintf_r+0xd72>
2000a86e:	2302      	movs	r3, #2
2000a870:	2e10      	cmp	r6, #16
2000a872:	4671      	mov	r1, lr
2000a874:	f8df a5bc 	ldr.w	sl, [pc, #1468]	@ 2000ae34 <_svfprintf_r+0x136c>
2000a878:	dd2a      	ble.n	2000a8d0 <_svfprintf_r+0xe08>
2000a87a:	931f      	str	r3, [sp, #124]	@ 0x7c
2000a87c:	4653      	mov	r3, sl
2000a87e:	46a4      	mov	ip, r4
2000a880:	46ba      	mov	sl, r7
2000a882:	2510      	movs	r5, #16
2000a884:	f8dd b020 	ldr.w	fp, [sp, #32]
2000a888:	9c0e      	ldr	r4, [sp, #56]	@ 0x38
2000a88a:	461f      	mov	r7, r3
2000a88c:	e002      	b.n	2000a894 <_svfprintf_r+0xdcc>
2000a88e:	3e10      	subs	r6, #16
2000a890:	2e10      	cmp	r6, #16
2000a892:	dd18      	ble.n	2000a8c6 <_svfprintf_r+0xdfe>
2000a894:	3201      	adds	r2, #1
2000a896:	3110      	adds	r1, #16
2000a898:	2a07      	cmp	r2, #7
2000a89a:	e9cc 7500 	strd	r7, r5, [ip]
2000a89e:	e9cd 2133 	strd	r2, r1, [sp, #204]	@ 0xcc
2000a8a2:	f10c 0c08 	add.w	ip, ip, #8
2000a8a6:	ddf2      	ble.n	2000a88e <_svfprintf_r+0xdc6>
2000a8a8:	aa32      	add	r2, sp, #200	@ 0xc8
2000a8aa:	4621      	mov	r1, r4
2000a8ac:	4658      	mov	r0, fp
2000a8ae:	f001 f9df 	bl	2000bc70 <__ssprint_r>
2000a8b2:	f10d 0cd4 	add.w	ip, sp, #212	@ 0xd4
2000a8b6:	2800      	cmp	r0, #0
2000a8b8:	f47f af55 	bne.w	2000a766 <_svfprintf_r+0xc9e>
2000a8bc:	3e10      	subs	r6, #16
2000a8be:	2e10      	cmp	r6, #16
2000a8c0:	e9dd 2133 	ldrd	r2, r1, [sp, #204]	@ 0xcc
2000a8c4:	dce6      	bgt.n	2000a894 <_svfprintf_r+0xdcc>
2000a8c6:	4638      	mov	r0, r7
2000a8c8:	4664      	mov	r4, ip
2000a8ca:	4657      	mov	r7, sl
2000a8cc:	9b1f      	ldr	r3, [sp, #124]	@ 0x7c
2000a8ce:	4682      	mov	sl, r0
2000a8d0:	1c50      	adds	r0, r2, #1
2000a8d2:	1875      	adds	r5, r6, r1
2000a8d4:	f8c4 a000 	str.w	sl, [r4]
2000a8d8:	2807      	cmp	r0, #7
2000a8da:	6066      	str	r6, [r4, #4]
2000a8dc:	e9cd 0533 	strd	r0, r5, [sp, #204]	@ 0xcc
2000a8e0:	f300 839c 	bgt.w	2000b01c <_svfprintf_r+0x1554>
2000a8e4:	f89d 209f 	ldrb.w	r2, [sp, #159]	@ 0x9f
2000a8e8:	3408      	adds	r4, #8
2000a8ea:	2a00      	cmp	r2, #0
2000a8ec:	f040 809b 	bne.w	2000aa26 <_svfprintf_r+0xf5e>
2000a8f0:	2b00      	cmp	r3, #0
2000a8f2:	f43f aa40 	beq.w	20009d76 <_svfprintf_r+0x2ae>
2000a8f6:	4613      	mov	r3, r2
2000a8f8:	f7ff ba2d 	b.w	20009d56 <_svfprintf_r+0x28e>
2000a8fc:	9a33      	ldr	r2, [sp, #204]	@ 0xcc
2000a8fe:	e7b7      	b.n	2000a870 <_svfprintf_r+0xda8>
2000a900:	9b07      	ldr	r3, [sp, #28]
2000a902:	07d9      	lsls	r1, r3, #31
2000a904:	f53f ae9b 	bmi.w	2000a63e <_svfprintf_r+0xb76>
2000a908:	2301      	movs	r3, #1
2000a90a:	2e07      	cmp	r6, #7
2000a90c:	6027      	str	r7, [r4, #0]
2000a90e:	6063      	str	r3, [r4, #4]
2000a910:	e9cd 6533 	strd	r6, r5, [sp, #204]	@ 0xcc
2000a914:	f77f aec1 	ble.w	2000a69a <_svfprintf_r+0xbd2>
2000a918:	aa32      	add	r2, sp, #200	@ 0xc8
2000a91a:	990e      	ldr	r1, [sp, #56]	@ 0x38
2000a91c:	9808      	ldr	r0, [sp, #32]
2000a91e:	f001 f9a7 	bl	2000bc70 <__ssprint_r>
2000a922:	2800      	cmp	r0, #0
2000a924:	f47f ae4c 	bne.w	2000a5c0 <_svfprintf_r+0xaf8>
2000a928:	f10d 09d4 	add.w	r9, sp, #212	@ 0xd4
2000a92c:	e9dd 6533 	ldrd	r6, r5, [sp, #204]	@ 0xcc
2000a930:	e6b3      	b.n	2000a69a <_svfprintf_r+0xbd2>
2000a932:	9b15      	ldr	r3, [sp, #84]	@ 0x54
2000a934:	2b01      	cmp	r3, #1
2000a936:	f77f aeb0 	ble.w	2000a69a <_svfprintf_r+0xbd2>
2000a93a:	2b11      	cmp	r3, #17
2000a93c:	f8df a4f0 	ldr.w	sl, [pc, #1264]	@ 2000ae30 <_svfprintf_r+0x1368>
2000a940:	f340 8408 	ble.w	2000b154 <_svfprintf_r+0x168c>
2000a944:	2710      	movs	r7, #16
2000a946:	f8dd b020 	ldr.w	fp, [sp, #32]
2000a94a:	e003      	b.n	2000a954 <_svfprintf_r+0xe8c>
2000a94c:	3c10      	subs	r4, #16
2000a94e:	2c10      	cmp	r4, #16
2000a950:	f340 8400 	ble.w	2000b154 <_svfprintf_r+0x168c>
2000a954:	3601      	adds	r6, #1
2000a956:	3510      	adds	r5, #16
2000a958:	2e07      	cmp	r6, #7
2000a95a:	e9c9 a700 	strd	sl, r7, [r9]
2000a95e:	e9cd 6533 	strd	r6, r5, [sp, #204]	@ 0xcc
2000a962:	f109 0908 	add.w	r9, r9, #8
2000a966:	ddf1      	ble.n	2000a94c <_svfprintf_r+0xe84>
2000a968:	aa32      	add	r2, sp, #200	@ 0xc8
2000a96a:	990e      	ldr	r1, [sp, #56]	@ 0x38
2000a96c:	4658      	mov	r0, fp
2000a96e:	f001 f97f 	bl	2000bc70 <__ssprint_r>
2000a972:	2800      	cmp	r0, #0
2000a974:	f47f aef7 	bne.w	2000a766 <_svfprintf_r+0xc9e>
2000a978:	f10d 09d4 	add.w	r9, sp, #212	@ 0xd4
2000a97c:	e9dd 6533 	ldrd	r6, r5, [sp, #204]	@ 0xcc
2000a980:	e7e4      	b.n	2000a94c <_svfprintf_r+0xe84>
2000a982:	aa32      	add	r2, sp, #200	@ 0xc8
2000a984:	990e      	ldr	r1, [sp, #56]	@ 0x38
2000a986:	9808      	ldr	r0, [sp, #32]
2000a988:	f001 f972 	bl	2000bc70 <__ssprint_r>
2000a98c:	2800      	cmp	r0, #0
2000a98e:	f47f ae17 	bne.w	2000a5c0 <_svfprintf_r+0xaf8>
2000a992:	9d34      	ldr	r5, [sp, #208]	@ 0xd0
2000a994:	ac35      	add	r4, sp, #212	@ 0xd4
2000a996:	f7ff b9f4 	b.w	20009d82 <_svfprintf_r+0x2ba>
2000a99a:	aa32      	add	r2, sp, #200	@ 0xc8
2000a99c:	990e      	ldr	r1, [sp, #56]	@ 0x38
2000a99e:	9808      	ldr	r0, [sp, #32]
2000a9a0:	f001 f966 	bl	2000bc70 <__ssprint_r>
2000a9a4:	2800      	cmp	r0, #0
2000a9a6:	f47f ae0b 	bne.w	2000a5c0 <_svfprintf_r+0xaf8>
2000a9aa:	f10d 09d4 	add.w	r9, sp, #212	@ 0xd4
2000a9ae:	e9dd 6533 	ldrd	r6, r5, [sp, #204]	@ 0xcc
2000a9b2:	e659      	b.n	2000a668 <_svfprintf_r+0xba0>
2000a9b4:	aa32      	add	r2, sp, #200	@ 0xc8
2000a9b6:	990e      	ldr	r1, [sp, #56]	@ 0x38
2000a9b8:	9808      	ldr	r0, [sp, #32]
2000a9ba:	f001 f959 	bl	2000bc70 <__ssprint_r>
2000a9be:	2800      	cmp	r0, #0
2000a9c0:	f47f adfe 	bne.w	2000a5c0 <_svfprintf_r+0xaf8>
2000a9c4:	f10d 09d4 	add.w	r9, sp, #212	@ 0xd4
2000a9c8:	e9dd 6533 	ldrd	r6, r5, [sp, #204]	@ 0xcc
2000a9cc:	e63f      	b.n	2000a64e <_svfprintf_r+0xb86>
2000a9ce:	9b07      	ldr	r3, [sp, #28]
2000a9d0:	07d8      	lsls	r0, r3, #31
2000a9d2:	f57f a9e6 	bpl.w	20009da2 <_svfprintf_r+0x2da>
2000a9d6:	f7ff bae7 	b.w	20009fa8 <_svfprintf_r+0x4e0>
2000a9da:	f021 0380 	bic.w	r3, r1, #128	@ 0x80
2000a9de:	9307      	str	r3, [sp, #28]
2000a9e0:	ea55 0306 	orrs.w	r3, r5, r6
2000a9e4:	f47f ab98 	bne.w	2000a118 <_svfprintf_r+0x650>
2000a9e8:	2a00      	cmp	r2, #0
2000a9ea:	f47f ab95 	bne.w	2000a118 <_svfprintf_r+0x650>
2000a9ee:	9a07      	ldr	r2, [sp, #28]
2000a9f0:	2300      	movs	r3, #0
2000a9f2:	f89d c09f 	ldrb.w	ip, [sp, #159]	@ 0x9f
2000a9f6:	af5e      	add	r7, sp, #376	@ 0x178
2000a9f8:	f002 0202 	and.w	r2, r2, #2
2000a9fc:	9309      	str	r3, [sp, #36]	@ 0x24
2000a9fe:	9310      	str	r3, [sp, #64]	@ 0x40
2000aa00:	9213      	str	r2, [sp, #76]	@ 0x4c
2000aa02:	930a      	str	r3, [sp, #40]	@ 0x28
2000aa04:	f7ff bb9d 	b.w	2000a142 <_svfprintf_r+0x67a>
2000aa08:	f895 9000 	ldrb.w	r9, [r5]
2000aa0c:	9312      	str	r3, [sp, #72]	@ 0x48
2000aa0e:	f7ff b8b9 	b.w	20009b84 <_svfprintf_r+0xbc>
2000aa12:	9a09      	ldr	r2, [sp, #36]	@ 0x24
2000aa14:	af5e      	add	r7, sp, #376	@ 0x178
2000aa16:	920a      	str	r2, [sp, #40]	@ 0x28
2000aa18:	9210      	str	r2, [sp, #64]	@ 0x40
2000aa1a:	9218      	str	r2, [sp, #96]	@ 0x60
2000aa1c:	920f      	str	r2, [sp, #60]	@ 0x3c
2000aa1e:	e9cd 2213 	strd	r2, r2, [sp, #76]	@ 0x4c
2000aa22:	f7ff b97d 	b.w	20009d20 <_svfprintf_r+0x258>
2000aa26:	461e      	mov	r6, r3
2000aa28:	2300      	movs	r3, #0
2000aa2a:	f7ff b985 	b.w	20009d38 <_svfprintf_r+0x270>
2000aa2e:	9907      	ldr	r1, [sp, #28]
2000aa30:	9a12      	ldr	r2, [sp, #72]	@ 0x48
2000aa32:	f011 0610 	ands.w	r6, r1, #16
2000aa36:	f852 3b04 	ldr.w	r3, [r2], #4
2000aa3a:	f47f acc8 	bne.w	2000a3ce <_svfprintf_r+0x906>
2000aa3e:	9807      	ldr	r0, [sp, #28]
2000aa40:	f010 0140 	ands.w	r1, r0, #64	@ 0x40
2000aa44:	f000 83ae 	beq.w	2000b1a4 <_svfprintf_r+0x16dc>
2000aa48:	b29d      	uxth	r5, r3
2000aa4a:	9b0a      	ldr	r3, [sp, #40]	@ 0x28
2000aa4c:	f88d 609f 	strb.w	r6, [sp, #159]	@ 0x9f
2000aa50:	2b00      	cmp	r3, #0
2000aa52:	f2c0 8258 	blt.w	2000af06 <_svfprintf_r+0x143e>
2000aa56:	f020 0180 	bic.w	r1, r0, #128	@ 0x80
2000aa5a:	9212      	str	r2, [sp, #72]	@ 0x48
2000aa5c:	9107      	str	r1, [sp, #28]
2000aa5e:	2d00      	cmp	r5, #0
2000aa60:	f47f ab5a 	bne.w	2000a118 <_svfprintf_r+0x650>
2000aa64:	2b00      	cmp	r3, #0
2000aa66:	d0c2      	beq.n	2000a9ee <_svfprintf_r+0xf26>
2000aa68:	f7ff bb56 	b.w	2000a118 <_svfprintf_r+0x650>
2000aa6c:	9907      	ldr	r1, [sp, #28]
2000aa6e:	9a12      	ldr	r2, [sp, #72]	@ 0x48
2000aa70:	f011 0110 	ands.w	r1, r1, #16
2000aa74:	f852 3b04 	ldr.w	r3, [r2], #4
2000aa78:	f041 80e2 	bne.w	2000bc40 <_svfprintf_r+0x2178>
2000aa7c:	9d07      	ldr	r5, [sp, #28]
2000aa7e:	f015 0040 	ands.w	r0, r5, #64	@ 0x40
2000aa82:	f000 83a8 	beq.w	2000b1d6 <_svfprintf_r+0x170e>
2000aa86:	b29b      	uxth	r3, r3
2000aa88:	4628      	mov	r0, r5
2000aa8a:	9212      	str	r2, [sp, #72]	@ 0x48
2000aa8c:	f7ff bbe6 	b.w	2000a25c <_svfprintf_r+0x794>
2000aa90:	9b07      	ldr	r3, [sp, #28]
2000aa92:	06db      	lsls	r3, r3, #27
2000aa94:	f100 8358 	bmi.w	2000b148 <_svfprintf_r+0x1680>
2000aa98:	9b07      	ldr	r3, [sp, #28]
2000aa9a:	065f      	lsls	r7, r3, #25
2000aa9c:	f100 84ca 	bmi.w	2000b434 <_svfprintf_r+0x196c>
2000aaa0:	9b07      	ldr	r3, [sp, #28]
2000aaa2:	059e      	lsls	r6, r3, #22
2000aaa4:	f140 8350 	bpl.w	2000b148 <_svfprintf_r+0x1680>
2000aaa8:	9b12      	ldr	r3, [sp, #72]	@ 0x48
2000aaaa:	9a0c      	ldr	r2, [sp, #48]	@ 0x30
2000aaac:	681b      	ldr	r3, [r3, #0]
2000aaae:	701a      	strb	r2, [r3, #0]
2000aab0:	f7ff bb98 	b.w	2000a1e4 <_svfprintf_r+0x71c>
2000aab4:	9b07      	ldr	r3, [sp, #28]
2000aab6:	9a12      	ldr	r2, [sp, #72]	@ 0x48
2000aab8:	06d9      	lsls	r1, r3, #27
2000aaba:	f852 5b04 	ldr.w	r5, [r2], #4
2000aabe:	f101 80ce 	bmi.w	2000bc5e <_svfprintf_r+0x2196>
2000aac2:	9b07      	ldr	r3, [sp, #28]
2000aac4:	065f      	lsls	r7, r3, #25
2000aac6:	f140 835a 	bpl.w	2000b17e <_svfprintf_r+0x16b6>
2000aaca:	f345 36c0 	sbfx	r6, r5, #15, #1
2000aace:	9212      	str	r2, [sp, #72]	@ 0x48
2000aad0:	b22d      	sxth	r5, r5
2000aad2:	4633      	mov	r3, r6
2000aad4:	f7ff b9d6 	b.w	20009e84 <_svfprintf_r+0x3bc>
2000aad8:	e9dd 0116 	ldrd	r0, r1, [sp, #88]	@ 0x58
2000aadc:	4602      	mov	r2, r0
2000aade:	460b      	mov	r3, r1
2000aae0:	f7f9 fbc8 	bl	20004274 <__wrap___aeabi_dcmpun>
2000aae4:	4606      	mov	r6, r0
2000aae6:	2800      	cmp	r0, #0
2000aae8:	f040 86e0 	bne.w	2000b8ac <_svfprintf_r+0x1de4>
2000aaec:	f029 0b20 	bic.w	fp, r9, #32
2000aaf0:	f1bb 0f41 	cmp.w	fp, #65	@ 0x41
2000aaf4:	f040 8380 	bne.w	2000b1f8 <_svfprintf_r+0x1730>
2000aaf8:	2330      	movs	r3, #48	@ 0x30
2000aafa:	f1b9 0f61 	cmp.w	r9, #97	@ 0x61
2000aafe:	f88d 30a0 	strb.w	r3, [sp, #160]	@ 0xa0
2000ab02:	bf14      	ite	ne
2000ab04:	2358      	movne	r3, #88	@ 0x58
2000ab06:	2378      	moveq	r3, #120	@ 0x78
2000ab08:	f88d 30a1 	strb.w	r3, [sp, #161]	@ 0xa1
2000ab0c:	9b0a      	ldr	r3, [sp, #40]	@ 0x28
2000ab0e:	2b63      	cmp	r3, #99	@ 0x63
2000ab10:	f300 84db 	bgt.w	2000b4ca <_svfprintf_r+0x1a02>
2000ab14:	e9dd 1216 	ldrd	r1, r2, [sp, #88]	@ 0x58
2000ab18:	2a00      	cmp	r2, #0
2000ab1a:	f2c0 86b8 	blt.w	2000b88e <_svfprintf_r+0x1dc6>
2000ab1e:	af45      	add	r7, sp, #276	@ 0x114
2000ab20:	901f      	str	r0, [sp, #124]	@ 0x7c
2000ab22:	900f      	str	r0, [sp, #60]	@ 0x3c
2000ab24:	ed9d 7b16 	vldr	d7, [sp, #88]	@ 0x58
2000ab28:	ed8d 7b24 	vstr	d7, [sp, #144]	@ 0x90
2000ab2c:	aa29      	add	r2, sp, #164	@ 0xa4
2000ab2e:	e9dd 0124 	ldrd	r0, r1, [sp, #144]	@ 0x90
2000ab32:	f001 f945 	bl	2000bdc0 <frexp>
2000ab36:	2200      	movs	r2, #0
2000ab38:	f04f 537f 	mov.w	r3, #1069547520	@ 0x3fc00000
2000ab3c:	f7f9 faf0 	bl	20004120 <__wrap___aeabi_dmul>
2000ab40:	4602      	mov	r2, r0
2000ab42:	460b      	mov	r3, r1
2000ab44:	e9cd 2310 	strd	r2, r3, [sp, #64]	@ 0x40
2000ab48:	2200      	movs	r2, #0
2000ab4a:	2300      	movs	r3, #0
2000ab4c:	f7f9 fba4 	bl	20004298 <__wrap___aeabi_dcmpeq>
2000ab50:	b108      	cbz	r0, 2000ab56 <_svfprintf_r+0x108e>
2000ab52:	2301      	movs	r3, #1
2000ab54:	9329      	str	r3, [sp, #164]	@ 0xa4
2000ab56:	f1b9 0f61 	cmp.w	r9, #97	@ 0x61
2000ab5a:	f8cd 904c 	str.w	r9, [sp, #76]	@ 0x4c
2000ab5e:	463e      	mov	r6, r7
2000ab60:	46bb      	mov	fp, r7
2000ab62:	bf0c      	ite	eq
2000ab64:	4bac      	ldreq	r3, [pc, #688]	@ (2000ae18 <_svfprintf_r+0x1350>)
2000ab66:	4bad      	ldrne	r3, [pc, #692]	@ (2000ae1c <_svfprintf_r+0x1354>)
2000ab68:	9309      	str	r3, [sp, #36]	@ 0x24
2000ab6a:	9b0a      	ldr	r3, [sp, #40]	@ 0x28
2000ab6c:	f8dd a024 	ldr.w	sl, [sp, #36]	@ 0x24
2000ab70:	1e59      	subs	r1, r3, #1
2000ab72:	940a      	str	r4, [sp, #40]	@ 0x28
2000ab74:	4689      	mov	r9, r1
2000ab76:	e9dd 4510 	ldrd	r4, r5, [sp, #64]	@ 0x40
2000ab7a:	e009      	b.n	2000ab90 <_svfprintf_r+0x10c8>
2000ab7c:	2200      	movs	r2, #0
2000ab7e:	2300      	movs	r3, #0
2000ab80:	f109 37ff 	add.w	r7, r9, #4294967295
2000ab84:	f7f9 fb88 	bl	20004298 <__wrap___aeabi_dcmpeq>
2000ab88:	2800      	cmp	r0, #0
2000ab8a:	f040 86a7 	bne.w	2000b8dc <_svfprintf_r+0x1e14>
2000ab8e:	46b9      	mov	r9, r7
2000ab90:	2200      	movs	r2, #0
2000ab92:	4ba3      	ldr	r3, [pc, #652]	@ (2000ae20 <_svfprintf_r+0x1358>)
2000ab94:	4620      	mov	r0, r4
2000ab96:	4629      	mov	r1, r5
2000ab98:	f7f9 fac2 	bl	20004120 <__wrap___aeabi_dmul>
2000ab9c:	460d      	mov	r5, r1
2000ab9e:	4604      	mov	r4, r0
2000aba0:	f7f9 fb56 	bl	20004250 <__wrap___aeabi_d2iz>
2000aba4:	4607      	mov	r7, r0
2000aba6:	f7f9 fb2f 	bl	20004208 <__wrap___aeabi_i2d>
2000abaa:	4602      	mov	r2, r0
2000abac:	460b      	mov	r3, r1
2000abae:	4620      	mov	r0, r4
2000abb0:	4629      	mov	r1, r5
2000abb2:	f7f9 faa1 	bl	200040f8 <__wrap___aeabi_dsub>
2000abb6:	f81a 3007 	ldrb.w	r3, [sl, r7]
2000abba:	f1b9 3fff 	cmp.w	r9, #4294967295
2000abbe:	4632      	mov	r2, r6
2000abc0:	4604      	mov	r4, r0
2000abc2:	460d      	mov	r5, r1
2000abc4:	f806 3b01 	strb.w	r3, [r6], #1
2000abc8:	d1d8      	bne.n	2000ab7c <_svfprintf_r+0x10b4>
2000abca:	4692      	mov	sl, r2
2000abcc:	4b95      	ldr	r3, [pc, #596]	@ (2000ae24 <_svfprintf_r+0x135c>)
2000abce:	2200      	movs	r2, #0
2000abd0:	f8dd 904c 	ldr.w	r9, [sp, #76]	@ 0x4c
2000abd4:	e9cd 4510 	strd	r4, r5, [sp, #64]	@ 0x40
2000abd8:	463d      	mov	r5, r7
2000abda:	9c0a      	ldr	r4, [sp, #40]	@ 0x28
2000abdc:	465f      	mov	r7, fp
2000abde:	f7f9 fb95 	bl	2000430c <__wrap___aeabi_dcmpgt>
2000abe2:	b940      	cbnz	r0, 2000abf6 <_svfprintf_r+0x112e>
2000abe4:	2200      	movs	r2, #0
2000abe6:	4b8f      	ldr	r3, [pc, #572]	@ (2000ae24 <_svfprintf_r+0x135c>)
2000abe8:	e9dd 0110 	ldrd	r0, r1, [sp, #64]	@ 0x40
2000abec:	f7f9 fb54 	bl	20004298 <__wrap___aeabi_dcmpeq>
2000abf0:	b1d8      	cbz	r0, 2000ac2a <_svfprintf_r+0x1162>
2000abf2:	07eb      	lsls	r3, r5, #31
2000abf4:	d519      	bpl.n	2000ac2a <_svfprintf_r+0x1162>
2000abf6:	9b09      	ldr	r3, [sp, #36]	@ 0x24
2000abf8:	4632      	mov	r2, r6
2000abfa:	f8cd a0c0 	str.w	sl, [sp, #192]	@ 0xc0
2000abfe:	7bd9      	ldrb	r1, [r3, #15]
2000ac00:	f816 3c01 	ldrb.w	r3, [r6, #-1]
2000ac04:	4299      	cmp	r1, r3
2000ac06:	d109      	bne.n	2000ac1c <_svfprintf_r+0x1154>
2000ac08:	2030      	movs	r0, #48	@ 0x30
2000ac0a:	f802 0c01 	strb.w	r0, [r2, #-1]
2000ac0e:	9a30      	ldr	r2, [sp, #192]	@ 0xc0
2000ac10:	1e53      	subs	r3, r2, #1
2000ac12:	9330      	str	r3, [sp, #192]	@ 0xc0
2000ac14:	f812 3c01 	ldrb.w	r3, [r2, #-1]
2000ac18:	428b      	cmp	r3, r1
2000ac1a:	d0f6      	beq.n	2000ac0a <_svfprintf_r+0x1142>
2000ac1c:	2b39      	cmp	r3, #57	@ 0x39
2000ac1e:	f000 87db 	beq.w	2000bbd8 <_svfprintf_r+0x2110>
2000ac22:	3301      	adds	r3, #1
2000ac24:	b2db      	uxtb	r3, r3
2000ac26:	f802 3c01 	strb.w	r3, [r2, #-1]
2000ac2a:	9b07      	ldr	r3, [sp, #28]
2000ac2c:	9a29      	ldr	r2, [sp, #164]	@ 0xa4
2000ac2e:	f043 0102 	orr.w	r1, r3, #2
2000ac32:	1bf3      	subs	r3, r6, r7
2000ac34:	9315      	str	r3, [sp, #84]	@ 0x54
2000ac36:	f109 030f 	add.w	r3, r9, #15
2000ac3a:	f88d 30b0 	strb.w	r3, [sp, #176]	@ 0xb0
2000ac3e:	1e53      	subs	r3, r2, #1
2000ac40:	2b00      	cmp	r3, #0
2000ac42:	9329      	str	r3, [sp, #164]	@ 0xa4
2000ac44:	f2c0 8722 	blt.w	2000ba8c <_svfprintf_r+0x1fc4>
2000ac48:	222b      	movs	r2, #43	@ 0x2b
2000ac4a:	2b09      	cmp	r3, #9
2000ac4c:	f88d 20b1 	strb.w	r2, [sp, #177]	@ 0xb1
2000ac50:	f300 849d 	bgt.w	2000b58e <_svfprintf_r+0x1ac6>
2000ac54:	f10d 02b2 	add.w	r2, sp, #178	@ 0xb2
2000ac58:	3330      	adds	r3, #48	@ 0x30
2000ac5a:	f802 3b01 	strb.w	r3, [r2], #1
2000ac5e:	ab2c      	add	r3, sp, #176	@ 0xb0
2000ac60:	1ad3      	subs	r3, r2, r3
2000ac62:	931b      	str	r3, [sp, #108]	@ 0x6c
2000ac64:	9b15      	ldr	r3, [sp, #84]	@ 0x54
2000ac66:	9a1b      	ldr	r2, [sp, #108]	@ 0x6c
2000ac68:	2b01      	cmp	r3, #1
2000ac6a:	441a      	add	r2, r3
2000ac6c:	9210      	str	r2, [sp, #64]	@ 0x40
2000ac6e:	f340 85fd 	ble.w	2000b86c <_svfprintf_r+0x1da4>
2000ac72:	9b10      	ldr	r3, [sp, #64]	@ 0x40
2000ac74:	9a19      	ldr	r2, [sp, #100]	@ 0x64
2000ac76:	4413      	add	r3, r2
2000ac78:	9310      	str	r3, [sp, #64]	@ 0x40
2000ac7a:	f421 6380 	bic.w	r3, r1, #1024	@ 0x400
2000ac7e:	f001 0202 	and.w	r2, r1, #2
2000ac82:	f443 7380 	orr.w	r3, r3, #256	@ 0x100
2000ac86:	9213      	str	r2, [sp, #76]	@ 0x4c
2000ac88:	9307      	str	r3, [sp, #28]
2000ac8a:	9b10      	ldr	r3, [sp, #64]	@ 0x40
2000ac8c:	ea23 73e3 	bic.w	r3, r3, r3, asr #31
2000ac90:	9309      	str	r3, [sp, #36]	@ 0x24
2000ac92:	9b1f      	ldr	r3, [sp, #124]	@ 0x7c
2000ac94:	2b00      	cmp	r3, #0
2000ac96:	f000 85d4 	beq.w	2000b842 <_svfprintf_r+0x1d7a>
2000ac9a:	f04f 0c2d 	mov.w	ip, #45	@ 0x2d
2000ac9e:	2300      	movs	r3, #0
2000aca0:	f88d c09f 	strb.w	ip, [sp, #159]	@ 0x9f
2000aca4:	930a      	str	r3, [sp, #40]	@ 0x28
2000aca6:	f7ff ba51 	b.w	2000a14c <_svfprintf_r+0x684>
2000acaa:	2330      	movs	r3, #48	@ 0x30
2000acac:	3802      	subs	r0, #2
2000acae:	9a0a      	ldr	r2, [sp, #40]	@ 0x28
2000acb0:	f807 3c01 	strb.w	r3, [r7, #-1]
2000acb4:	ab5e      	add	r3, sp, #376	@ 0x178
2000acb6:	4607      	mov	r7, r0
2000acb8:	1a1b      	subs	r3, r3, r0
2000acba:	429a      	cmp	r2, r3
2000acbc:	9310      	str	r3, [sp, #64]	@ 0x40
2000acbe:	bfb8      	it	lt
2000acc0:	461a      	movlt	r2, r3
2000acc2:	9209      	str	r2, [sp, #36]	@ 0x24
2000acc4:	f7ff bb1d 	b.w	2000a302 <_svfprintf_r+0x83a>
2000acc8:	4854      	ldr	r0, [pc, #336]	@ (2000ae1c <_svfprintf_r+0x1354>)
2000acca:	950b      	str	r5, [sp, #44]	@ 0x2c
2000accc:	9b07      	ldr	r3, [sp, #28]
2000acce:	9912      	ldr	r1, [sp, #72]	@ 0x48
2000acd0:	f013 0220 	ands.w	r2, r3, #32
2000acd4:	f000 811a 	beq.w	2000af0c <_svfprintf_r+0x1444>
2000acd8:	3107      	adds	r1, #7
2000acda:	f021 0107 	bic.w	r1, r1, #7
2000acde:	684a      	ldr	r2, [r1, #4]
2000ace0:	f851 3b08 	ldr.w	r3, [r1], #8
2000ace4:	ea53 0502 	orrs.w	r5, r3, r2
2000ace8:	9e07      	ldr	r6, [sp, #28]
2000acea:	bf14      	ite	ne
2000acec:	2501      	movne	r5, #1
2000acee:	2500      	moveq	r5, #0
2000acf0:	07f6      	lsls	r6, r6, #31
2000acf2:	d502      	bpl.n	2000acfa <_svfprintf_r+0x1232>
2000acf4:	2d00      	cmp	r5, #0
2000acf6:	f040 81b7 	bne.w	2000b068 <_svfprintf_r+0x15a0>
2000acfa:	2600      	movs	r6, #0
2000acfc:	f88d 609f 	strb.w	r6, [sp, #159]	@ 0x9f
2000ad00:	9e0a      	ldr	r6, [sp, #40]	@ 0x28
2000ad02:	2e00      	cmp	r6, #0
2000ad04:	f2c0 8111 	blt.w	2000af2a <_svfprintf_r+0x1462>
2000ad08:	9e07      	ldr	r6, [sp, #28]
2000ad0a:	f426 6690 	bic.w	r6, r6, #1152	@ 0x480
2000ad0e:	9607      	str	r6, [sp, #28]
2000ad10:	9e0a      	ldr	r6, [sp, #40]	@ 0x28
2000ad12:	2e00      	cmp	r6, #0
2000ad14:	f040 81ba 	bne.w	2000b08c <_svfprintf_r+0x15c4>
2000ad18:	2d00      	cmp	r5, #0
2000ad1a:	f040 81b7 	bne.w	2000b08c <_svfprintf_r+0x15c4>
2000ad1e:	9112      	str	r1, [sp, #72]	@ 0x48
2000ad20:	e665      	b.n	2000a9ee <_svfprintf_r+0xf26>
2000ad22:	483d      	ldr	r0, [pc, #244]	@ (2000ae18 <_svfprintf_r+0x1350>)
2000ad24:	950b      	str	r5, [sp, #44]	@ 0x2c
2000ad26:	e7d1      	b.n	2000accc <_svfprintf_r+0x1204>
2000ad28:	9807      	ldr	r0, [sp, #28]
2000ad2a:	4694      	mov	ip, r2
2000ad2c:	9112      	str	r1, [sp, #72]	@ 0x48
2000ad2e:	f04f 0978 	mov.w	r9, #120	@ 0x78
2000ad32:	f040 0002 	orr.w	r0, r0, #2
2000ad36:	2102      	movs	r1, #2
2000ad38:	9007      	str	r0, [sp, #28]
2000ad3a:	4837      	ldr	r0, [pc, #220]	@ (2000ae18 <_svfprintf_r+0x1350>)
2000ad3c:	9113      	str	r1, [sp, #76]	@ 0x4c
2000ad3e:	af5e      	add	r7, sp, #376	@ 0x178
2000ad40:	f003 010f 	and.w	r1, r3, #15
2000ad44:	091b      	lsrs	r3, r3, #4
2000ad46:	5c41      	ldrb	r1, [r0, r1]
2000ad48:	ea43 7302 	orr.w	r3, r3, r2, lsl #28
2000ad4c:	0912      	lsrs	r2, r2, #4
2000ad4e:	f807 1d01 	strb.w	r1, [r7, #-1]!
2000ad52:	ea53 0102 	orrs.w	r1, r3, r2
2000ad56:	d1f3      	bne.n	2000ad40 <_svfprintf_r+0x1278>
2000ad58:	ab5e      	add	r3, sp, #376	@ 0x178
2000ad5a:	9a0a      	ldr	r2, [sp, #40]	@ 0x28
2000ad5c:	1bdb      	subs	r3, r3, r7
2000ad5e:	429a      	cmp	r2, r3
2000ad60:	9310      	str	r3, [sp, #64]	@ 0x40
2000ad62:	bfb8      	it	lt
2000ad64:	461a      	movlt	r2, r3
2000ad66:	9209      	str	r2, [sp, #36]	@ 0x24
2000ad68:	f7ff b9eb 	b.w	2000a142 <_svfprintf_r+0x67a>
2000ad6c:	9b12      	ldr	r3, [sp, #72]	@ 0x48
2000ad6e:	af45      	add	r7, sp, #276	@ 0x114
2000ad70:	681b      	ldr	r3, [r3, #0]
2000ad72:	f88d 3114 	strb.w	r3, [sp, #276]	@ 0x114
2000ad76:	2301      	movs	r3, #1
2000ad78:	9309      	str	r3, [sp, #36]	@ 0x24
2000ad7a:	9310      	str	r3, [sp, #64]	@ 0x40
2000ad7c:	f7ff b96d 	b.w	2000a05a <_svfprintf_r+0x592>
2000ad80:	f443 7300 	orr.w	r3, r3, #512	@ 0x200
2000ad84:	f895 9001 	ldrb.w	r9, [r5, #1]
2000ad88:	3501      	adds	r5, #1
2000ad8a:	9307      	str	r3, [sp, #28]
2000ad8c:	f7fe befa 	b.w	20009b84 <_svfprintf_r+0xbc>
2000ad90:	f043 0320 	orr.w	r3, r3, #32
2000ad94:	f895 9001 	ldrb.w	r9, [r5, #1]
2000ad98:	3501      	adds	r5, #1
2000ad9a:	9307      	str	r3, [sp, #28]
2000ad9c:	f7fe bef2 	b.w	20009b84 <_svfprintf_r+0xbc>
2000ada0:	aa32      	add	r2, sp, #200	@ 0xc8
2000ada2:	990e      	ldr	r1, [sp, #56]	@ 0x38
2000ada4:	9808      	ldr	r0, [sp, #32]
2000ada6:	f000 ff63 	bl	2000bc70 <__ssprint_r>
2000adaa:	2800      	cmp	r0, #0
2000adac:	f47f ac08 	bne.w	2000a5c0 <_svfprintf_r+0xaf8>
2000adb0:	9d34      	ldr	r5, [sp, #208]	@ 0xd0
2000adb2:	ac35      	add	r4, sp, #212	@ 0xd4
2000adb4:	f7ff b905 	b.w	20009fc2 <_svfprintf_r+0x4fa>
2000adb8:	2140      	movs	r1, #64	@ 0x40
2000adba:	4650      	mov	r0, sl
2000adbc:	f7fd fdc8 	bl	20008950 <_malloc_r>
2000adc0:	9b0e      	ldr	r3, [sp, #56]	@ 0x38
2000adc2:	6018      	str	r0, [r3, #0]
2000adc4:	6118      	str	r0, [r3, #16]
2000adc6:	2800      	cmp	r0, #0
2000adc8:	f000 870a 	beq.w	2000bbe0 <_svfprintf_r+0x2118>
2000adcc:	2340      	movs	r3, #64	@ 0x40
2000adce:	9a0e      	ldr	r2, [sp, #56]	@ 0x38
2000add0:	6153      	str	r3, [r2, #20]
2000add2:	f7fe be97 	b.w	20009b04 <_svfprintf_r+0x3c>
2000add6:	9b0a      	ldr	r3, [sp, #40]	@ 0x28
2000add8:	463a      	mov	r2, r7
2000adda:	970a      	str	r7, [sp, #40]	@ 0x28
2000addc:	2b06      	cmp	r3, #6
2000adde:	9612      	str	r6, [sp, #72]	@ 0x48
2000ade0:	9218      	str	r2, [sp, #96]	@ 0x60
2000ade2:	bf28      	it	cs
2000ade4:	2306      	movcs	r3, #6
2000ade6:	e9cd 2213 	strd	r2, r2, [sp, #76]	@ 0x4c
2000adea:	e9cd 730f 	strd	r7, r3, [sp, #60]	@ 0x3c
2000adee:	9309      	str	r3, [sp, #36]	@ 0x24
2000adf0:	4f0e      	ldr	r7, [pc, #56]	@ (2000ae2c <_svfprintf_r+0x1364>)
2000adf2:	f7fe bf95 	b.w	20009d20 <_svfprintf_r+0x258>
2000adf6:	2e10      	cmp	r6, #16
2000adf8:	9b33      	ldr	r3, [sp, #204]	@ 0xcc
2000adfa:	f8df a034 	ldr.w	sl, [pc, #52]	@ 2000ae30 <_svfprintf_r+0x1368>
2000adfe:	f340 828f 	ble.w	2000b320 <_svfprintf_r+0x1858>
2000ae02:	4651      	mov	r1, sl
2000ae04:	462a      	mov	r2, r5
2000ae06:	46ba      	mov	sl, r7
2000ae08:	f04f 0910 	mov.w	r9, #16
2000ae0c:	f8dd b020 	ldr.w	fp, [sp, #32]
2000ae10:	460f      	mov	r7, r1
2000ae12:	9d0e      	ldr	r5, [sp, #56]	@ 0x38
2000ae14:	e014      	b.n	2000ae40 <_svfprintf_r+0x1378>
2000ae16:	bf00      	nop
2000ae18:	2000eba4 	.word	0x2000eba4
2000ae1c:	2000ebb8 	.word	0x2000ebb8
2000ae20:	40300000 	.word	0x40300000
2000ae24:	3fe00000 	.word	0x3fe00000
2000ae28:	cccccccd 	.word	0xcccccccd
2000ae2c:	2000ebcc 	.word	0x2000ebcc
2000ae30:	2000f788 	.word	0x2000f788
2000ae34:	2000f798 	.word	0x2000f798
2000ae38:	3e10      	subs	r6, #16
2000ae3a:	2e10      	cmp	r6, #16
2000ae3c:	f340 826c 	ble.w	2000b318 <_svfprintf_r+0x1850>
2000ae40:	3301      	adds	r3, #1
2000ae42:	3210      	adds	r2, #16
2000ae44:	2b07      	cmp	r3, #7
2000ae46:	e9c4 7900 	strd	r7, r9, [r4]
2000ae4a:	e9cd 3233 	strd	r3, r2, [sp, #204]	@ 0xcc
2000ae4e:	f104 0408 	add.w	r4, r4, #8
2000ae52:	ddf1      	ble.n	2000ae38 <_svfprintf_r+0x1370>
2000ae54:	aa32      	add	r2, sp, #200	@ 0xc8
2000ae56:	4629      	mov	r1, r5
2000ae58:	4658      	mov	r0, fp
2000ae5a:	f000 ff09 	bl	2000bc70 <__ssprint_r>
2000ae5e:	2800      	cmp	r0, #0
2000ae60:	f47f ac81 	bne.w	2000a766 <_svfprintf_r+0xc9e>
2000ae64:	ac35      	add	r4, sp, #212	@ 0xd4
2000ae66:	e9dd 3233 	ldrd	r3, r2, [sp, #204]	@ 0xcc
2000ae6a:	e7e5      	b.n	2000ae38 <_svfprintf_r+0x1370>
2000ae6c:	9a14      	ldr	r2, [sp, #80]	@ 0x50
2000ae6e:	9918      	ldr	r1, [sp, #96]	@ 0x60
2000ae70:	430a      	orrs	r2, r1
2000ae72:	9a15      	ldr	r2, [sp, #84]	@ 0x54
2000ae74:	f000 86b8 	beq.w	2000bbe8 <_svfprintf_r+0x2120>
2000ae78:	18b8      	adds	r0, r7, r2
2000ae7a:	468b      	mov	fp, r1
2000ae7c:	4622      	mov	r2, r4
2000ae7e:	4629      	mov	r1, r5
2000ae80:	461c      	mov	r4, r3
2000ae82:	f8df a370 	ldr.w	sl, [pc, #880]	@ 2000b1f4 <_svfprintf_r+0x172c>
2000ae86:	f8dd 9074 	ldr.w	r9, [sp, #116]	@ 0x74
2000ae8a:	4603      	mov	r3, r0
2000ae8c:	9d1e      	ldr	r5, [sp, #120]	@ 0x78
2000ae8e:	971f      	str	r7, [sp, #124]	@ 0x7c
2000ae90:	f1bb 0f00 	cmp.w	fp, #0
2000ae94:	dc34      	bgt.n	2000af00 <_svfprintf_r+0x1438>
2000ae96:	9814      	ldr	r0, [sp, #80]	@ 0x50
2000ae98:	f109 39ff 	add.w	r9, r9, #4294967295
2000ae9c:	3801      	subs	r0, #1
2000ae9e:	9014      	str	r0, [sp, #80]	@ 0x50
2000aea0:	981c      	ldr	r0, [sp, #112]	@ 0x70
2000aea2:	4429      	add	r1, r5
2000aea4:	e9c2 0500 	strd	r0, r5, [r2]
2000aea8:	9833      	ldr	r0, [sp, #204]	@ 0xcc
2000aeaa:	9134      	str	r1, [sp, #208]	@ 0xd0
2000aeac:	3001      	adds	r0, #1
2000aeae:	2807      	cmp	r0, #7
2000aeb0:	9033      	str	r0, [sp, #204]	@ 0xcc
2000aeb2:	f300 80c9 	bgt.w	2000b048 <_svfprintf_r+0x1580>
2000aeb6:	3208      	adds	r2, #8
2000aeb8:	1b1f      	subs	r7, r3, r4
2000aeba:	f899 0000 	ldrb.w	r0, [r9]
2000aebe:	930a      	str	r3, [sp, #40]	@ 0x28
2000aec0:	4287      	cmp	r7, r0
2000aec2:	bfa8      	it	ge
2000aec4:	4607      	movge	r7, r0
2000aec6:	2f00      	cmp	r7, #0
2000aec8:	dd0c      	ble.n	2000aee4 <_svfprintf_r+0x141c>
2000aeca:	9833      	ldr	r0, [sp, #204]	@ 0xcc
2000aecc:	4439      	add	r1, r7
2000aece:	3001      	adds	r0, #1
2000aed0:	9134      	str	r1, [sp, #208]	@ 0xd0
2000aed2:	2807      	cmp	r0, #7
2000aed4:	9033      	str	r0, [sp, #204]	@ 0xcc
2000aed6:	e9c2 4700 	strd	r4, r7, [r2]
2000aeda:	f300 8122 	bgt.w	2000b122 <_svfprintf_r+0x165a>
2000aede:	3208      	adds	r2, #8
2000aee0:	f899 0000 	ldrb.w	r0, [r9]
2000aee4:	2f00      	cmp	r7, #0
2000aee6:	bfac      	ite	ge
2000aee8:	1bc6      	subge	r6, r0, r7
2000aeea:	4606      	movlt	r6, r0
2000aeec:	2e00      	cmp	r6, #0
2000aeee:	dc28      	bgt.n	2000af42 <_svfprintf_r+0x147a>
2000aef0:	4404      	add	r4, r0
2000aef2:	9814      	ldr	r0, [sp, #80]	@ 0x50
2000aef4:	2800      	cmp	r0, #0
2000aef6:	dccb      	bgt.n	2000ae90 <_svfprintf_r+0x13c8>
2000aef8:	f1bb 0f00 	cmp.w	fp, #0
2000aefc:	f340 85ba 	ble.w	2000ba74 <_svfprintf_r+0x1fac>
2000af00:	f10b 3bff 	add.w	fp, fp, #4294967295
2000af04:	e7cc      	b.n	2000aea0 <_svfprintf_r+0x13d8>
2000af06:	9212      	str	r2, [sp, #72]	@ 0x48
2000af08:	f7ff b906 	b.w	2000a118 <_svfprintf_r+0x650>
2000af0c:	9d07      	ldr	r5, [sp, #28]
2000af0e:	f851 3b04 	ldr.w	r3, [r1], #4
2000af12:	f015 0510 	ands.w	r5, r5, #16
2000af16:	f47f aee5 	bne.w	2000ace4 <_svfprintf_r+0x121c>
2000af1a:	9a07      	ldr	r2, [sp, #28]
2000af1c:	f012 0640 	ands.w	r6, r2, #64	@ 0x40
2000af20:	f000 8138 	beq.w	2000b194 <_svfprintf_r+0x16cc>
2000af24:	b29b      	uxth	r3, r3
2000af26:	462a      	mov	r2, r5
2000af28:	e6dc      	b.n	2000ace4 <_svfprintf_r+0x121c>
2000af2a:	9d07      	ldr	r5, [sp, #28]
2000af2c:	f425 6580 	bic.w	r5, r5, #1024	@ 0x400
2000af30:	9507      	str	r5, [sp, #28]
2000af32:	9112      	str	r1, [sp, #72]	@ 0x48
2000af34:	f04f 0c00 	mov.w	ip, #0
2000af38:	9907      	ldr	r1, [sp, #28]
2000af3a:	f001 0102 	and.w	r1, r1, #2
2000af3e:	9113      	str	r1, [sp, #76]	@ 0x4c
2000af40:	e6fd      	b.n	2000ad3e <_svfprintf_r+0x1276>
2000af42:	2e10      	cmp	r6, #16
2000af44:	9833      	ldr	r0, [sp, #204]	@ 0xcc
2000af46:	f340 85fa 	ble.w	2000bb3e <_svfprintf_r+0x2076>
2000af4a:	9410      	str	r4, [sp, #64]	@ 0x40
2000af4c:	2710      	movs	r7, #16
2000af4e:	4634      	mov	r4, r6
2000af50:	9513      	str	r5, [sp, #76]	@ 0x4c
2000af52:	9e0e      	ldr	r6, [sp, #56]	@ 0x38
2000af54:	9d08      	ldr	r5, [sp, #32]
2000af56:	f8cd a060 	str.w	sl, [sp, #96]	@ 0x60
2000af5a:	931d      	str	r3, [sp, #116]	@ 0x74
2000af5c:	e002      	b.n	2000af64 <_svfprintf_r+0x149c>
2000af5e:	3c10      	subs	r4, #16
2000af60:	2c10      	cmp	r4, #16
2000af62:	dd17      	ble.n	2000af94 <_svfprintf_r+0x14cc>
2000af64:	3001      	adds	r0, #1
2000af66:	3110      	adds	r1, #16
2000af68:	2807      	cmp	r0, #7
2000af6a:	e9c2 a700 	strd	sl, r7, [r2]
2000af6e:	e9cd 0133 	strd	r0, r1, [sp, #204]	@ 0xcc
2000af72:	f102 0208 	add.w	r2, r2, #8
2000af76:	ddf2      	ble.n	2000af5e <_svfprintf_r+0x1496>
2000af78:	aa32      	add	r2, sp, #200	@ 0xc8
2000af7a:	4631      	mov	r1, r6
2000af7c:	4628      	mov	r0, r5
2000af7e:	f000 fe77 	bl	2000bc70 <__ssprint_r>
2000af82:	2800      	cmp	r0, #0
2000af84:	f040 83c9 	bne.w	2000b71a <_svfprintf_r+0x1c52>
2000af88:	3c10      	subs	r4, #16
2000af8a:	aa35      	add	r2, sp, #212	@ 0xd4
2000af8c:	2c10      	cmp	r4, #16
2000af8e:	e9dd 0133 	ldrd	r0, r1, [sp, #204]	@ 0xcc
2000af92:	dce7      	bgt.n	2000af64 <_svfprintf_r+0x149c>
2000af94:	4626      	mov	r6, r4
2000af96:	9d13      	ldr	r5, [sp, #76]	@ 0x4c
2000af98:	9c10      	ldr	r4, [sp, #64]	@ 0x40
2000af9a:	f8dd c060 	ldr.w	ip, [sp, #96]	@ 0x60
2000af9e:	9b1d      	ldr	r3, [sp, #116]	@ 0x74
2000afa0:	3001      	adds	r0, #1
2000afa2:	4431      	add	r1, r6
2000afa4:	f8c2 c000 	str.w	ip, [r2]
2000afa8:	2807      	cmp	r0, #7
2000afaa:	6056      	str	r6, [r2, #4]
2000afac:	e9cd 0133 	strd	r0, r1, [sp, #204]	@ 0xcc
2000afb0:	f300 8352 	bgt.w	2000b658 <_svfprintf_r+0x1b90>
2000afb4:	3208      	adds	r2, #8
2000afb6:	f899 0000 	ldrb.w	r0, [r9]
2000afba:	e799      	b.n	2000aef0 <_svfprintf_r+0x1428>
2000afbc:	9b33      	ldr	r3, [sp, #204]	@ 0xcc
2000afbe:	3501      	adds	r5, #1
2000afc0:	4a8a      	ldr	r2, [pc, #552]	@ (2000b1ec <_svfprintf_r+0x1724>)
2000afc2:	3301      	adds	r3, #1
2000afc4:	9534      	str	r5, [sp, #208]	@ 0xd0
2000afc6:	6022      	str	r2, [r4, #0]
2000afc8:	2201      	movs	r2, #1
2000afca:	2b07      	cmp	r3, #7
2000afcc:	9333      	str	r3, [sp, #204]	@ 0xcc
2000afce:	6062      	str	r2, [r4, #4]
2000afd0:	f300 8219 	bgt.w	2000b406 <_svfprintf_r+0x193e>
2000afd4:	3408      	adds	r4, #8
2000afd6:	9b15      	ldr	r3, [sp, #84]	@ 0x54
2000afd8:	430b      	orrs	r3, r1
2000afda:	f000 83b0 	beq.w	2000b73e <_svfprintf_r+0x1c76>
2000afde:	9b19      	ldr	r3, [sp, #100]	@ 0x64
2000afe0:	9a1a      	ldr	r2, [sp, #104]	@ 0x68
2000afe2:	441d      	add	r5, r3
2000afe4:	e9c4 2300 	strd	r2, r3, [r4]
2000afe8:	9b33      	ldr	r3, [sp, #204]	@ 0xcc
2000afea:	9534      	str	r5, [sp, #208]	@ 0xd0
2000afec:	3301      	adds	r3, #1
2000afee:	2b07      	cmp	r3, #7
2000aff0:	9333      	str	r3, [sp, #204]	@ 0xcc
2000aff2:	f300 8318 	bgt.w	2000b626 <_svfprintf_r+0x1b5e>
2000aff6:	f104 0208 	add.w	r2, r4, #8
2000affa:	2900      	cmp	r1, #0
2000affc:	f2c0 83dc 	blt.w	2000b7b8 <_svfprintf_r+0x1cf0>
2000b000:	9915      	ldr	r1, [sp, #84]	@ 0x54
2000b002:	3301      	adds	r3, #1
2000b004:	6017      	str	r7, [r2, #0]
2000b006:	440d      	add	r5, r1
2000b008:	2b07      	cmp	r3, #7
2000b00a:	6051      	str	r1, [r2, #4]
2000b00c:	e9cd 3533 	strd	r3, r5, [sp, #204]	@ 0xcc
2000b010:	f73f ab00 	bgt.w	2000a614 <_svfprintf_r+0xb4c>
2000b014:	f102 0408 	add.w	r4, r2, #8
2000b018:	f7fe bec3 	b.w	20009da2 <_svfprintf_r+0x2da>
2000b01c:	aa32      	add	r2, sp, #200	@ 0xc8
2000b01e:	990e      	ldr	r1, [sp, #56]	@ 0x38
2000b020:	9808      	ldr	r0, [sp, #32]
2000b022:	931f      	str	r3, [sp, #124]	@ 0x7c
2000b024:	f000 fe24 	bl	2000bc70 <__ssprint_r>
2000b028:	2800      	cmp	r0, #0
2000b02a:	f47f aac9 	bne.w	2000a5c0 <_svfprintf_r+0xaf8>
2000b02e:	f89d 209f 	ldrb.w	r2, [sp, #159]	@ 0x9f
2000b032:	9d34      	ldr	r5, [sp, #208]	@ 0xd0
2000b034:	9b1f      	ldr	r3, [sp, #124]	@ 0x7c
2000b036:	2a00      	cmp	r2, #0
2000b038:	f000 8099 	beq.w	2000b16e <_svfprintf_r+0x16a6>
2000b03c:	461e      	mov	r6, r3
2000b03e:	ac35      	add	r4, sp, #212	@ 0xd4
2000b040:	4603      	mov	r3, r0
2000b042:	9833      	ldr	r0, [sp, #204]	@ 0xcc
2000b044:	f7fe be78 	b.w	20009d38 <_svfprintf_r+0x270>
2000b048:	aa32      	add	r2, sp, #200	@ 0xc8
2000b04a:	990e      	ldr	r1, [sp, #56]	@ 0x38
2000b04c:	9808      	ldr	r0, [sp, #32]
2000b04e:	930a      	str	r3, [sp, #40]	@ 0x28
2000b050:	f000 fe0e 	bl	2000bc70 <__ssprint_r>
2000b054:	2800      	cmp	r0, #0
2000b056:	f47f aab3 	bne.w	2000a5c0 <_svfprintf_r+0xaf8>
2000b05a:	9934      	ldr	r1, [sp, #208]	@ 0xd0
2000b05c:	aa35      	add	r2, sp, #212	@ 0xd4
2000b05e:	9b0a      	ldr	r3, [sp, #40]	@ 0x28
2000b060:	e72a      	b.n	2000aeb8 <_svfprintf_r+0x13f0>
2000b062:	46ca      	mov	sl, r9
2000b064:	f7ff baae 	b.w	2000a5c4 <_svfprintf_r+0xafc>
2000b068:	2530      	movs	r5, #48	@ 0x30
2000b06a:	f88d 90a1 	strb.w	r9, [sp, #161]	@ 0xa1
2000b06e:	f88d 50a0 	strb.w	r5, [sp, #160]	@ 0xa0
2000b072:	2500      	movs	r5, #0
2000b074:	f88d 509f 	strb.w	r5, [sp, #159]	@ 0x9f
2000b078:	9d0a      	ldr	r5, [sp, #40]	@ 0x28
2000b07a:	2d00      	cmp	r5, #0
2000b07c:	f2c0 81ad 	blt.w	2000b3da <_svfprintf_r+0x1912>
2000b080:	9d07      	ldr	r5, [sp, #28]
2000b082:	f425 6590 	bic.w	r5, r5, #1152	@ 0x480
2000b086:	f045 0502 	orr.w	r5, r5, #2
2000b08a:	9507      	str	r5, [sp, #28]
2000b08c:	9112      	str	r1, [sp, #72]	@ 0x48
2000b08e:	9907      	ldr	r1, [sp, #28]
2000b090:	f89d c09f 	ldrb.w	ip, [sp, #159]	@ 0x9f
2000b094:	f001 0102 	and.w	r1, r1, #2
2000b098:	9113      	str	r1, [sp, #76]	@ 0x4c
2000b09a:	e650      	b.n	2000ad3e <_svfprintf_r+0x1276>
2000b09c:	aa32      	add	r2, sp, #200	@ 0xc8
2000b09e:	990e      	ldr	r1, [sp, #56]	@ 0x38
2000b0a0:	9808      	ldr	r0, [sp, #32]
2000b0a2:	f000 fde5 	bl	2000bc70 <__ssprint_r>
2000b0a6:	2800      	cmp	r0, #0
2000b0a8:	f47f aa8a 	bne.w	2000a5c0 <_svfprintf_r+0xaf8>
2000b0ac:	9d34      	ldr	r5, [sp, #208]	@ 0xd0
2000b0ae:	ac35      	add	r4, sp, #212	@ 0xd4
2000b0b0:	f7fe bf75 	b.w	20009f9e <_svfprintf_r+0x4d6>
2000b0b4:	f10d 0ac0 	add.w	sl, sp, #192	@ 0xc0
2000b0b8:	2208      	movs	r2, #8
2000b0ba:	2100      	movs	r1, #0
2000b0bc:	972b      	str	r7, [sp, #172]	@ 0xac
2000b0be:	4650      	mov	r0, sl
2000b0c0:	f7fe fa5c 	bl	2000957c <memset>
2000b0c4:	9b0a      	ldr	r3, [sp, #40]	@ 0x28
2000b0c6:	2b00      	cmp	r3, #0
2000b0c8:	f2c0 813a 	blt.w	2000b340 <_svfprintf_r+0x1878>
2000b0cc:	2500      	movs	r5, #0
2000b0ce:	9409      	str	r4, [sp, #36]	@ 0x24
2000b0d0:	960f      	str	r6, [sp, #60]	@ 0x3c
2000b0d2:	469b      	mov	fp, r3
2000b0d4:	462c      	mov	r4, r5
2000b0d6:	9e08      	ldr	r6, [sp, #32]
2000b0d8:	e00e      	b.n	2000b0f8 <_svfprintf_r+0x1630>
2000b0da:	a945      	add	r1, sp, #276	@ 0x114
2000b0dc:	4630      	mov	r0, r6
2000b0de:	f002 fb3d 	bl	2000d75c <_wcrtomb_r>
2000b0e2:	1c42      	adds	r2, r0, #1
2000b0e4:	f105 0504 	add.w	r5, r5, #4
2000b0e8:	4420      	add	r0, r4
2000b0ea:	f000 83c4 	beq.w	2000b876 <_svfprintf_r+0x1dae>
2000b0ee:	4558      	cmp	r0, fp
2000b0f0:	dc07      	bgt.n	2000b102 <_svfprintf_r+0x163a>
2000b0f2:	f000 8407 	beq.w	2000b904 <_svfprintf_r+0x1e3c>
2000b0f6:	4604      	mov	r4, r0
2000b0f8:	9a2b      	ldr	r2, [sp, #172]	@ 0xac
2000b0fa:	4653      	mov	r3, sl
2000b0fc:	5952      	ldr	r2, [r2, r5]
2000b0fe:	2a00      	cmp	r2, #0
2000b100:	d1eb      	bne.n	2000b0da <_svfprintf_r+0x1612>
2000b102:	9410      	str	r4, [sp, #64]	@ 0x40
2000b104:	9e0f      	ldr	r6, [sp, #60]	@ 0x3c
2000b106:	9c09      	ldr	r4, [sp, #36]	@ 0x24
2000b108:	e128      	b.n	2000b35c <_svfprintf_r+0x1894>
2000b10a:	aa32      	add	r2, sp, #200	@ 0xc8
2000b10c:	990e      	ldr	r1, [sp, #56]	@ 0x38
2000b10e:	9808      	ldr	r0, [sp, #32]
2000b110:	f000 fdae 	bl	2000bc70 <__ssprint_r>
2000b114:	2800      	cmp	r0, #0
2000b116:	f47f aa53 	bne.w	2000a5c0 <_svfprintf_r+0xaf8>
2000b11a:	9d34      	ldr	r5, [sp, #208]	@ 0xd0
2000b11c:	ac35      	add	r4, sp, #212	@ 0xd4
2000b11e:	f7fe be2a 	b.w	20009d76 <_svfprintf_r+0x2ae>
2000b122:	aa32      	add	r2, sp, #200	@ 0xc8
2000b124:	990e      	ldr	r1, [sp, #56]	@ 0x38
2000b126:	9808      	ldr	r0, [sp, #32]
2000b128:	9310      	str	r3, [sp, #64]	@ 0x40
2000b12a:	f000 fda1 	bl	2000bc70 <__ssprint_r>
2000b12e:	2800      	cmp	r0, #0
2000b130:	f47f aa46 	bne.w	2000a5c0 <_svfprintf_r+0xaf8>
2000b134:	f899 0000 	ldrb.w	r0, [r9]
2000b138:	aa35      	add	r2, sp, #212	@ 0xd4
2000b13a:	9934      	ldr	r1, [sp, #208]	@ 0xd0
2000b13c:	9b10      	ldr	r3, [sp, #64]	@ 0x40
2000b13e:	e6d1      	b.n	2000aee4 <_svfprintf_r+0x141c>
2000b140:	482b      	ldr	r0, [pc, #172]	@ (2000b1f0 <_svfprintf_r+0x1728>)
2000b142:	f04f 0978 	mov.w	r9, #120	@ 0x78
2000b146:	e7a1      	b.n	2000b08c <_svfprintf_r+0x15c4>
2000b148:	9b12      	ldr	r3, [sp, #72]	@ 0x48
2000b14a:	9a0c      	ldr	r2, [sp, #48]	@ 0x30
2000b14c:	681b      	ldr	r3, [r3, #0]
2000b14e:	601a      	str	r2, [r3, #0]
2000b150:	f7ff b848 	b.w	2000a1e4 <_svfprintf_r+0x71c>
2000b154:	3601      	adds	r6, #1
2000b156:	4425      	add	r5, r4
2000b158:	f8c9 a000 	str.w	sl, [r9]
2000b15c:	2e07      	cmp	r6, #7
2000b15e:	f8c9 4004 	str.w	r4, [r9, #4]
2000b162:	e9cd 6533 	strd	r6, r5, [sp, #204]	@ 0xcc
2000b166:	f77f aa96 	ble.w	2000a696 <_svfprintf_r+0xbce>
2000b16a:	f7ff bbd5 	b.w	2000a918 <_svfprintf_r+0xe50>
2000b16e:	2b00      	cmp	r3, #0
2000b170:	f000 8155 	beq.w	2000b41e <_svfprintf_r+0x1956>
2000b174:	4613      	mov	r3, r2
2000b176:	9833      	ldr	r0, [sp, #204]	@ 0xcc
2000b178:	ac35      	add	r4, sp, #212	@ 0xd4
2000b17a:	f7fe bdec 	b.w	20009d56 <_svfprintf_r+0x28e>
2000b17e:	9b07      	ldr	r3, [sp, #28]
2000b180:	9212      	str	r2, [sp, #72]	@ 0x48
2000b182:	059e      	lsls	r6, r3, #22
2000b184:	f140 8174 	bpl.w	2000b470 <_svfprintf_r+0x19a8>
2000b188:	f345 16c0 	sbfx	r6, r5, #7, #1
2000b18c:	b26d      	sxtb	r5, r5
2000b18e:	4633      	mov	r3, r6
2000b190:	f7fe be78 	b.w	20009e84 <_svfprintf_r+0x3bc>
2000b194:	9a07      	ldr	r2, [sp, #28]
2000b196:	f412 7200 	ands.w	r2, r2, #512	@ 0x200
2000b19a:	f43f ada3 	beq.w	2000ace4 <_svfprintf_r+0x121c>
2000b19e:	b2db      	uxtb	r3, r3
2000b1a0:	4632      	mov	r2, r6
2000b1a2:	e59f      	b.n	2000ace4 <_svfprintf_r+0x121c>
2000b1a4:	9807      	ldr	r0, [sp, #28]
2000b1a6:	f410 7600 	ands.w	r6, r0, #512	@ 0x200
2000b1aa:	f000 814d 	beq.w	2000b448 <_svfprintf_r+0x1980>
2000b1ae:	b2dd      	uxtb	r5, r3
2000b1b0:	9b0a      	ldr	r3, [sp, #40]	@ 0x28
2000b1b2:	460e      	mov	r6, r1
2000b1b4:	f88d 109f 	strb.w	r1, [sp, #159]	@ 0x9f
2000b1b8:	2b00      	cmp	r3, #0
2000b1ba:	f6ff aea4 	blt.w	2000af06 <_svfprintf_r+0x143e>
2000b1be:	f020 0180 	bic.w	r1, r0, #128	@ 0x80
2000b1c2:	9212      	str	r2, [sp, #72]	@ 0x48
2000b1c4:	9107      	str	r1, [sp, #28]
2000b1c6:	2b00      	cmp	r3, #0
2000b1c8:	f47e afa6 	bne.w	2000a118 <_svfprintf_r+0x650>
2000b1cc:	2d00      	cmp	r5, #0
2000b1ce:	f43f ac0e 	beq.w	2000a9ee <_svfprintf_r+0xf26>
2000b1d2:	f7fe bfa1 	b.w	2000a118 <_svfprintf_r+0x650>
2000b1d6:	9d07      	ldr	r5, [sp, #28]
2000b1d8:	f415 7100 	ands.w	r1, r5, #512	@ 0x200
2000b1dc:	f000 8130 	beq.w	2000b440 <_svfprintf_r+0x1978>
2000b1e0:	4601      	mov	r1, r0
2000b1e2:	b2db      	uxtb	r3, r3
2000b1e4:	4628      	mov	r0, r5
2000b1e6:	9212      	str	r2, [sp, #72]	@ 0x48
2000b1e8:	f7ff b838 	b.w	2000a25c <_svfprintf_r+0x794>
2000b1ec:	2000ebd4 	.word	0x2000ebd4
2000b1f0:	2000eba4 	.word	0x2000eba4
2000b1f4:	2000f788 	.word	0x2000f788
2000b1f8:	9a0a      	ldr	r2, [sp, #40]	@ 0x28
2000b1fa:	9b07      	ldr	r3, [sp, #28]
2000b1fc:	1c55      	adds	r5, r2, #1
2000b1fe:	f443 7a80 	orr.w	sl, r3, #256	@ 0x100
2000b202:	e9dd 0116 	ldrd	r0, r1, [sp, #88]	@ 0x58
2000b206:	460b      	mov	r3, r1
2000b208:	f000 8174 	beq.w	2000b4f4 <_svfprintf_r+0x1a2c>
2000b20c:	b91a      	cbnz	r2, 2000b216 <_svfprintf_r+0x174e>
2000b20e:	f1bb 0f47 	cmp.w	fp, #71	@ 0x47
2000b212:	f000 8454 	beq.w	2000babe <_svfprintf_r+0x1ff6>
2000b216:	2b00      	cmp	r3, #0
2000b218:	f2c0 83a5 	blt.w	2000b966 <_svfprintf_r+0x1e9e>
2000b21c:	2300      	movs	r3, #0
2000b21e:	ed9d 7b16 	vldr	d7, [sp, #88]	@ 0x58
2000b222:	931f      	str	r3, [sp, #124]	@ 0x7c
2000b224:	ed8d 7b22 	vstr	d7, [sp, #136]	@ 0x88
2000b228:	f1b9 0f65 	cmp.w	r9, #101	@ 0x65
2000b22c:	f000 829a 	beq.w	2000b764 <_svfprintf_r+0x1c9c>
2000b230:	f300 8177 	bgt.w	2000b522 <_svfprintf_r+0x1a5a>
2000b234:	f1b9 0f45 	cmp.w	r9, #69	@ 0x45
2000b238:	f000 8294 	beq.w	2000b764 <_svfprintf_r+0x1c9c>
2000b23c:	f1b9 0f46 	cmp.w	r9, #70	@ 0x46
2000b240:	f040 8173 	bne.w	2000b52a <_svfprintf_r+0x1a62>
2000b244:	9b0a      	ldr	r3, [sp, #40]	@ 0x28
2000b246:	9315      	str	r3, [sp, #84]	@ 0x54
2000b248:	2303      	movs	r3, #3
2000b24a:	9300      	str	r3, [sp, #0]
2000b24c:	ab30      	add	r3, sp, #192	@ 0xc0
2000b24e:	9d15      	ldr	r5, [sp, #84]	@ 0x54
2000b250:	9304      	str	r3, [sp, #16]
2000b252:	ab2b      	add	r3, sp, #172	@ 0xac
2000b254:	9501      	str	r5, [sp, #4]
2000b256:	9303      	str	r3, [sp, #12]
2000b258:	ab29      	add	r3, sp, #164	@ 0xa4
2000b25a:	9808      	ldr	r0, [sp, #32]
2000b25c:	9302      	str	r3, [sp, #8]
2000b25e:	e9dd 2322 	ldrd	r2, r3, [sp, #136]	@ 0x88
2000b262:	f000 fe81 	bl	2000bf68 <_dtoa_r>
2000b266:	f1bb 0f46 	cmp.w	fp, #70	@ 0x46
2000b26a:	4607      	mov	r7, r0
2000b26c:	4405      	add	r5, r0
2000b26e:	f040 83e2 	bne.w	2000ba36 <_svfprintf_r+0x1f6e>
2000b272:	783b      	ldrb	r3, [r7, #0]
2000b274:	2b30      	cmp	r3, #48	@ 0x30
2000b276:	f000 83cf 	beq.w	2000ba18 <_svfprintf_r+0x1f50>
2000b27a:	9b29      	ldr	r3, [sp, #164]	@ 0xa4
2000b27c:	441d      	add	r5, r3
2000b27e:	2200      	movs	r2, #0
2000b280:	2300      	movs	r3, #0
2000b282:	e9dd 0122 	ldrd	r0, r1, [sp, #136]	@ 0x88
2000b286:	f7f9 f807 	bl	20004298 <__wrap___aeabi_dcmpeq>
2000b28a:	2800      	cmp	r0, #0
2000b28c:	f040 83bf 	bne.w	2000ba0e <_svfprintf_r+0x1f46>
2000b290:	9b30      	ldr	r3, [sp, #192]	@ 0xc0
2000b292:	429d      	cmp	r5, r3
2000b294:	f240 84b0 	bls.w	2000bbf8 <_svfprintf_r+0x2130>
2000b298:	2130      	movs	r1, #48	@ 0x30
2000b29a:	1c5a      	adds	r2, r3, #1
2000b29c:	9230      	str	r2, [sp, #192]	@ 0xc0
2000b29e:	7019      	strb	r1, [r3, #0]
2000b2a0:	9b30      	ldr	r3, [sp, #192]	@ 0xc0
2000b2a2:	42ab      	cmp	r3, r5
2000b2a4:	d3f9      	bcc.n	2000b29a <_svfprintf_r+0x17d2>
2000b2a6:	9a29      	ldr	r2, [sp, #164]	@ 0xa4
2000b2a8:	1bdb      	subs	r3, r3, r7
2000b2aa:	f1bb 0f47 	cmp.w	fp, #71	@ 0x47
2000b2ae:	9213      	str	r2, [sp, #76]	@ 0x4c
2000b2b0:	9315      	str	r3, [sp, #84]	@ 0x54
2000b2b2:	f000 8153 	beq.w	2000b55c <_svfprintf_r+0x1a94>
2000b2b6:	f1bb 0f46 	cmp.w	fp, #70	@ 0x46
2000b2ba:	f040 8157 	bne.w	2000b56c <_svfprintf_r+0x1aa4>
2000b2be:	9b07      	ldr	r3, [sp, #28]
2000b2c0:	9913      	ldr	r1, [sp, #76]	@ 0x4c
2000b2c2:	f003 0301 	and.w	r3, r3, #1
2000b2c6:	9a0a      	ldr	r2, [sp, #40]	@ 0x28
2000b2c8:	2900      	cmp	r1, #0
2000b2ca:	ea43 0302 	orr.w	r3, r3, r2
2000b2ce:	f340 846f 	ble.w	2000bbb0 <_svfprintf_r+0x20e8>
2000b2d2:	2b00      	cmp	r3, #0
2000b2d4:	f040 833d 	bne.w	2000b952 <_svfprintf_r+0x1e8a>
2000b2d8:	9b13      	ldr	r3, [sp, #76]	@ 0x4c
2000b2da:	f04f 0966 	mov.w	r9, #102	@ 0x66
2000b2de:	9310      	str	r3, [sp, #64]	@ 0x40
2000b2e0:	9b07      	ldr	r3, [sp, #28]
2000b2e2:	055b      	lsls	r3, r3, #21
2000b2e4:	f100 8350 	bmi.w	2000b988 <_svfprintf_r+0x1ec0>
2000b2e8:	9b10      	ldr	r3, [sp, #64]	@ 0x40
2000b2ea:	ea23 73e3 	bic.w	r3, r3, r3, asr #31
2000b2ee:	9309      	str	r3, [sp, #36]	@ 0x24
2000b2f0:	9b1f      	ldr	r3, [sp, #124]	@ 0x7c
2000b2f2:	2b00      	cmp	r3, #0
2000b2f4:	f000 823b 	beq.w	2000b76e <_svfprintf_r+0x1ca6>
2000b2f8:	9b09      	ldr	r3, [sp, #36]	@ 0x24
2000b2fa:	f8cd a01c 	str.w	sl, [sp, #28]
2000b2fe:	3301      	adds	r3, #1
2000b300:	9309      	str	r3, [sp, #36]	@ 0x24
2000b302:	2300      	movs	r3, #0
2000b304:	461a      	mov	r2, r3
2000b306:	930f      	str	r3, [sp, #60]	@ 0x3c
2000b308:	232d      	movs	r3, #45	@ 0x2d
2000b30a:	920a      	str	r2, [sp, #40]	@ 0x28
2000b30c:	f88d 309f 	strb.w	r3, [sp, #159]	@ 0x9f
2000b310:	9218      	str	r2, [sp, #96]	@ 0x60
2000b312:	9214      	str	r2, [sp, #80]	@ 0x50
2000b314:	f7fe bd04 	b.w	20009d20 <_svfprintf_r+0x258>
2000b318:	4615      	mov	r5, r2
2000b31a:	463a      	mov	r2, r7
2000b31c:	4657      	mov	r7, sl
2000b31e:	4692      	mov	sl, r2
2000b320:	3301      	adds	r3, #1
2000b322:	4435      	add	r5, r6
2000b324:	f8c4 a000 	str.w	sl, [r4]
2000b328:	2b07      	cmp	r3, #7
2000b32a:	6066      	str	r6, [r4, #4]
2000b32c:	e9cd 3533 	strd	r3, r5, [sp, #204]	@ 0xcc
2000b330:	f300 80eb 	bgt.w	2000b50a <_svfprintf_r+0x1a42>
2000b334:	3408      	adds	r4, #8
2000b336:	f7ff ba3f 	b.w	2000a7b8 <_svfprintf_r+0xcf0>
2000b33a:	9212      	str	r2, [sp, #72]	@ 0x48
2000b33c:	f7fe beeb 	b.w	2000a116 <_svfprintf_r+0x64e>
2000b340:	2300      	movs	r3, #0
2000b342:	aa2b      	add	r2, sp, #172	@ 0xac
2000b344:	9808      	ldr	r0, [sp, #32]
2000b346:	4619      	mov	r1, r3
2000b348:	f8cd a000 	str.w	sl, [sp]
2000b34c:	f002 fa2c 	bl	2000d7a8 <_wcsrtombs_r>
2000b350:	4603      	mov	r3, r0
2000b352:	9010      	str	r0, [sp, #64]	@ 0x40
2000b354:	3301      	adds	r3, #1
2000b356:	f000 847f 	beq.w	2000bc58 <_svfprintf_r+0x2190>
2000b35a:	972b      	str	r7, [sp, #172]	@ 0xac
2000b35c:	9b10      	ldr	r3, [sp, #64]	@ 0x40
2000b35e:	2b00      	cmp	r3, #0
2000b360:	d042      	beq.n	2000b3e8 <_svfprintf_r+0x1920>
2000b362:	2b63      	cmp	r3, #99	@ 0x63
2000b364:	f300 80a7 	bgt.w	2000b4b6 <_svfprintf_r+0x19ee>
2000b368:	2300      	movs	r3, #0
2000b36a:	af45      	add	r7, sp, #276	@ 0x114
2000b36c:	930f      	str	r3, [sp, #60]	@ 0x3c
2000b36e:	2208      	movs	r2, #8
2000b370:	2100      	movs	r1, #0
2000b372:	4650      	mov	r0, sl
2000b374:	f7fe f902 	bl	2000957c <memset>
2000b378:	9d10      	ldr	r5, [sp, #64]	@ 0x40
2000b37a:	aa2b      	add	r2, sp, #172	@ 0xac
2000b37c:	4639      	mov	r1, r7
2000b37e:	462b      	mov	r3, r5
2000b380:	9808      	ldr	r0, [sp, #32]
2000b382:	f8cd a000 	str.w	sl, [sp]
2000b386:	f002 fa0f 	bl	2000d7a8 <_wcsrtombs_r>
2000b38a:	4285      	cmp	r5, r0
2000b38c:	f040 843e 	bne.w	2000bc0c <_svfprintf_r+0x2144>
2000b390:	9910      	ldr	r1, [sp, #64]	@ 0x40
2000b392:	2300      	movs	r3, #0
2000b394:	547b      	strb	r3, [r7, r1]
2000b396:	ea21 71e1 	bic.w	r1, r1, r1, asr #31
2000b39a:	f89d 209f 	ldrb.w	r2, [sp, #159]	@ 0x9f
2000b39e:	9109      	str	r1, [sp, #36]	@ 0x24
2000b3a0:	2a00      	cmp	r2, #0
2000b3a2:	f040 822b 	bne.w	2000b7fc <_svfprintf_r+0x1d34>
2000b3a6:	920a      	str	r2, [sp, #40]	@ 0x28
2000b3a8:	9612      	str	r6, [sp, #72]	@ 0x48
2000b3aa:	9218      	str	r2, [sp, #96]	@ 0x60
2000b3ac:	e9cd 2213 	strd	r2, r2, [sp, #76]	@ 0x4c
2000b3b0:	f7fe bcb6 	b.w	20009d20 <_svfprintf_r+0x258>
2000b3b4:	232d      	movs	r3, #45	@ 0x2d
2000b3b6:	f1b9 0f47 	cmp.w	r9, #71	@ 0x47
2000b3ba:	f88d 309f 	strb.w	r3, [sp, #159]	@ 0x9f
2000b3be:	dd5b      	ble.n	2000b478 <_svfprintf_r+0x19b0>
2000b3c0:	2203      	movs	r2, #3
2000b3c2:	462b      	mov	r3, r5
2000b3c4:	4fac      	ldr	r7, [pc, #688]	@ (2000b678 <_svfprintf_r+0x1bb0>)
2000b3c6:	950f      	str	r5, [sp, #60]	@ 0x3c
2000b3c8:	9210      	str	r2, [sp, #64]	@ 0x40
2000b3ca:	2204      	movs	r2, #4
2000b3cc:	9318      	str	r3, [sp, #96]	@ 0x60
2000b3ce:	e9cd 2309 	strd	r2, r3, [sp, #36]	@ 0x24
2000b3d2:	e9cd 3313 	strd	r3, r3, [sp, #76]	@ 0x4c
2000b3d6:	f7fe bca3 	b.w	20009d20 <_svfprintf_r+0x258>
2000b3da:	9d07      	ldr	r5, [sp, #28]
2000b3dc:	f425 6580 	bic.w	r5, r5, #1024	@ 0x400
2000b3e0:	f045 0502 	orr.w	r5, r5, #2
2000b3e4:	9507      	str	r5, [sp, #28]
2000b3e6:	e5a4      	b.n	2000af32 <_svfprintf_r+0x146a>
2000b3e8:	f89d 309f 	ldrb.w	r3, [sp, #159]	@ 0x9f
2000b3ec:	9612      	str	r6, [sp, #72]	@ 0x48
2000b3ee:	3b00      	subs	r3, #0
2000b3f0:	bf18      	it	ne
2000b3f2:	2301      	movne	r3, #1
2000b3f4:	9309      	str	r3, [sp, #36]	@ 0x24
2000b3f6:	9b10      	ldr	r3, [sp, #64]	@ 0x40
2000b3f8:	930a      	str	r3, [sp, #40]	@ 0x28
2000b3fa:	9318      	str	r3, [sp, #96]	@ 0x60
2000b3fc:	930f      	str	r3, [sp, #60]	@ 0x3c
2000b3fe:	e9cd 3313 	strd	r3, r3, [sp, #76]	@ 0x4c
2000b402:	f7fe bc8d 	b.w	20009d20 <_svfprintf_r+0x258>
2000b406:	aa32      	add	r2, sp, #200	@ 0xc8
2000b408:	990e      	ldr	r1, [sp, #56]	@ 0x38
2000b40a:	9808      	ldr	r0, [sp, #32]
2000b40c:	f000 fc30 	bl	2000bc70 <__ssprint_r>
2000b410:	2800      	cmp	r0, #0
2000b412:	f47f a8d5 	bne.w	2000a5c0 <_svfprintf_r+0xaf8>
2000b416:	9929      	ldr	r1, [sp, #164]	@ 0xa4
2000b418:	ac35      	add	r4, sp, #212	@ 0xd4
2000b41a:	9d34      	ldr	r5, [sp, #208]	@ 0xd0
2000b41c:	e5db      	b.n	2000afd6 <_svfprintf_r+0x150e>
2000b41e:	ac35      	add	r4, sp, #212	@ 0xd4
2000b420:	f7fe bca9 	b.w	20009d76 <_svfprintf_r+0x2ae>
2000b424:	4417      	add	r7, r2
2000b426:	1b96      	subs	r6, r2, r6
2000b428:	1aff      	subs	r7, r7, r3
2000b42a:	42b7      	cmp	r7, r6
2000b42c:	bfa8      	it	ge
2000b42e:	4637      	movge	r7, r6
2000b430:	f7ff b9f1 	b.w	2000a816 <_svfprintf_r+0xd4e>
2000b434:	9b12      	ldr	r3, [sp, #72]	@ 0x48
2000b436:	9a0c      	ldr	r2, [sp, #48]	@ 0x30
2000b438:	681b      	ldr	r3, [r3, #0]
2000b43a:	801a      	strh	r2, [r3, #0]
2000b43c:	f7fe bed2 	b.w	2000a1e4 <_svfprintf_r+0x71c>
2000b440:	9807      	ldr	r0, [sp, #28]
2000b442:	9212      	str	r2, [sp, #72]	@ 0x48
2000b444:	f7fe bf0a 	b.w	2000a25c <_svfprintf_r+0x794>
2000b448:	990a      	ldr	r1, [sp, #40]	@ 0x28
2000b44a:	461d      	mov	r5, r3
2000b44c:	f88d 609f 	strb.w	r6, [sp, #159]	@ 0x9f
2000b450:	2900      	cmp	r1, #0
2000b452:	f6ff ad58 	blt.w	2000af06 <_svfprintf_r+0x143e>
2000b456:	9807      	ldr	r0, [sp, #28]
2000b458:	9212      	str	r2, [sp, #72]	@ 0x48
2000b45a:	f020 0080 	bic.w	r0, r0, #128	@ 0x80
2000b45e:	9007      	str	r0, [sp, #28]
2000b460:	2900      	cmp	r1, #0
2000b462:	f47e ae59 	bne.w	2000a118 <_svfprintf_r+0x650>
2000b466:	2b00      	cmp	r3, #0
2000b468:	f43f aac1 	beq.w	2000a9ee <_svfprintf_r+0xf26>
2000b46c:	f7fe be54 	b.w	2000a118 <_svfprintf_r+0x650>
2000b470:	17ee      	asrs	r6, r5, #31
2000b472:	4633      	mov	r3, r6
2000b474:	f7fe bd06 	b.w	20009e84 <_svfprintf_r+0x3bc>
2000b478:	2203      	movs	r2, #3
2000b47a:	462b      	mov	r3, r5
2000b47c:	4f7f      	ldr	r7, [pc, #508]	@ (2000b67c <_svfprintf_r+0x1bb4>)
2000b47e:	950f      	str	r5, [sp, #60]	@ 0x3c
2000b480:	9210      	str	r2, [sp, #64]	@ 0x40
2000b482:	e7a2      	b.n	2000b3ca <_svfprintf_r+0x1902>
2000b484:	9c0e      	ldr	r4, [sp, #56]	@ 0x38
2000b486:	aa32      	add	r2, sp, #200	@ 0xc8
2000b488:	4650      	mov	r0, sl
2000b48a:	4621      	mov	r1, r4
2000b48c:	f000 fbf0 	bl	2000bc70 <__ssprint_r>
2000b490:	89a3      	ldrh	r3, [r4, #12]
2000b492:	f003 0340 	and.w	r3, r3, #64	@ 0x40
2000b496:	f7fe bc19 	b.w	20009ccc <_svfprintf_r+0x204>
2000b49a:	4638      	mov	r0, r7
2000b49c:	f7fe f996 	bl	200097cc <strlen>
2000b4a0:	f89d 309f 	ldrb.w	r3, [sp, #159]	@ 0x9f
2000b4a4:	ea20 72e0 	bic.w	r2, r0, r0, asr #31
2000b4a8:	9010      	str	r0, [sp, #64]	@ 0x40
2000b4aa:	9209      	str	r2, [sp, #36]	@ 0x24
2000b4ac:	2b00      	cmp	r3, #0
2000b4ae:	f43e ae15 	beq.w	2000a0dc <_svfprintf_r+0x614>
2000b4b2:	f7fe be11 	b.w	2000a0d8 <_svfprintf_r+0x610>
2000b4b6:	1c59      	adds	r1, r3, #1
2000b4b8:	9808      	ldr	r0, [sp, #32]
2000b4ba:	f7fd fa49 	bl	20008950 <_malloc_r>
2000b4be:	4607      	mov	r7, r0
2000b4c0:	2800      	cmp	r0, #0
2000b4c2:	f000 83c0 	beq.w	2000bc46 <_svfprintf_r+0x217e>
2000b4c6:	900f      	str	r0, [sp, #60]	@ 0x3c
2000b4c8:	e751      	b.n	2000b36e <_svfprintf_r+0x18a6>
2000b4ca:	1c59      	adds	r1, r3, #1
2000b4cc:	9808      	ldr	r0, [sp, #32]
2000b4ce:	f7fd fa3f 	bl	20008950 <_malloc_r>
2000b4d2:	4607      	mov	r7, r0
2000b4d4:	2800      	cmp	r0, #0
2000b4d6:	f000 835d 	beq.w	2000bb94 <_svfprintf_r+0x20cc>
2000b4da:	e9dd 1216 	ldrd	r1, r2, [sp, #88]	@ 0x58
2000b4de:	2a00      	cmp	r2, #0
2000b4e0:	f2c0 8318 	blt.w	2000bb14 <_svfprintf_r+0x204c>
2000b4e4:	961f      	str	r6, [sp, #124]	@ 0x7c
2000b4e6:	900f      	str	r0, [sp, #60]	@ 0x3c
2000b4e8:	ed9d 7b16 	vldr	d7, [sp, #88]	@ 0x58
2000b4ec:	ed8d 7b24 	vstr	d7, [sp, #144]	@ 0x90
2000b4f0:	f7ff bb1c 	b.w	2000ab2c <_svfprintf_r+0x1064>
2000b4f4:	2900      	cmp	r1, #0
2000b4f6:	f2c0 8316 	blt.w	2000bb26 <_svfprintf_r+0x205e>
2000b4fa:	2306      	movs	r3, #6
2000b4fc:	961f      	str	r6, [sp, #124]	@ 0x7c
2000b4fe:	ed9d 7b16 	vldr	d7, [sp, #88]	@ 0x58
2000b502:	930a      	str	r3, [sp, #40]	@ 0x28
2000b504:	ed8d 7b22 	vstr	d7, [sp, #136]	@ 0x88
2000b508:	e68e      	b.n	2000b228 <_svfprintf_r+0x1760>
2000b50a:	aa32      	add	r2, sp, #200	@ 0xc8
2000b50c:	990e      	ldr	r1, [sp, #56]	@ 0x38
2000b50e:	9808      	ldr	r0, [sp, #32]
2000b510:	f000 fbae 	bl	2000bc70 <__ssprint_r>
2000b514:	2800      	cmp	r0, #0
2000b516:	f47f a853 	bne.w	2000a5c0 <_svfprintf_r+0xaf8>
2000b51a:	9d34      	ldr	r5, [sp, #208]	@ 0xd0
2000b51c:	ac35      	add	r4, sp, #212	@ 0xd4
2000b51e:	f7ff b94b 	b.w	2000a7b8 <_svfprintf_r+0xcf0>
2000b522:	f1b9 0f66 	cmp.w	r9, #102	@ 0x66
2000b526:	f43f ae8d 	beq.w	2000b244 <_svfprintf_r+0x177c>
2000b52a:	9b0a      	ldr	r3, [sp, #40]	@ 0x28
2000b52c:	9808      	ldr	r0, [sp, #32]
2000b52e:	9301      	str	r3, [sp, #4]
2000b530:	ab30      	add	r3, sp, #192	@ 0xc0
2000b532:	9304      	str	r3, [sp, #16]
2000b534:	ab2b      	add	r3, sp, #172	@ 0xac
2000b536:	9303      	str	r3, [sp, #12]
2000b538:	ab29      	add	r3, sp, #164	@ 0xa4
2000b53a:	9302      	str	r3, [sp, #8]
2000b53c:	2302      	movs	r3, #2
2000b53e:	9300      	str	r3, [sp, #0]
2000b540:	e9dd 2322 	ldrd	r2, r3, [sp, #136]	@ 0x88
2000b544:	f000 fd10 	bl	2000bf68 <_dtoa_r>
2000b548:	9b07      	ldr	r3, [sp, #28]
2000b54a:	4607      	mov	r7, r0
2000b54c:	07de      	lsls	r6, r3, #31
2000b54e:	f100 8169 	bmi.w	2000b824 <_svfprintf_r+0x1d5c>
2000b552:	9b30      	ldr	r3, [sp, #192]	@ 0xc0
2000b554:	1a1b      	subs	r3, r3, r0
2000b556:	9315      	str	r3, [sp, #84]	@ 0x54
2000b558:	9b29      	ldr	r3, [sp, #164]	@ 0xa4
2000b55a:	9313      	str	r3, [sp, #76]	@ 0x4c
2000b55c:	9b13      	ldr	r3, [sp, #76]	@ 0x4c
2000b55e:	1cdd      	adds	r5, r3, #3
2000b560:	db02      	blt.n	2000b568 <_svfprintf_r+0x1aa0>
2000b562:	9a0a      	ldr	r2, [sp, #40]	@ 0x28
2000b564:	429a      	cmp	r2, r3
2000b566:	da42      	bge.n	2000b5ee <_svfprintf_r+0x1b26>
2000b568:	f1a9 0902 	sub.w	r9, r9, #2
2000b56c:	9b13      	ldr	r3, [sp, #76]	@ 0x4c
2000b56e:	f88d 90b0 	strb.w	r9, [sp, #176]	@ 0xb0
2000b572:	3b01      	subs	r3, #1
2000b574:	2b00      	cmp	r3, #0
2000b576:	9329      	str	r3, [sp, #164]	@ 0xa4
2000b578:	f2c0 81d8 	blt.w	2000b92c <_svfprintf_r+0x1e64>
2000b57c:	222b      	movs	r2, #43	@ 0x2b
2000b57e:	2b09      	cmp	r3, #9
2000b580:	f88d 20b1 	strb.w	r2, [sp, #177]	@ 0xb1
2000b584:	f340 81db 	ble.w	2000b93e <_svfprintf_r+0x1e76>
2000b588:	2200      	movs	r2, #0
2000b58a:	9907      	ldr	r1, [sp, #28]
2000b58c:	920f      	str	r2, [sp, #60]	@ 0x3c
2000b58e:	f10d 0cc7 	add.w	ip, sp, #199	@ 0xc7
2000b592:	f8df e0ec 	ldr.w	lr, [pc, #236]	@ 2000b680 <_svfprintf_r+0x1bb8>
2000b596:	4665      	mov	r5, ip
2000b598:	fbae 2a03 	umull	r2, sl, lr, r3
2000b59c:	461e      	mov	r6, r3
2000b59e:	4628      	mov	r0, r5
2000b5a0:	3d01      	subs	r5, #1
2000b5a2:	ea4f 0ada 	mov.w	sl, sl, lsr #3
2000b5a6:	2e63      	cmp	r6, #99	@ 0x63
2000b5a8:	eb0a 028a 	add.w	r2, sl, sl, lsl #2
2000b5ac:	eba3 0242 	sub.w	r2, r3, r2, lsl #1
2000b5b0:	4653      	mov	r3, sl
2000b5b2:	f102 0230 	add.w	r2, r2, #48	@ 0x30
2000b5b6:	f800 2c01 	strb.w	r2, [r0, #-1]
2000b5ba:	dced      	bgt.n	2000b598 <_svfprintf_r+0x1ad0>
2000b5bc:	3330      	adds	r3, #48	@ 0x30
2000b5be:	f805 3c01 	strb.w	r3, [r5, #-1]
2000b5c2:	1e83      	subs	r3, r0, #2
2000b5c4:	4563      	cmp	r3, ip
2000b5c6:	f080 82ef 	bcs.w	2000bba8 <_svfprintf_r+0x20e0>
2000b5ca:	f10d 02b1 	add.w	r2, sp, #177	@ 0xb1
2000b5ce:	f813 5b01 	ldrb.w	r5, [r3], #1
2000b5d2:	4563      	cmp	r3, ip
2000b5d4:	f802 5f01 	strb.w	r5, [r2, #1]!
2000b5d8:	d1f9      	bne.n	2000b5ce <_svfprintf_r+0x1b06>
2000b5da:	f503 73bc 	add.w	r3, r3, #376	@ 0x178
2000b5de:	aa2c      	add	r2, sp, #176	@ 0xb0
2000b5e0:	446b      	add	r3, sp
2000b5e2:	3bc4      	subs	r3, #196	@ 0xc4
2000b5e4:	1a1b      	subs	r3, r3, r0
2000b5e6:	1a9b      	subs	r3, r3, r2
2000b5e8:	931b      	str	r3, [sp, #108]	@ 0x6c
2000b5ea:	f7ff bb3b 	b.w	2000ac64 <_svfprintf_r+0x119c>
2000b5ee:	9b13      	ldr	r3, [sp, #76]	@ 0x4c
2000b5f0:	9a15      	ldr	r2, [sp, #84]	@ 0x54
2000b5f2:	4293      	cmp	r3, r2
2000b5f4:	f2c0 810c 	blt.w	2000b810 <_svfprintf_r+0x1d48>
2000b5f8:	9b07      	ldr	r3, [sp, #28]
2000b5fa:	f013 0f01 	tst.w	r3, #1
2000b5fe:	9b13      	ldr	r3, [sp, #76]	@ 0x4c
2000b600:	f000 81af 	beq.w	2000b962 <_svfprintf_r+0x1e9a>
2000b604:	9a19      	ldr	r2, [sp, #100]	@ 0x64
2000b606:	4413      	add	r3, r2
2000b608:	9310      	str	r3, [sp, #64]	@ 0x40
2000b60a:	9b07      	ldr	r3, [sp, #28]
2000b60c:	0559      	lsls	r1, r3, #21
2000b60e:	d503      	bpl.n	2000b618 <_svfprintf_r+0x1b50>
2000b610:	9b13      	ldr	r3, [sp, #76]	@ 0x4c
2000b612:	2b00      	cmp	r3, #0
2000b614:	f300 81b6 	bgt.w	2000b984 <_svfprintf_r+0x1ebc>
2000b618:	9b10      	ldr	r3, [sp, #64]	@ 0x40
2000b61a:	f04f 0967 	mov.w	r9, #103	@ 0x67
2000b61e:	ea23 73e3 	bic.w	r3, r3, r3, asr #31
2000b622:	9309      	str	r3, [sp, #36]	@ 0x24
2000b624:	e664      	b.n	2000b2f0 <_svfprintf_r+0x1828>
2000b626:	aa32      	add	r2, sp, #200	@ 0xc8
2000b628:	990e      	ldr	r1, [sp, #56]	@ 0x38
2000b62a:	9808      	ldr	r0, [sp, #32]
2000b62c:	f000 fb20 	bl	2000bc70 <__ssprint_r>
2000b630:	2800      	cmp	r0, #0
2000b632:	f47e afc5 	bne.w	2000a5c0 <_svfprintf_r+0xaf8>
2000b636:	9929      	ldr	r1, [sp, #164]	@ 0xa4
2000b638:	aa35      	add	r2, sp, #212	@ 0xd4
2000b63a:	e9dd 3533 	ldrd	r3, r5, [sp, #204]	@ 0xcc
2000b63e:	e4dc      	b.n	2000affa <_svfprintf_r+0x1532>
2000b640:	aa32      	add	r2, sp, #200	@ 0xc8
2000b642:	990e      	ldr	r1, [sp, #56]	@ 0x38
2000b644:	9808      	ldr	r0, [sp, #32]
2000b646:	f000 fb13 	bl	2000bc70 <__ssprint_r>
2000b64a:	2800      	cmp	r0, #0
2000b64c:	f47e afb8 	bne.w	2000a5c0 <_svfprintf_r+0xaf8>
2000b650:	9d34      	ldr	r5, [sp, #208]	@ 0xd0
2000b652:	ac35      	add	r4, sp, #212	@ 0xd4
2000b654:	f7ff b8a7 	b.w	2000a7a6 <_svfprintf_r+0xcde>
2000b658:	aa32      	add	r2, sp, #200	@ 0xc8
2000b65a:	990e      	ldr	r1, [sp, #56]	@ 0x38
2000b65c:	9808      	ldr	r0, [sp, #32]
2000b65e:	9310      	str	r3, [sp, #64]	@ 0x40
2000b660:	f000 fb06 	bl	2000bc70 <__ssprint_r>
2000b664:	2800      	cmp	r0, #0
2000b666:	f47e afab 	bne.w	2000a5c0 <_svfprintf_r+0xaf8>
2000b66a:	f899 0000 	ldrb.w	r0, [r9]
2000b66e:	aa35      	add	r2, sp, #212	@ 0xd4
2000b670:	9934      	ldr	r1, [sp, #208]	@ 0xd0
2000b672:	9b10      	ldr	r3, [sp, #64]	@ 0x40
2000b674:	e43c      	b.n	2000aef0 <_svfprintf_r+0x1428>
2000b676:	bf00      	nop
2000b678:	2000eb98 	.word	0x2000eb98
2000b67c:	2000eb94 	.word	0x2000eb94
2000b680:	cccccccd 	.word	0xcccccccd
2000b684:	9a1e      	ldr	r2, [sp, #120]	@ 0x78
2000b686:	991c      	ldr	r1, [sp, #112]	@ 0x70
2000b688:	eba7 0a02 	sub.w	sl, r7, r2
2000b68c:	4650      	mov	r0, sl
2000b68e:	f000 fb1b 	bl	2000bcc8 <strncpy>
2000b692:	f899 3001 	ldrb.w	r3, [r9, #1]
2000b696:	b10b      	cbz	r3, 2000b69c <_svfprintf_r+0x1bd4>
2000b698:	f109 0901 	add.w	r9, r9, #1
2000b69c:	19ab      	adds	r3, r5, r6
2000b69e:	4ab6      	ldr	r2, [pc, #728]	@ (2000b978 <_svfprintf_r+0x1eb0>)
2000b6a0:	f04f 31cc 	mov.w	r1, #3435973836	@ 0xcccccccc
2000b6a4:	f04f 0e01 	mov.w	lr, #1
2000b6a8:	f143 0300 	adc.w	r3, r3, #0
2000b6ac:	f10a 37ff 	add.w	r7, sl, #4294967295
2000b6b0:	fba2 0c03 	umull	r0, ip, r2, r3
2000b6b4:	f02c 0003 	bic.w	r0, ip, #3
2000b6b8:	eb00 009c 	add.w	r0, r0, ip, lsr #2
2000b6bc:	1a1b      	subs	r3, r3, r0
2000b6be:	1aeb      	subs	r3, r5, r3
2000b6c0:	f166 0600 	sbc.w	r6, r6, #0
2000b6c4:	fb03 f101 	mul.w	r1, r3, r1
2000b6c8:	fba3 3002 	umull	r3, r0, r3, r2
2000b6cc:	fb02 1106 	mla	r1, r2, r6, r1
2000b6d0:	fa23 f30e 	lsr.w	r3, r3, lr
2000b6d4:	4401      	add	r1, r0
2000b6d6:	ea43 75c1 	orr.w	r5, r3, r1, lsl #31
2000b6da:	fa21 f60e 	lsr.w	r6, r1, lr
2000b6de:	19ab      	adds	r3, r5, r6
2000b6e0:	f143 0300 	adc.w	r3, r3, #0
2000b6e4:	fba2 1003 	umull	r1, r0, r2, r3
2000b6e8:	f020 0103 	bic.w	r1, r0, #3
2000b6ec:	eb01 0190 	add.w	r1, r1, r0, lsr #2
2000b6f0:	1a5b      	subs	r3, r3, r1
2000b6f2:	1aeb      	subs	r3, r5, r3
2000b6f4:	fba3 3102 	umull	r3, r1, r3, r2
2000b6f8:	f166 0000 	sbc.w	r0, r6, #0
2000b6fc:	fa23 f30e 	lsr.w	r3, r3, lr
2000b700:	fb02 1200 	mla	r2, r2, r0, r1
2000b704:	ea43 73c2 	orr.w	r3, r3, r2, lsl #31
2000b708:	eb03 0383 	add.w	r3, r3, r3, lsl #2
2000b70c:	eba5 0343 	sub.w	r3, r5, r3, lsl #1
2000b710:	3330      	adds	r3, #48	@ 0x30
2000b712:	f80a 3c01 	strb.w	r3, [sl, #-1]
2000b716:	f7fe bef0 	b.w	2000a4fa <_svfprintf_r+0xa32>
2000b71a:	46aa      	mov	sl, r5
2000b71c:	f7fe bf52 	b.w	2000a5c4 <_svfprintf_r+0xafc>
2000b720:	aa32      	add	r2, sp, #200	@ 0xc8
2000b722:	990e      	ldr	r1, [sp, #56]	@ 0x38
2000b724:	9808      	ldr	r0, [sp, #32]
2000b726:	930a      	str	r3, [sp, #40]	@ 0x28
2000b728:	f000 faa2 	bl	2000bc70 <__ssprint_r>
2000b72c:	2800      	cmp	r0, #0
2000b72e:	f47e af47 	bne.w	2000a5c0 <_svfprintf_r+0xaf8>
2000b732:	9e29      	ldr	r6, [sp, #164]	@ 0xa4
2000b734:	ac35      	add	r4, sp, #212	@ 0xd4
2000b736:	9d34      	ldr	r5, [sp, #208]	@ 0xd0
2000b738:	9b0a      	ldr	r3, [sp, #40]	@ 0x28
2000b73a:	f7ff b858 	b.w	2000a7ee <_svfprintf_r+0xd26>
2000b73e:	9b07      	ldr	r3, [sp, #28]
2000b740:	07d9      	lsls	r1, r3, #31
2000b742:	f57e ab2e 	bpl.w	20009da2 <_svfprintf_r+0x2da>
2000b746:	9b19      	ldr	r3, [sp, #100]	@ 0x64
2000b748:	9a1a      	ldr	r2, [sp, #104]	@ 0x68
2000b74a:	441d      	add	r5, r3
2000b74c:	e9c4 2300 	strd	r2, r3, [r4]
2000b750:	9b33      	ldr	r3, [sp, #204]	@ 0xcc
2000b752:	9534      	str	r5, [sp, #208]	@ 0xd0
2000b754:	3301      	adds	r3, #1
2000b756:	2b07      	cmp	r3, #7
2000b758:	9333      	str	r3, [sp, #204]	@ 0xcc
2000b75a:	f73f af64 	bgt.w	2000b626 <_svfprintf_r+0x1b5e>
2000b75e:	f104 0208 	add.w	r2, r4, #8
2000b762:	e44d      	b.n	2000b000 <_svfprintf_r+0x1538>
2000b764:	9b0a      	ldr	r3, [sp, #40]	@ 0x28
2000b766:	3301      	adds	r3, #1
2000b768:	9315      	str	r3, [sp, #84]	@ 0x54
2000b76a:	2302      	movs	r3, #2
2000b76c:	e56d      	b.n	2000b24a <_svfprintf_r+0x1782>
2000b76e:	f89d 309f 	ldrb.w	r3, [sp, #159]	@ 0x9f
2000b772:	2b00      	cmp	r3, #0
2000b774:	f000 81e7 	beq.w	2000bb46 <_svfprintf_r+0x207e>
2000b778:	9a09      	ldr	r2, [sp, #36]	@ 0x24
2000b77a:	9b1f      	ldr	r3, [sp, #124]	@ 0x7c
2000b77c:	3201      	adds	r2, #1
2000b77e:	f8cd a01c 	str.w	sl, [sp, #28]
2000b782:	930f      	str	r3, [sp, #60]	@ 0x3c
2000b784:	9209      	str	r2, [sp, #36]	@ 0x24
2000b786:	930a      	str	r3, [sp, #40]	@ 0x28
2000b788:	9318      	str	r3, [sp, #96]	@ 0x60
2000b78a:	9314      	str	r3, [sp, #80]	@ 0x50
2000b78c:	f7fe bac8 	b.w	20009d20 <_svfprintf_r+0x258>
2000b790:	aa32      	add	r2, sp, #200	@ 0xc8
2000b792:	990e      	ldr	r1, [sp, #56]	@ 0x38
2000b794:	9808      	ldr	r0, [sp, #32]
2000b796:	f000 fa6b 	bl	2000bc70 <__ssprint_r>
2000b79a:	2800      	cmp	r0, #0
2000b79c:	f47e af10 	bne.w	2000a5c0 <_svfprintf_r+0xaf8>
2000b7a0:	9e29      	ldr	r6, [sp, #164]	@ 0xa4
2000b7a2:	ac35      	add	r4, sp, #212	@ 0xd4
2000b7a4:	9b15      	ldr	r3, [sp, #84]	@ 0x54
2000b7a6:	9d34      	ldr	r5, [sp, #208]	@ 0xd0
2000b7a8:	1b9e      	subs	r6, r3, r6
2000b7aa:	f7ff b834 	b.w	2000a816 <_svfprintf_r+0xd4e>
2000b7ae:	2300      	movs	r3, #0
2000b7b0:	460d      	mov	r5, r1
2000b7b2:	930a      	str	r3, [sp, #40]	@ 0x28
2000b7b4:	f7fe b9e7 	b.w	20009b86 <_svfprintf_r+0xbe>
2000b7b8:	424e      	negs	r6, r1
2000b7ba:	3110      	adds	r1, #16
2000b7bc:	f8df a1c0 	ldr.w	sl, [pc, #448]	@ 2000b980 <_svfprintf_r+0x1eb8>
2000b7c0:	da47      	bge.n	2000b852 <_svfprintf_r+0x1d8a>
2000b7c2:	46b9      	mov	r9, r7
2000b7c4:	2410      	movs	r4, #16
2000b7c6:	4657      	mov	r7, sl
2000b7c8:	e002      	b.n	2000b7d0 <_svfprintf_r+0x1d08>
2000b7ca:	3e10      	subs	r6, #16
2000b7cc:	2e10      	cmp	r6, #16
2000b7ce:	dd3e      	ble.n	2000b84e <_svfprintf_r+0x1d86>
2000b7d0:	3301      	adds	r3, #1
2000b7d2:	3510      	adds	r5, #16
2000b7d4:	2b07      	cmp	r3, #7
2000b7d6:	e9c2 7400 	strd	r7, r4, [r2]
2000b7da:	e9cd 3533 	strd	r3, r5, [sp, #204]	@ 0xcc
2000b7de:	f102 0208 	add.w	r2, r2, #8
2000b7e2:	ddf2      	ble.n	2000b7ca <_svfprintf_r+0x1d02>
2000b7e4:	aa32      	add	r2, sp, #200	@ 0xc8
2000b7e6:	990e      	ldr	r1, [sp, #56]	@ 0x38
2000b7e8:	9808      	ldr	r0, [sp, #32]
2000b7ea:	f000 fa41 	bl	2000bc70 <__ssprint_r>
2000b7ee:	2800      	cmp	r0, #0
2000b7f0:	f47e aee6 	bne.w	2000a5c0 <_svfprintf_r+0xaf8>
2000b7f4:	aa35      	add	r2, sp, #212	@ 0xd4
2000b7f6:	e9dd 3533 	ldrd	r3, r5, [sp, #204]	@ 0xcc
2000b7fa:	e7e6      	b.n	2000b7ca <_svfprintf_r+0x1d02>
2000b7fc:	9a09      	ldr	r2, [sp, #36]	@ 0x24
2000b7fe:	930a      	str	r3, [sp, #40]	@ 0x28
2000b800:	3201      	adds	r2, #1
2000b802:	9612      	str	r6, [sp, #72]	@ 0x48
2000b804:	9318      	str	r3, [sp, #96]	@ 0x60
2000b806:	9209      	str	r2, [sp, #36]	@ 0x24
2000b808:	e9cd 3313 	strd	r3, r3, [sp, #76]	@ 0x4c
2000b80c:	f7fe ba88 	b.w	20009d20 <_svfprintf_r+0x258>
2000b810:	9b15      	ldr	r3, [sp, #84]	@ 0x54
2000b812:	9a19      	ldr	r2, [sp, #100]	@ 0x64
2000b814:	189a      	adds	r2, r3, r2
2000b816:	9b13      	ldr	r3, [sp, #76]	@ 0x4c
2000b818:	2b00      	cmp	r3, #0
2000b81a:	9210      	str	r2, [sp, #64]	@ 0x40
2000b81c:	dd77      	ble.n	2000b90e <_svfprintf_r+0x1e46>
2000b81e:	f04f 0967 	mov.w	r9, #103	@ 0x67
2000b822:	e55d      	b.n	2000b2e0 <_svfprintf_r+0x1818>
2000b824:	9b0a      	ldr	r3, [sp, #40]	@ 0x28
2000b826:	2200      	movs	r2, #0
2000b828:	18c5      	adds	r5, r0, r3
2000b82a:	2300      	movs	r3, #0
2000b82c:	e9dd 0122 	ldrd	r0, r1, [sp, #136]	@ 0x88
2000b830:	f7f8 fd32 	bl	20004298 <__wrap___aeabi_dcmpeq>
2000b834:	2800      	cmp	r0, #0
2000b836:	d134      	bne.n	2000b8a2 <_svfprintf_r+0x1dda>
2000b838:	9b30      	ldr	r3, [sp, #192]	@ 0xc0
2000b83a:	429d      	cmp	r5, r3
2000b83c:	f63f ad2c 	bhi.w	2000b298 <_svfprintf_r+0x17d0>
2000b840:	e531      	b.n	2000b2a6 <_svfprintf_r+0x17de>
2000b842:	9b1f      	ldr	r3, [sp, #124]	@ 0x7c
2000b844:	f89d c09f 	ldrb.w	ip, [sp, #159]	@ 0x9f
2000b848:	930a      	str	r3, [sp, #40]	@ 0x28
2000b84a:	f7fe bc7c 	b.w	2000a146 <_svfprintf_r+0x67e>
2000b84e:	46ba      	mov	sl, r7
2000b850:	464f      	mov	r7, r9
2000b852:	3301      	adds	r3, #1
2000b854:	4435      	add	r5, r6
2000b856:	f8c2 a000 	str.w	sl, [r2]
2000b85a:	2b07      	cmp	r3, #7
2000b85c:	6056      	str	r6, [r2, #4]
2000b85e:	e9cd 3533 	strd	r3, r5, [sp, #204]	@ 0xcc
2000b862:	f300 8137 	bgt.w	2000bad4 <_svfprintf_r+0x200c>
2000b866:	3208      	adds	r2, #8
2000b868:	f7ff bbca 	b.w	2000b000 <_svfprintf_r+0x1538>
2000b86c:	07c8      	lsls	r0, r1, #31
2000b86e:	f57f aa04 	bpl.w	2000ac7a <_svfprintf_r+0x11b2>
2000b872:	f7ff b9fe 	b.w	2000ac72 <_svfprintf_r+0x11aa>
2000b876:	46b2      	mov	sl, r6
2000b878:	9b0e      	ldr	r3, [sp, #56]	@ 0x38
2000b87a:	2200      	movs	r2, #0
2000b87c:	f9b3 300c 	ldrsh.w	r3, [r3, #12]
2000b880:	920f      	str	r2, [sp, #60]	@ 0x3c
2000b882:	f043 0340 	orr.w	r3, r3, #64	@ 0x40
2000b886:	9a0e      	ldr	r2, [sp, #56]	@ 0x38
2000b888:	8193      	strh	r3, [r2, #12]
2000b88a:	f7fe be9b 	b.w	2000a5c4 <_svfprintf_r+0xafc>
2000b88e:	f102 4300 	add.w	r3, r2, #2147483648	@ 0x80000000
2000b892:	af45      	add	r7, sp, #276	@ 0x114
2000b894:	9124      	str	r1, [sp, #144]	@ 0x90
2000b896:	9325      	str	r3, [sp, #148]	@ 0x94
2000b898:	232d      	movs	r3, #45	@ 0x2d
2000b89a:	900f      	str	r0, [sp, #60]	@ 0x3c
2000b89c:	931f      	str	r3, [sp, #124]	@ 0x7c
2000b89e:	f7ff b945 	b.w	2000ab2c <_svfprintf_r+0x1064>
2000b8a2:	9b29      	ldr	r3, [sp, #164]	@ 0xa4
2000b8a4:	9313      	str	r3, [sp, #76]	@ 0x4c
2000b8a6:	9b0a      	ldr	r3, [sp, #40]	@ 0x28
2000b8a8:	9315      	str	r3, [sp, #84]	@ 0x54
2000b8aa:	e657      	b.n	2000b55c <_svfprintf_r+0x1a94>
2000b8ac:	9b07      	ldr	r3, [sp, #28]
2000b8ae:	f023 0380 	bic.w	r3, r3, #128	@ 0x80
2000b8b2:	9307      	str	r3, [sp, #28]
2000b8b4:	9b17      	ldr	r3, [sp, #92]	@ 0x5c
2000b8b6:	f013 4300 	ands.w	r3, r3, #2147483648	@ 0x80000000
2000b8ba:	9313      	str	r3, [sp, #76]	@ 0x4c
2000b8bc:	f000 8117 	beq.w	2000baee <_svfprintf_r+0x2026>
2000b8c0:	232d      	movs	r3, #45	@ 0x2d
2000b8c2:	2203      	movs	r2, #3
2000b8c4:	f1b9 0f47 	cmp.w	r9, #71	@ 0x47
2000b8c8:	f88d 309f 	strb.w	r3, [sp, #159]	@ 0x9f
2000b8cc:	f04f 0300 	mov.w	r3, #0
2000b8d0:	e9cd 320f 	strd	r3, r2, [sp, #60]	@ 0x3c
2000b8d4:	f340 8140 	ble.w	2000bb58 <_svfprintf_r+0x2090>
2000b8d8:	4f28      	ldr	r7, [pc, #160]	@ (2000b97c <_svfprintf_r+0x1eb4>)
2000b8da:	e576      	b.n	2000b3ca <_svfprintf_r+0x1902>
2000b8dc:	4649      	mov	r1, r9
2000b8de:	9c0a      	ldr	r4, [sp, #40]	@ 0x28
2000b8e0:	f8dd 904c 	ldr.w	r9, [sp, #76]	@ 0x4c
2000b8e4:	465f      	mov	r7, fp
2000b8e6:	2900      	cmp	r1, #0
2000b8e8:	f6ff a99f 	blt.w	2000ac2a <_svfprintf_r+0x1162>
2000b8ec:	1c4a      	adds	r2, r1, #1
2000b8ee:	4633      	mov	r3, r6
2000b8f0:	2030      	movs	r0, #48	@ 0x30
2000b8f2:	4432      	add	r2, r6
2000b8f4:	f803 0b01 	strb.w	r0, [r3], #1
2000b8f8:	4293      	cmp	r3, r2
2000b8fa:	d1fb      	bne.n	2000b8f4 <_svfprintf_r+0x1e2c>
2000b8fc:	4431      	add	r1, r6
2000b8fe:	1c4e      	adds	r6, r1, #1
2000b900:	f7ff b993 	b.w	2000ac2a <_svfprintf_r+0x1162>
2000b904:	9b0a      	ldr	r3, [sp, #40]	@ 0x28
2000b906:	9c09      	ldr	r4, [sp, #36]	@ 0x24
2000b908:	9e0f      	ldr	r6, [sp, #60]	@ 0x3c
2000b90a:	9310      	str	r3, [sp, #64]	@ 0x40
2000b90c:	e526      	b.n	2000b35c <_svfprintf_r+0x1894>
2000b90e:	f1c3 0301 	rsb	r3, r3, #1
2000b912:	f04f 0967 	mov.w	r9, #103	@ 0x67
2000b916:	441a      	add	r2, r3
2000b918:	ea22 73e2 	bic.w	r3, r2, r2, asr #31
2000b91c:	9210      	str	r2, [sp, #64]	@ 0x40
2000b91e:	9309      	str	r3, [sp, #36]	@ 0x24
2000b920:	e4e6      	b.n	2000b2f0 <_svfprintf_r+0x1828>
2000b922:	2300      	movs	r3, #0
2000b924:	2203      	movs	r2, #3
2000b926:	e9cd 320f 	strd	r3, r2, [sp, #60]	@ 0x3c
2000b92a:	e54e      	b.n	2000b3ca <_svfprintf_r+0x1902>
2000b92c:	9b13      	ldr	r3, [sp, #76]	@ 0x4c
2000b92e:	222d      	movs	r2, #45	@ 0x2d
2000b930:	f1c3 0301 	rsb	r3, r3, #1
2000b934:	f88d 20b1 	strb.w	r2, [sp, #177]	@ 0xb1
2000b938:	2b09      	cmp	r3, #9
2000b93a:	f73f ae25 	bgt.w	2000b588 <_svfprintf_r+0x1ac0>
2000b93e:	2230      	movs	r2, #48	@ 0x30
2000b940:	9907      	ldr	r1, [sp, #28]
2000b942:	f88d 20b2 	strb.w	r2, [sp, #178]	@ 0xb2
2000b946:	2200      	movs	r2, #0
2000b948:	920f      	str	r2, [sp, #60]	@ 0x3c
2000b94a:	f10d 02b3 	add.w	r2, sp, #179	@ 0xb3
2000b94e:	f7ff b983 	b.w	2000ac58 <_svfprintf_r+0x1190>
2000b952:	4613      	mov	r3, r2
2000b954:	9a19      	ldr	r2, [sp, #100]	@ 0x64
2000b956:	f04f 0966 	mov.w	r9, #102	@ 0x66
2000b95a:	4413      	add	r3, r2
2000b95c:	440b      	add	r3, r1
2000b95e:	9310      	str	r3, [sp, #64]	@ 0x40
2000b960:	e4be      	b.n	2000b2e0 <_svfprintf_r+0x1818>
2000b962:	9310      	str	r3, [sp, #64]	@ 0x40
2000b964:	e651      	b.n	2000b60a <_svfprintf_r+0x1b42>
2000b966:	e9dd 1216 	ldrd	r1, r2, [sp, #88]	@ 0x58
2000b96a:	f102 4300 	add.w	r3, r2, #2147483648	@ 0x80000000
2000b96e:	9122      	str	r1, [sp, #136]	@ 0x88
2000b970:	9323      	str	r3, [sp, #140]	@ 0x8c
2000b972:	232d      	movs	r3, #45	@ 0x2d
2000b974:	931f      	str	r3, [sp, #124]	@ 0x7c
2000b976:	e457      	b.n	2000b228 <_svfprintf_r+0x1760>
2000b978:	cccccccd 	.word	0xcccccccd
2000b97c:	2000eba0 	.word	0x2000eba0
2000b980:	2000f788 	.word	0x2000f788
2000b984:	f04f 0967 	mov.w	r9, #103	@ 0x67
2000b988:	991d      	ldr	r1, [sp, #116]	@ 0x74
2000b98a:	780b      	ldrb	r3, [r1, #0]
2000b98c:	2bff      	cmp	r3, #255	@ 0xff
2000b98e:	f000 8139 	beq.w	2000bc04 <_svfprintf_r+0x213c>
2000b992:	2500      	movs	r5, #0
2000b994:	9a13      	ldr	r2, [sp, #76]	@ 0x4c
2000b996:	4628      	mov	r0, r5
2000b998:	e003      	b.n	2000b9a2 <_svfprintf_r+0x1eda>
2000b99a:	3001      	adds	r0, #1
2000b99c:	3101      	adds	r1, #1
2000b99e:	2bff      	cmp	r3, #255	@ 0xff
2000b9a0:	d008      	beq.n	2000b9b4 <_svfprintf_r+0x1eec>
2000b9a2:	4293      	cmp	r3, r2
2000b9a4:	da06      	bge.n	2000b9b4 <_svfprintf_r+0x1eec>
2000b9a6:	1ad2      	subs	r2, r2, r3
2000b9a8:	784b      	ldrb	r3, [r1, #1]
2000b9aa:	2b00      	cmp	r3, #0
2000b9ac:	d1f5      	bne.n	2000b99a <_svfprintf_r+0x1ed2>
2000b9ae:	780b      	ldrb	r3, [r1, #0]
2000b9b0:	3501      	adds	r5, #1
2000b9b2:	e7f4      	b.n	2000b99e <_svfprintf_r+0x1ed6>
2000b9b4:	911d      	str	r1, [sp, #116]	@ 0x74
2000b9b6:	9014      	str	r0, [sp, #80]	@ 0x50
2000b9b8:	9518      	str	r5, [sp, #96]	@ 0x60
2000b9ba:	9213      	str	r2, [sp, #76]	@ 0x4c
2000b9bc:	9a18      	ldr	r2, [sp, #96]	@ 0x60
2000b9be:	9b14      	ldr	r3, [sp, #80]	@ 0x50
2000b9c0:	991e      	ldr	r1, [sp, #120]	@ 0x78
2000b9c2:	4413      	add	r3, r2
2000b9c4:	9a10      	ldr	r2, [sp, #64]	@ 0x40
2000b9c6:	fb01 2303 	mla	r3, r1, r3, r2
2000b9ca:	9310      	str	r3, [sp, #64]	@ 0x40
2000b9cc:	ea23 73e3 	bic.w	r3, r3, r3, asr #31
2000b9d0:	9309      	str	r3, [sp, #36]	@ 0x24
2000b9d2:	9b1f      	ldr	r3, [sp, #124]	@ 0x7c
2000b9d4:	2b00      	cmp	r3, #0
2000b9d6:	d063      	beq.n	2000baa0 <_svfprintf_r+0x1fd8>
2000b9d8:	9b09      	ldr	r3, [sp, #36]	@ 0x24
2000b9da:	f8cd a01c 	str.w	sl, [sp, #28]
2000b9de:	3301      	adds	r3, #1
2000b9e0:	9309      	str	r3, [sp, #36]	@ 0x24
2000b9e2:	232d      	movs	r3, #45	@ 0x2d
2000b9e4:	f88d 309f 	strb.w	r3, [sp, #159]	@ 0x9f
2000b9e8:	2300      	movs	r3, #0
2000b9ea:	930f      	str	r3, [sp, #60]	@ 0x3c
2000b9ec:	930a      	str	r3, [sp, #40]	@ 0x28
2000b9ee:	f7fe b997 	b.w	20009d20 <_svfprintf_r+0x258>
2000b9f2:	9612      	str	r6, [sp, #72]	@ 0x48
2000b9f4:	2b00      	cmp	r3, #0
2000b9f6:	d032      	beq.n	2000ba5e <_svfprintf_r+0x1f96>
2000b9f8:	9b0a      	ldr	r3, [sp, #40]	@ 0x28
2000b9fa:	f04f 0973 	mov.w	r9, #115	@ 0x73
2000b9fe:	900a      	str	r0, [sp, #40]	@ 0x28
2000ba00:	1c5a      	adds	r2, r3, #1
2000ba02:	9310      	str	r3, [sp, #64]	@ 0x40
2000ba04:	9018      	str	r0, [sp, #96]	@ 0x60
2000ba06:	9209      	str	r2, [sp, #36]	@ 0x24
2000ba08:	9014      	str	r0, [sp, #80]	@ 0x50
2000ba0a:	f7fe b989 	b.w	20009d20 <_svfprintf_r+0x258>
2000ba0e:	1beb      	subs	r3, r5, r7
2000ba10:	9315      	str	r3, [sp, #84]	@ 0x54
2000ba12:	9b29      	ldr	r3, [sp, #164]	@ 0xa4
2000ba14:	9313      	str	r3, [sp, #76]	@ 0x4c
2000ba16:	e452      	b.n	2000b2be <_svfprintf_r+0x17f6>
2000ba18:	2200      	movs	r2, #0
2000ba1a:	2300      	movs	r3, #0
2000ba1c:	e9dd 0122 	ldrd	r0, r1, [sp, #136]	@ 0x88
2000ba20:	f7f8 fc3a 	bl	20004298 <__wrap___aeabi_dcmpeq>
2000ba24:	2800      	cmp	r0, #0
2000ba26:	f000 80af 	beq.w	2000bb88 <_svfprintf_r+0x20c0>
2000ba2a:	9b29      	ldr	r3, [sp, #164]	@ 0xa4
2000ba2c:	9313      	str	r3, [sp, #76]	@ 0x4c
2000ba2e:	18eb      	adds	r3, r5, r3
2000ba30:	1bdb      	subs	r3, r3, r7
2000ba32:	9315      	str	r3, [sp, #84]	@ 0x54
2000ba34:	e443      	b.n	2000b2be <_svfprintf_r+0x17f6>
2000ba36:	2200      	movs	r2, #0
2000ba38:	2300      	movs	r3, #0
2000ba3a:	e9dd 0122 	ldrd	r0, r1, [sp, #136]	@ 0x88
2000ba3e:	f7f8 fc2b 	bl	20004298 <__wrap___aeabi_dcmpeq>
2000ba42:	b928      	cbnz	r0, 2000ba50 <_svfprintf_r+0x1f88>
2000ba44:	9b30      	ldr	r3, [sp, #192]	@ 0xc0
2000ba46:	429d      	cmp	r5, r3
2000ba48:	f63f ac26 	bhi.w	2000b298 <_svfprintf_r+0x17d0>
2000ba4c:	1bdb      	subs	r3, r3, r7
2000ba4e:	9315      	str	r3, [sp, #84]	@ 0x54
2000ba50:	9b29      	ldr	r3, [sp, #164]	@ 0xa4
2000ba52:	f1bb 0f47 	cmp.w	fp, #71	@ 0x47
2000ba56:	9313      	str	r3, [sp, #76]	@ 0x4c
2000ba58:	f47f ad88 	bne.w	2000b56c <_svfprintf_r+0x1aa4>
2000ba5c:	e57e      	b.n	2000b55c <_svfprintf_r+0x1a94>
2000ba5e:	9b0a      	ldr	r3, [sp, #40]	@ 0x28
2000ba60:	f04f 0973 	mov.w	r9, #115	@ 0x73
2000ba64:	9310      	str	r3, [sp, #64]	@ 0x40
2000ba66:	9309      	str	r3, [sp, #36]	@ 0x24
2000ba68:	9b0f      	ldr	r3, [sp, #60]	@ 0x3c
2000ba6a:	9318      	str	r3, [sp, #96]	@ 0x60
2000ba6c:	9314      	str	r3, [sp, #80]	@ 0x50
2000ba6e:	930a      	str	r3, [sp, #40]	@ 0x28
2000ba70:	f7fe b956 	b.w	20009d20 <_svfprintf_r+0x258>
2000ba74:	4623      	mov	r3, r4
2000ba76:	9f1f      	ldr	r7, [sp, #124]	@ 0x7c
2000ba78:	4614      	mov	r4, r2
2000ba7a:	460d      	mov	r5, r1
2000ba7c:	f8cd 9074 	str.w	r9, [sp, #116]	@ 0x74
2000ba80:	9a0a      	ldr	r2, [sp, #40]	@ 0x28
2000ba82:	4293      	cmp	r3, r2
2000ba84:	bf28      	it	cs
2000ba86:	4613      	movcs	r3, r2
2000ba88:	f7fe be9c 	b.w	2000a7c4 <_svfprintf_r+0xcfc>
2000ba8c:	f1c2 0301 	rsb	r3, r2, #1
2000ba90:	222d      	movs	r2, #45	@ 0x2d
2000ba92:	2b09      	cmp	r3, #9
2000ba94:	f88d 20b1 	strb.w	r2, [sp, #177]	@ 0xb1
2000ba98:	f73f ad79 	bgt.w	2000b58e <_svfprintf_r+0x1ac6>
2000ba9c:	f7ff b8da 	b.w	2000ac54 <_svfprintf_r+0x118c>
2000baa0:	f89d 309f 	ldrb.w	r3, [sp, #159]	@ 0x9f
2000baa4:	2b00      	cmp	r3, #0
2000baa6:	f000 80b9 	beq.w	2000bc1c <_svfprintf_r+0x2154>
2000baaa:	9a09      	ldr	r2, [sp, #36]	@ 0x24
2000baac:	9b1f      	ldr	r3, [sp, #124]	@ 0x7c
2000baae:	3201      	adds	r2, #1
2000bab0:	f8cd a01c 	str.w	sl, [sp, #28]
2000bab4:	930f      	str	r3, [sp, #60]	@ 0x3c
2000bab6:	9209      	str	r2, [sp, #36]	@ 0x24
2000bab8:	930a      	str	r3, [sp, #40]	@ 0x28
2000baba:	f7fe b931 	b.w	20009d20 <_svfprintf_r+0x258>
2000babe:	2900      	cmp	r1, #0
2000bac0:	db4c      	blt.n	2000bb5c <_svfprintf_r+0x2094>
2000bac2:	2301      	movs	r3, #1
2000bac4:	961f      	str	r6, [sp, #124]	@ 0x7c
2000bac6:	ed9d 7b16 	vldr	d7, [sp, #88]	@ 0x58
2000baca:	930a      	str	r3, [sp, #40]	@ 0x28
2000bacc:	ed8d 7b22 	vstr	d7, [sp, #136]	@ 0x88
2000bad0:	f7ff bbaa 	b.w	2000b228 <_svfprintf_r+0x1760>
2000bad4:	aa32      	add	r2, sp, #200	@ 0xc8
2000bad6:	990e      	ldr	r1, [sp, #56]	@ 0x38
2000bad8:	9808      	ldr	r0, [sp, #32]
2000bada:	f000 f8c9 	bl	2000bc70 <__ssprint_r>
2000bade:	2800      	cmp	r0, #0
2000bae0:	f47e ad6e 	bne.w	2000a5c0 <_svfprintf_r+0xaf8>
2000bae4:	aa35      	add	r2, sp, #212	@ 0xd4
2000bae6:	e9dd 3533 	ldrd	r3, r5, [sp, #204]	@ 0xcc
2000baea:	f7ff ba89 	b.w	2000b000 <_svfprintf_r+0x1538>
2000baee:	f1b9 0f47 	cmp.w	r9, #71	@ 0x47
2000baf2:	f89d 309f 	ldrb.w	r3, [sp, #159]	@ 0x9f
2000baf6:	bfcc      	ite	gt
2000baf8:	4f5a      	ldrgt	r7, [pc, #360]	@ (2000bc64 <_svfprintf_r+0x219c>)
2000bafa:	4f5b      	ldrle	r7, [pc, #364]	@ (2000bc68 <_svfprintf_r+0x21a0>)
2000bafc:	2b00      	cmp	r3, #0
2000bafe:	f040 8094 	bne.w	2000bc2a <_svfprintf_r+0x2162>
2000bb02:	2203      	movs	r2, #3
2000bb04:	930a      	str	r3, [sp, #40]	@ 0x28
2000bb06:	9318      	str	r3, [sp, #96]	@ 0x60
2000bb08:	9210      	str	r2, [sp, #64]	@ 0x40
2000bb0a:	9314      	str	r3, [sp, #80]	@ 0x50
2000bb0c:	930f      	str	r3, [sp, #60]	@ 0x3c
2000bb0e:	9209      	str	r2, [sp, #36]	@ 0x24
2000bb10:	f7fe b906 	b.w	20009d20 <_svfprintf_r+0x258>
2000bb14:	f102 4300 	add.w	r3, r2, #2147483648	@ 0x80000000
2000bb18:	9124      	str	r1, [sp, #144]	@ 0x90
2000bb1a:	900f      	str	r0, [sp, #60]	@ 0x3c
2000bb1c:	9325      	str	r3, [sp, #148]	@ 0x94
2000bb1e:	232d      	movs	r3, #45	@ 0x2d
2000bb20:	931f      	str	r3, [sp, #124]	@ 0x7c
2000bb22:	f7ff b803 	b.w	2000ab2c <_svfprintf_r+0x1064>
2000bb26:	e9dd 1216 	ldrd	r1, r2, [sp, #88]	@ 0x58
2000bb2a:	f102 4300 	add.w	r3, r2, #2147483648	@ 0x80000000
2000bb2e:	9122      	str	r1, [sp, #136]	@ 0x88
2000bb30:	9323      	str	r3, [sp, #140]	@ 0x8c
2000bb32:	232d      	movs	r3, #45	@ 0x2d
2000bb34:	931f      	str	r3, [sp, #124]	@ 0x7c
2000bb36:	2306      	movs	r3, #6
2000bb38:	930a      	str	r3, [sp, #40]	@ 0x28
2000bb3a:	f7ff bb75 	b.w	2000b228 <_svfprintf_r+0x1760>
2000bb3e:	f8df c12c 	ldr.w	ip, [pc, #300]	@ 2000bc6c <_svfprintf_r+0x21a4>
2000bb42:	f7ff ba2d 	b.w	2000afa0 <_svfprintf_r+0x14d8>
2000bb46:	9b1f      	ldr	r3, [sp, #124]	@ 0x7c
2000bb48:	f8cd a01c 	str.w	sl, [sp, #28]
2000bb4c:	930f      	str	r3, [sp, #60]	@ 0x3c
2000bb4e:	930a      	str	r3, [sp, #40]	@ 0x28
2000bb50:	9318      	str	r3, [sp, #96]	@ 0x60
2000bb52:	9314      	str	r3, [sp, #80]	@ 0x50
2000bb54:	f7fe b8e4 	b.w	20009d20 <_svfprintf_r+0x258>
2000bb58:	4f43      	ldr	r7, [pc, #268]	@ (2000bc68 <_svfprintf_r+0x21a0>)
2000bb5a:	e436      	b.n	2000b3ca <_svfprintf_r+0x1902>
2000bb5c:	f101 4300 	add.w	r3, r1, #2147483648	@ 0x80000000
2000bb60:	9022      	str	r0, [sp, #136]	@ 0x88
2000bb62:	9323      	str	r3, [sp, #140]	@ 0x8c
2000bb64:	232d      	movs	r3, #45	@ 0x2d
2000bb66:	931f      	str	r3, [sp, #124]	@ 0x7c
2000bb68:	2301      	movs	r3, #1
2000bb6a:	930a      	str	r3, [sp, #40]	@ 0x28
2000bb6c:	f7ff bb5c 	b.w	2000b228 <_svfprintf_r+0x1760>
2000bb70:	9b12      	ldr	r3, [sp, #72]	@ 0x48
2000bb72:	f895 9001 	ldrb.w	r9, [r5, #1]
2000bb76:	460d      	mov	r5, r1
2000bb78:	f853 2b04 	ldr.w	r2, [r3], #4
2000bb7c:	ea42 72e2 	orr.w	r2, r2, r2, asr #31
2000bb80:	9312      	str	r3, [sp, #72]	@ 0x48
2000bb82:	920a      	str	r2, [sp, #40]	@ 0x28
2000bb84:	f7fd bffe 	b.w	20009b84 <_svfprintf_r+0xbc>
2000bb88:	9b15      	ldr	r3, [sp, #84]	@ 0x54
2000bb8a:	f1c3 0301 	rsb	r3, r3, #1
2000bb8e:	9329      	str	r3, [sp, #164]	@ 0xa4
2000bb90:	f7ff bb74 	b.w	2000b27c <_svfprintf_r+0x17b4>
2000bb94:	9a0e      	ldr	r2, [sp, #56]	@ 0x38
2000bb96:	8993      	ldrh	r3, [r2, #12]
2000bb98:	f043 0340 	orr.w	r3, r3, #64	@ 0x40
2000bb9c:	8193      	strh	r3, [r2, #12]
2000bb9e:	f04f 33ff 	mov.w	r3, #4294967295
2000bba2:	930c      	str	r3, [sp, #48]	@ 0x30
2000bba4:	f7fe b895 	b.w	20009cd2 <_svfprintf_r+0x20a>
2000bba8:	2302      	movs	r3, #2
2000bbaa:	931b      	str	r3, [sp, #108]	@ 0x6c
2000bbac:	f7ff b85a 	b.w	2000ac64 <_svfprintf_r+0x119c>
2000bbb0:	b933      	cbnz	r3, 2000bbc0 <_svfprintf_r+0x20f8>
2000bbb2:	2301      	movs	r3, #1
2000bbb4:	f04f 0966 	mov.w	r9, #102	@ 0x66
2000bbb8:	9309      	str	r3, [sp, #36]	@ 0x24
2000bbba:	9310      	str	r3, [sp, #64]	@ 0x40
2000bbbc:	f7ff bb98 	b.w	2000b2f0 <_svfprintf_r+0x1828>
2000bbc0:	9b19      	ldr	r3, [sp, #100]	@ 0x64
2000bbc2:	f04f 0966 	mov.w	r9, #102	@ 0x66
2000bbc6:	9a0a      	ldr	r2, [sp, #40]	@ 0x28
2000bbc8:	3301      	adds	r3, #1
2000bbca:	441a      	add	r2, r3
2000bbcc:	ea22 73e2 	bic.w	r3, r2, r2, asr #31
2000bbd0:	9210      	str	r2, [sp, #64]	@ 0x40
2000bbd2:	9309      	str	r3, [sp, #36]	@ 0x24
2000bbd4:	f7ff bb8c 	b.w	2000b2f0 <_svfprintf_r+0x1828>
2000bbd8:	9b09      	ldr	r3, [sp, #36]	@ 0x24
2000bbda:	7a9b      	ldrb	r3, [r3, #10]
2000bbdc:	f7ff b823 	b.w	2000ac26 <_svfprintf_r+0x115e>
2000bbe0:	230c      	movs	r3, #12
2000bbe2:	f8ca 3000 	str.w	r3, [sl]
2000bbe6:	e7da      	b.n	2000bb9e <_svfprintf_r+0x20d6>
2000bbe8:	18ba      	adds	r2, r7, r2
2000bbea:	920a      	str	r2, [sp, #40]	@ 0x28
2000bbec:	e748      	b.n	2000ba80 <_svfprintf_r+0x1fb8>
2000bbee:	9b13      	ldr	r3, [sp, #76]	@ 0x4c
2000bbf0:	9318      	str	r3, [sp, #96]	@ 0x60
2000bbf2:	9314      	str	r3, [sp, #80]	@ 0x50
2000bbf4:	f7fe b894 	b.w	20009d20 <_svfprintf_r+0x258>
2000bbf8:	1bdb      	subs	r3, r3, r7
2000bbfa:	9315      	str	r3, [sp, #84]	@ 0x54
2000bbfc:	9b29      	ldr	r3, [sp, #164]	@ 0xa4
2000bbfe:	9313      	str	r3, [sp, #76]	@ 0x4c
2000bc00:	f7ff bb5d 	b.w	2000b2be <_svfprintf_r+0x17f6>
2000bc04:	2300      	movs	r3, #0
2000bc06:	9318      	str	r3, [sp, #96]	@ 0x60
2000bc08:	9314      	str	r3, [sp, #80]	@ 0x50
2000bc0a:	e6d7      	b.n	2000b9bc <_svfprintf_r+0x1ef4>
2000bc0c:	9b0e      	ldr	r3, [sp, #56]	@ 0x38
2000bc0e:	f8dd a020 	ldr.w	sl, [sp, #32]
2000bc12:	f9b3 300c 	ldrsh.w	r3, [r3, #12]
2000bc16:	f043 0340 	orr.w	r3, r3, #64	@ 0x40
2000bc1a:	e634      	b.n	2000b886 <_svfprintf_r+0x1dbe>
2000bc1c:	9b1f      	ldr	r3, [sp, #124]	@ 0x7c
2000bc1e:	f8cd a01c 	str.w	sl, [sp, #28]
2000bc22:	930f      	str	r3, [sp, #60]	@ 0x3c
2000bc24:	930a      	str	r3, [sp, #40]	@ 0x28
2000bc26:	f7fe b87b 	b.w	20009d20 <_svfprintf_r+0x258>
2000bc2a:	2203      	movs	r2, #3
2000bc2c:	2300      	movs	r3, #0
2000bc2e:	9210      	str	r2, [sp, #64]	@ 0x40
2000bc30:	2204      	movs	r2, #4
2000bc32:	930a      	str	r3, [sp, #40]	@ 0x28
2000bc34:	9209      	str	r2, [sp, #36]	@ 0x24
2000bc36:	9318      	str	r3, [sp, #96]	@ 0x60
2000bc38:	9314      	str	r3, [sp, #80]	@ 0x50
2000bc3a:	930f      	str	r3, [sp, #60]	@ 0x3c
2000bc3c:	f7fe b870 	b.w	20009d20 <_svfprintf_r+0x258>
2000bc40:	9807      	ldr	r0, [sp, #28]
2000bc42:	f7fe bb35 	b.w	2000a2b0 <_svfprintf_r+0x7e8>
2000bc46:	9b0e      	ldr	r3, [sp, #56]	@ 0x38
2000bc48:	f8dd a020 	ldr.w	sl, [sp, #32]
2000bc4c:	f9b3 300c 	ldrsh.w	r3, [r3, #12]
2000bc50:	900f      	str	r0, [sp, #60]	@ 0x3c
2000bc52:	f043 0340 	orr.w	r3, r3, #64	@ 0x40
2000bc56:	e616      	b.n	2000b886 <_svfprintf_r+0x1dbe>
2000bc58:	f8dd a020 	ldr.w	sl, [sp, #32]
2000bc5c:	e60c      	b.n	2000b878 <_svfprintf_r+0x1db0>
2000bc5e:	4619      	mov	r1, r3
2000bc60:	f7fe bbdb 	b.w	2000a41a <_svfprintf_r+0x952>
2000bc64:	2000eba0 	.word	0x2000eba0
2000bc68:	2000eb9c 	.word	0x2000eb9c
2000bc6c:	2000f788 	.word	0x2000f788

2000bc70 <__ssprint_r>:
2000bc70:	e92d 43f8 	stmdb	sp!, {r3, r4, r5, r6, r7, r8, r9, lr}
2000bc74:	4615      	mov	r5, r2
2000bc76:	6892      	ldr	r2, [r2, #8]
2000bc78:	682c      	ldr	r4, [r5, #0]
2000bc7a:	b1fa      	cbz	r2, 2000bcbc <__ssprint_r+0x4c>
2000bc7c:	4680      	mov	r8, r0
2000bc7e:	4689      	mov	r9, r1
2000bc80:	3408      	adds	r4, #8
2000bc82:	e001      	b.n	2000bc88 <__ssprint_r+0x18>
2000bc84:	3408      	adds	r4, #8
2000bc86:	b1cf      	cbz	r7, 2000bcbc <__ssprint_r+0x4c>
2000bc88:	686b      	ldr	r3, [r5, #4]
2000bc8a:	4617      	mov	r7, r2
2000bc8c:	1e59      	subs	r1, r3, #1
2000bc8e:	2b00      	cmp	r3, #0
2000bc90:	6069      	str	r1, [r5, #4]
2000bc92:	dd13      	ble.n	2000bcbc <__ssprint_r+0x4c>
2000bc94:	f854 6c04 	ldr.w	r6, [r4, #-4]
2000bc98:	2e00      	cmp	r6, #0
2000bc9a:	d0f3      	beq.n	2000bc84 <__ssprint_r+0x14>
2000bc9c:	4633      	mov	r3, r6
2000bc9e:	f854 2c08 	ldr.w	r2, [r4, #-8]
2000bca2:	4649      	mov	r1, r9
2000bca4:	4640      	mov	r0, r8
2000bca6:	f001 fd8b 	bl	2000d7c0 <__ssputs_r>
2000bcaa:	1c43      	adds	r3, r0, #1
2000bcac:	d007      	beq.n	2000bcbe <__ssprint_r+0x4e>
2000bcae:	68aa      	ldr	r2, [r5, #8]
2000bcb0:	3408      	adds	r4, #8
2000bcb2:	1b92      	subs	r2, r2, r6
2000bcb4:	4617      	mov	r7, r2
2000bcb6:	60aa      	str	r2, [r5, #8]
2000bcb8:	2f00      	cmp	r7, #0
2000bcba:	d1e5      	bne.n	2000bc88 <__ssprint_r+0x18>
2000bcbc:	2000      	movs	r0, #0
2000bcbe:	2300      	movs	r3, #0
2000bcc0:	e9c5 3301 	strd	r3, r3, [r5, #4]
2000bcc4:	e8bd 83f8 	ldmia.w	sp!, {r3, r4, r5, r6, r7, r8, r9, pc}

2000bcc8 <strncpy>:
2000bcc8:	ea40 0301 	orr.w	r3, r0, r1
2000bccc:	079b      	lsls	r3, r3, #30
2000bcce:	b530      	push	{r4, r5, lr}
2000bcd0:	d101      	bne.n	2000bcd6 <strncpy+0xe>
2000bcd2:	2a03      	cmp	r2, #3
2000bcd4:	d817      	bhi.n	2000bd06 <strncpy+0x3e>
2000bcd6:	4684      	mov	ip, r0
2000bcd8:	f101 3eff 	add.w	lr, r1, #4294967295
2000bcdc:	e007      	b.n	2000bcee <strncpy+0x26>
2000bcde:	f81e 1f01 	ldrb.w	r1, [lr, #1]!
2000bce2:	1e54      	subs	r4, r2, #1
2000bce4:	f803 1b01 	strb.w	r1, [r3], #1
2000bce8:	b129      	cbz	r1, 2000bcf6 <strncpy+0x2e>
2000bcea:	4622      	mov	r2, r4
2000bcec:	469c      	mov	ip, r3
2000bcee:	4663      	mov	r3, ip
2000bcf0:	2a00      	cmp	r2, #0
2000bcf2:	d1f4      	bne.n	2000bcde <strncpy+0x16>
2000bcf4:	bd30      	pop	{r4, r5, pc}
2000bcf6:	2c00      	cmp	r4, #0
2000bcf8:	d0fc      	beq.n	2000bcf4 <strncpy+0x2c>
2000bcfa:	4494      	add	ip, r2
2000bcfc:	f803 1b01 	strb.w	r1, [r3], #1
2000bd00:	4563      	cmp	r3, ip
2000bd02:	d1fb      	bne.n	2000bcfc <strncpy+0x34>
2000bd04:	bd30      	pop	{r4, r5, pc}
2000bd06:	460c      	mov	r4, r1
2000bd08:	4684      	mov	ip, r0
2000bd0a:	6825      	ldr	r5, [r4, #0]
2000bd0c:	4621      	mov	r1, r4
2000bd0e:	3404      	adds	r4, #4
2000bd10:	f1a5 3301 	sub.w	r3, r5, #16843009	@ 0x1010101
2000bd14:	ea23 0305 	bic.w	r3, r3, r5
2000bd18:	f013 3f80 	tst.w	r3, #2155905152	@ 0x80808080
2000bd1c:	d1dc      	bne.n	2000bcd8 <strncpy+0x10>
2000bd1e:	3a04      	subs	r2, #4
2000bd20:	f84c 5b04 	str.w	r5, [ip], #4
2000bd24:	2a03      	cmp	r2, #3
2000bd26:	d8f0      	bhi.n	2000bd0a <strncpy+0x42>
2000bd28:	4621      	mov	r1, r4
2000bd2a:	e7d5      	b.n	2000bcd8 <strncpy+0x10>

2000bd2c <__locale_mb_cur_max>:
2000bd2c:	4b01      	ldr	r3, [pc, #4]	@ (2000bd34 <__locale_mb_cur_max+0x8>)
2000bd2e:	f893 0128 	ldrb.w	r0, [r3, #296]	@ 0x128
2000bd32:	4770      	bx	lr
2000bd34:	200103c8 	.word	0x200103c8

2000bd38 <_localeconv_r>:
2000bd38:	4800      	ldr	r0, [pc, #0]	@ (2000bd3c <_localeconv_r+0x4>)
2000bd3a:	4770      	bx	lr
2000bd3c:	200104b8 	.word	0x200104b8

2000bd40 <memchr>:
2000bd40:	b530      	push	{r4, r5, lr}
2000bd42:	4686      	mov	lr, r0
2000bd44:	0780      	lsls	r0, r0, #30
2000bd46:	b2cc      	uxtb	r4, r1
2000bd48:	d015      	beq.n	2000bd76 <memchr+0x36>
2000bd4a:	eb0e 0502 	add.w	r5, lr, r2
2000bd4e:	46f4      	mov	ip, lr
2000bd50:	e006      	b.n	2000bd60 <memchr+0x20>
2000bd52:	f813 1b01 	ldrb.w	r1, [r3], #1
2000bd56:	42a1      	cmp	r1, r4
2000bd58:	d007      	beq.n	2000bd6a <memchr+0x2a>
2000bd5a:	0799      	lsls	r1, r3, #30
2000bd5c:	d006      	beq.n	2000bd6c <memchr+0x2c>
2000bd5e:	469c      	mov	ip, r3
2000bd60:	4565      	cmp	r5, ip
2000bd62:	4663      	mov	r3, ip
2000bd64:	4660      	mov	r0, ip
2000bd66:	d1f4      	bne.n	2000bd52 <memchr+0x12>
2000bd68:	2000      	movs	r0, #0
2000bd6a:	bd30      	pop	{r4, r5, pc}
2000bd6c:	3a01      	subs	r2, #1
2000bd6e:	4472      	add	r2, lr
2000bd70:	469e      	mov	lr, r3
2000bd72:	eba2 020c 	sub.w	r2, r2, ip
2000bd76:	2a03      	cmp	r2, #3
2000bd78:	d80c      	bhi.n	2000bd94 <memchr+0x54>
2000bd7a:	2a00      	cmp	r2, #0
2000bd7c:	d0f4      	beq.n	2000bd68 <memchr+0x28>
2000bd7e:	4673      	mov	r3, lr
2000bd80:	4472      	add	r2, lr
2000bd82:	e001      	b.n	2000bd88 <memchr+0x48>
2000bd84:	429a      	cmp	r2, r3
2000bd86:	d0ef      	beq.n	2000bd68 <memchr+0x28>
2000bd88:	4618      	mov	r0, r3
2000bd8a:	f813 1b01 	ldrb.w	r1, [r3], #1
2000bd8e:	42a1      	cmp	r1, r4
2000bd90:	d1f8      	bne.n	2000bd84 <memchr+0x44>
2000bd92:	bd30      	pop	{r4, r5, pc}
2000bd94:	eb04 2504 	add.w	r5, r4, r4, lsl #8
2000bd98:	4671      	mov	r1, lr
2000bd9a:	eb05 4505 	add.w	r5, r5, r5, lsl #16
2000bd9e:	468e      	mov	lr, r1
2000bda0:	f851 3b04 	ldr.w	r3, [r1], #4
2000bda4:	406b      	eors	r3, r5
2000bda6:	f1a3 3001 	sub.w	r0, r3, #16843009	@ 0x1010101
2000bdaa:	ea20 0303 	bic.w	r3, r0, r3
2000bdae:	f013 3f80 	tst.w	r3, #2155905152	@ 0x80808080
2000bdb2:	d1e4      	bne.n	2000bd7e <memchr+0x3e>
2000bdb4:	3a04      	subs	r2, #4
2000bdb6:	2a03      	cmp	r2, #3
2000bdb8:	d8f1      	bhi.n	2000bd9e <memchr+0x5e>
2000bdba:	468e      	mov	lr, r1
2000bdbc:	e7dd      	b.n	2000bd7a <memchr+0x3a>
2000bdbe:	bf00      	nop

2000bdc0 <frexp>:
2000bdc0:	b5f8      	push	{r3, r4, r5, r6, r7, lr}
2000bdc2:	f8df c060 	ldr.w	ip, [pc, #96]	@ 2000be24 <frexp+0x64>
2000bdc6:	f021 4300 	bic.w	r3, r1, #2147483648	@ 0x80000000
2000bdca:	2700      	movs	r7, #0
2000bdcc:	4604      	mov	r4, r0
2000bdce:	4563      	cmp	r3, ip
2000bdd0:	460d      	mov	r5, r1
2000bdd2:	4616      	mov	r6, r2
2000bdd4:	6017      	str	r7, [r2, #0]
2000bdd6:	d820      	bhi.n	2000be1a <frexp+0x5a>
2000bdd8:	4684      	mov	ip, r0
2000bdda:	ea53 0c0c 	orrs.w	ip, r3, ip
2000bdde:	d01c      	beq.n	2000be1a <frexp+0x5a>
2000bde0:	f8df c044 	ldr.w	ip, [pc, #68]	@ 2000be28 <frexp+0x68>
2000bde4:	460a      	mov	r2, r1
2000bde6:	ea01 0c0c 	and.w	ip, r1, ip
2000bdea:	f1bc 0f00 	cmp.w	ip, #0
2000bdee:	d109      	bne.n	2000be04 <frexp+0x44>
2000bdf0:	2200      	movs	r2, #0
2000bdf2:	4b0b      	ldr	r3, [pc, #44]	@ (2000be20 <frexp+0x60>)
2000bdf4:	f7f8 f994 	bl	20004120 <__wrap___aeabi_dmul>
2000bdf8:	f06f 0735 	mvn.w	r7, #53	@ 0x35
2000bdfc:	4604      	mov	r4, r0
2000bdfe:	460a      	mov	r2, r1
2000be00:	f021 4300 	bic.w	r3, r1, #2147483648	@ 0x80000000
2000be04:	f36f 521e 	bfc	r2, #20, #11
2000be08:	151b      	asrs	r3, r3, #20
2000be0a:	f042 557f 	orr.w	r5, r2, #1069547520	@ 0x3fc00000
2000be0e:	f2a3 33fe 	subw	r3, r3, #1022	@ 0x3fe
2000be12:	f445 1500 	orr.w	r5, r5, #2097152	@ 0x200000
2000be16:	443b      	add	r3, r7
2000be18:	6033      	str	r3, [r6, #0]
2000be1a:	4620      	mov	r0, r4
2000be1c:	4629      	mov	r1, r5
2000be1e:	bdf8      	pop	{r3, r4, r5, r6, r7, pc}
2000be20:	43500000 	.word	0x43500000
2000be24:	7fefffff 	.word	0x7fefffff
2000be28:	7ff00000 	.word	0x7ff00000

2000be2c <quorem>:
2000be2c:	e92d 4ff0 	stmdb	sp!, {r4, r5, r6, r7, r8, r9, sl, fp, lr}
2000be30:	6903      	ldr	r3, [r0, #16]
2000be32:	b085      	sub	sp, #20
2000be34:	690c      	ldr	r4, [r1, #16]
2000be36:	42a3      	cmp	r3, r4
2000be38:	f2c0 8090 	blt.w	2000bf5c <quorem+0x130>
2000be3c:	3c01      	subs	r4, #1
2000be3e:	f101 0514 	add.w	r5, r1, #20
2000be42:	f100 0814 	add.w	r8, r0, #20
2000be46:	4681      	mov	r9, r0
2000be48:	f855 3024 	ldr.w	r3, [r5, r4, lsl #2]
2000be4c:	ea4f 0c84 	mov.w	ip, r4, lsl #2
2000be50:	f858 2024 	ldr.w	r2, [r8, r4, lsl #2]
2000be54:	eb05 0784 	add.w	r7, r5, r4, lsl #2
2000be58:	3301      	adds	r3, #1
2000be5a:	eb08 0b84 	add.w	fp, r8, r4, lsl #2
2000be5e:	429a      	cmp	r2, r3
2000be60:	fbb2 f6f3 	udiv	r6, r2, r3
2000be64:	d342      	bcc.n	2000beec <quorem+0xc0>
2000be66:	2000      	movs	r0, #0
2000be68:	46aa      	mov	sl, r5
2000be6a:	46c6      	mov	lr, r8
2000be6c:	f8cd 800c 	str.w	r8, [sp, #12]
2000be70:	4603      	mov	r3, r0
2000be72:	4688      	mov	r8, r1
2000be74:	e9cd c501 	strd	ip, r5, [sp, #4]
2000be78:	4605      	mov	r5, r0
2000be7a:	f85a 2b04 	ldr.w	r2, [sl], #4
2000be7e:	f8de 1000 	ldr.w	r1, [lr]
2000be82:	b290      	uxth	r0, r2
2000be84:	4557      	cmp	r7, sl
2000be86:	ea4f 4c12 	mov.w	ip, r2, lsr #16
2000be8a:	fb06 5000 	mla	r0, r6, r0, r5
2000be8e:	b28a      	uxth	r2, r1
2000be90:	ea4f 4510 	mov.w	r5, r0, lsr #16
2000be94:	b280      	uxth	r0, r0
2000be96:	fb06 550c 	mla	r5, r6, ip, r5
2000be9a:	eba2 0200 	sub.w	r2, r2, r0
2000be9e:	441a      	add	r2, r3
2000bea0:	b2ab      	uxth	r3, r5
2000bea2:	ea4f 4515 	mov.w	r5, r5, lsr #16
2000bea6:	ebc3 4322 	rsb	r3, r3, r2, asr #16
2000beaa:	b292      	uxth	r2, r2
2000beac:	eb03 4311 	add.w	r3, r3, r1, lsr #16
2000beb0:	ea42 4203 	orr.w	r2, r2, r3, lsl #16
2000beb4:	ea4f 4323 	mov.w	r3, r3, asr #16
2000beb8:	f84e 2b04 	str.w	r2, [lr], #4
2000bebc:	d2dd      	bcs.n	2000be7a <quorem+0x4e>
2000bebe:	4641      	mov	r1, r8
2000bec0:	f8dd 800c 	ldr.w	r8, [sp, #12]
2000bec4:	e9dd c501 	ldrd	ip, r5, [sp, #4]
2000bec8:	f858 300c 	ldr.w	r3, [r8, ip]
2000becc:	b973      	cbnz	r3, 2000beec <quorem+0xc0>
2000bece:	f1ab 0b04 	sub.w	fp, fp, #4
2000bed2:	45d8      	cmp	r8, fp
2000bed4:	d304      	bcc.n	2000bee0 <quorem+0xb4>
2000bed6:	e007      	b.n	2000bee8 <quorem+0xbc>
2000bed8:	45d8      	cmp	r8, fp
2000beda:	f104 34ff 	add.w	r4, r4, #4294967295
2000bede:	d203      	bcs.n	2000bee8 <quorem+0xbc>
2000bee0:	f85b 3904 	ldr.w	r3, [fp], #-4
2000bee4:	2b00      	cmp	r3, #0
2000bee6:	d0f7      	beq.n	2000bed8 <quorem+0xac>
2000bee8:	f8c9 4010 	str.w	r4, [r9, #16]
2000beec:	4648      	mov	r0, r9
2000beee:	f001 faef 	bl	2000d4d0 <__mcmp>
2000bef2:	2800      	cmp	r0, #0
2000bef4:	db2e      	blt.n	2000bf54 <quorem+0x128>
2000bef6:	2200      	movs	r2, #0
2000bef8:	4641      	mov	r1, r8
2000befa:	4694      	mov	ip, r2
2000befc:	f855 0b04 	ldr.w	r0, [r5], #4
2000bf00:	680b      	ldr	r3, [r1, #0]
2000bf02:	fa1f fe80 	uxth.w	lr, r0
2000bf06:	42af      	cmp	r7, r5
2000bf08:	b29a      	uxth	r2, r3
2000bf0a:	ea4f 4010 	mov.w	r0, r0, lsr #16
2000bf0e:	eba2 020e 	sub.w	r2, r2, lr
2000bf12:	4462      	add	r2, ip
2000bf14:	ebc0 4022 	rsb	r0, r0, r2, asr #16
2000bf18:	b292      	uxth	r2, r2
2000bf1a:	eb00 4013 	add.w	r0, r0, r3, lsr #16
2000bf1e:	ea42 4200 	orr.w	r2, r2, r0, lsl #16
2000bf22:	ea4f 4c20 	mov.w	ip, r0, asr #16
2000bf26:	f841 2b04 	str.w	r2, [r1], #4
2000bf2a:	d2e7      	bcs.n	2000befc <quorem+0xd0>
2000bf2c:	f858 2024 	ldr.w	r2, [r8, r4, lsl #2]
2000bf30:	eb08 0384 	add.w	r3, r8, r4, lsl #2
2000bf34:	b96a      	cbnz	r2, 2000bf52 <quorem+0x126>
2000bf36:	3b04      	subs	r3, #4
2000bf38:	4543      	cmp	r3, r8
2000bf3a:	d804      	bhi.n	2000bf46 <quorem+0x11a>
2000bf3c:	e007      	b.n	2000bf4e <quorem+0x122>
2000bf3e:	4598      	cmp	r8, r3
2000bf40:	f104 34ff 	add.w	r4, r4, #4294967295
2000bf44:	d203      	bcs.n	2000bf4e <quorem+0x122>
2000bf46:	f853 2904 	ldr.w	r2, [r3], #-4
2000bf4a:	2a00      	cmp	r2, #0
2000bf4c:	d0f7      	beq.n	2000bf3e <quorem+0x112>
2000bf4e:	f8c9 4010 	str.w	r4, [r9, #16]
2000bf52:	3601      	adds	r6, #1
2000bf54:	4630      	mov	r0, r6
2000bf56:	b005      	add	sp, #20
2000bf58:	e8bd 8ff0 	ldmia.w	sp!, {r4, r5, r6, r7, r8, r9, sl, fp, pc}
2000bf5c:	2000      	movs	r0, #0
2000bf5e:	b005      	add	sp, #20
2000bf60:	e8bd 8ff0 	ldmia.w	sp!, {r4, r5, r6, r7, r8, r9, sl, fp, pc}
2000bf64:	0000      	movs	r0, r0
	...

2000bf68 <_dtoa_r>:
2000bf68:	e92d 4ff0 	stmdb	sp!, {r4, r5, r6, r7, r8, r9, sl, fp, lr}
2000bf6c:	6b81      	ldr	r1, [r0, #56]	@ 0x38
2000bf6e:	b09d      	sub	sp, #116	@ 0x74
2000bf70:	4616      	mov	r6, r2
2000bf72:	461f      	mov	r7, r3
2000bf74:	4604      	mov	r4, r0
2000bf76:	9d29      	ldr	r5, [sp, #164]	@ 0xa4
2000bf78:	e9cd 6704 	strd	r6, r7, [sp, #16]
2000bf7c:	b141      	cbz	r1, 2000bf90 <_dtoa_r+0x28>
2000bf7e:	6bc2      	ldr	r2, [r0, #60]	@ 0x3c
2000bf80:	2301      	movs	r3, #1
2000bf82:	4093      	lsls	r3, r2
2000bf84:	604a      	str	r2, [r1, #4]
2000bf86:	608b      	str	r3, [r1, #8]
2000bf88:	f001 f828 	bl	2000cfdc <_Bfree>
2000bf8c:	2300      	movs	r3, #0
2000bf8e:	63a3      	str	r3, [r4, #56]	@ 0x38
2000bf90:	f1b7 0900 	subs.w	r9, r7, #0
2000bf94:	f2c0 80aa 	blt.w	2000c0ec <_dtoa_r+0x184>
2000bf98:	2300      	movs	r3, #0
2000bf9a:	602b      	str	r3, [r5, #0]
2000bf9c:	4b74      	ldr	r3, [pc, #464]	@ (2000c170 <_dtoa_r+0x208>)
2000bf9e:	ea33 0309 	bics.w	r3, r3, r9
2000bfa2:	f000 80ae 	beq.w	2000c102 <_dtoa_r+0x19a>
2000bfa6:	2200      	movs	r2, #0
2000bfa8:	2300      	movs	r3, #0
2000bfaa:	ed9d 7b04 	vldr	d7, [sp, #16]
2000bfae:	ec51 0b17 	vmov	r0, r1, d7
2000bfb2:	ed8d 7b02 	vstr	d7, [sp, #8]
2000bfb6:	f7f8 f96f 	bl	20004298 <__wrap___aeabi_dcmpeq>
2000bfba:	4682      	mov	sl, r0
2000bfbc:	b168      	cbz	r0, 2000bfda <_dtoa_r+0x72>
2000bfbe:	2301      	movs	r3, #1
2000bfc0:	9a28      	ldr	r2, [sp, #160]	@ 0xa0
2000bfc2:	6013      	str	r3, [r2, #0]
2000bfc4:	9b2a      	ldr	r3, [sp, #168]	@ 0xa8
2000bfc6:	b113      	cbz	r3, 2000bfce <_dtoa_r+0x66>
2000bfc8:	4b6a      	ldr	r3, [pc, #424]	@ (2000c174 <_dtoa_r+0x20c>)
2000bfca:	9a2a      	ldr	r2, [sp, #168]	@ 0xa8
2000bfcc:	6013      	str	r3, [r2, #0]
2000bfce:	4b6a      	ldr	r3, [pc, #424]	@ (2000c178 <_dtoa_r+0x210>)
2000bfd0:	9306      	str	r3, [sp, #24]
2000bfd2:	9806      	ldr	r0, [sp, #24]
2000bfd4:	b01d      	add	sp, #116	@ 0x74
2000bfd6:	e8bd 8ff0 	ldmia.w	sp!, {r4, r5, r6, r7, r8, r9, sl, fp, pc}
2000bfda:	ab1a      	add	r3, sp, #104	@ 0x68
2000bfdc:	4620      	mov	r0, r4
2000bfde:	9301      	str	r3, [sp, #4]
2000bfe0:	ab1b      	add	r3, sp, #108	@ 0x6c
2000bfe2:	9300      	str	r3, [sp, #0]
2000bfe4:	e9dd 2302 	ldrd	r2, r3, [sp, #8]
2000bfe8:	f001 fb4c 	bl	2000d684 <__d2b>
2000bfec:	f8dd 8068 	ldr.w	r8, [sp, #104]	@ 0x68
2000bff0:	ea5f 5519 	movs.w	r5, r9, lsr #20
2000bff4:	9009      	str	r0, [sp, #36]	@ 0x24
2000bff6:	f040 809a 	bne.w	2000c12e <_dtoa_r+0x1c6>
2000bffa:	9d1b      	ldr	r5, [sp, #108]	@ 0x6c
2000bffc:	4445      	add	r5, r8
2000bffe:	f205 4332 	addw	r3, r5, #1074	@ 0x432
2000c002:	2b20      	cmp	r3, #32
2000c004:	f340 81cd 	ble.w	2000c3a2 <_dtoa_r+0x43a>
2000c008:	f1c3 0340 	rsb	r3, r3, #64	@ 0x40
2000c00c:	fa09 f903 	lsl.w	r9, r9, r3
2000c010:	f205 4312 	addw	r3, r5, #1042	@ 0x412
2000c014:	fa26 f303 	lsr.w	r3, r6, r3
2000c018:	ea49 0003 	orr.w	r0, r9, r3
2000c01c:	f7f8 f906 	bl	2000422c <__wrap___aeabi_ui2d>
2000c020:	3d01      	subs	r5, #1
2000c022:	2201      	movs	r2, #1
2000c024:	f1a1 73f8 	sub.w	r3, r1, #32505856	@ 0x1f00000
2000c028:	9212      	str	r2, [sp, #72]	@ 0x48
2000c02a:	4619      	mov	r1, r3
2000c02c:	2200      	movs	r2, #0
2000c02e:	4b53      	ldr	r3, [pc, #332]	@ (2000c17c <_dtoa_r+0x214>)
2000c030:	f7f8 f862 	bl	200040f8 <__wrap___aeabi_dsub>
2000c034:	a348      	add	r3, pc, #288	@ (adr r3, 2000c158 <_dtoa_r+0x1f0>)
2000c036:	e9d3 2300 	ldrd	r2, r3, [r3]
2000c03a:	f7f8 f871 	bl	20004120 <__wrap___aeabi_dmul>
2000c03e:	a348      	add	r3, pc, #288	@ (adr r3, 2000c160 <_dtoa_r+0x1f8>)
2000c040:	e9d3 2300 	ldrd	r2, r3, [r3]
2000c044:	f7f8 f844 	bl	200040d0 <__wrap___aeabi_dadd>
2000c048:	4606      	mov	r6, r0
2000c04a:	460f      	mov	r7, r1
2000c04c:	4628      	mov	r0, r5
2000c04e:	f7f8 f8db 	bl	20004208 <__wrap___aeabi_i2d>
2000c052:	a345      	add	r3, pc, #276	@ (adr r3, 2000c168 <_dtoa_r+0x200>)
2000c054:	e9d3 2300 	ldrd	r2, r3, [r3]
2000c058:	f7f8 f862 	bl	20004120 <__wrap___aeabi_dmul>
2000c05c:	4602      	mov	r2, r0
2000c05e:	460b      	mov	r3, r1
2000c060:	4630      	mov	r0, r6
2000c062:	4639      	mov	r1, r7
2000c064:	f7f8 f834 	bl	200040d0 <__wrap___aeabi_dadd>
2000c068:	4606      	mov	r6, r0
2000c06a:	460f      	mov	r7, r1
2000c06c:	f7f8 f8f0 	bl	20004250 <__wrap___aeabi_d2iz>
2000c070:	2200      	movs	r2, #0
2000c072:	4681      	mov	r9, r0
2000c074:	9007      	str	r0, [sp, #28]
2000c076:	2300      	movs	r3, #0
2000c078:	4630      	mov	r0, r6
2000c07a:	4639      	mov	r1, r7
2000c07c:	f7f8 f91e 	bl	200042bc <__wrap___aeabi_dcmplt>
2000c080:	2800      	cmp	r0, #0
2000c082:	f040 8175 	bne.w	2000c370 <_dtoa_r+0x408>
2000c086:	eba8 0805 	sub.w	r8, r8, r5
2000c08a:	9d07      	ldr	r5, [sp, #28]
2000c08c:	f108 36ff 	add.w	r6, r8, #4294967295
2000c090:	2d16      	cmp	r5, #22
2000c092:	9608      	str	r6, [sp, #32]
2000c094:	f200 8159 	bhi.w	2000c34a <_dtoa_r+0x3e2>
2000c098:	4b39      	ldr	r3, [pc, #228]	@ (2000c180 <_dtoa_r+0x218>)
2000c09a:	eb03 03c5 	add.w	r3, r3, r5, lsl #3
2000c09e:	e9dd 0102 	ldrd	r0, r1, [sp, #8]
2000c0a2:	e9d3 2300 	ldrd	r2, r3, [r3]
2000c0a6:	f7f8 f909 	bl	200042bc <__wrap___aeabi_dcmplt>
2000c0aa:	2800      	cmp	r0, #0
2000c0ac:	f040 8180 	bne.w	2000c3b0 <_dtoa_r+0x448>
2000c0b0:	f1b8 0f00 	cmp.w	r8, #0
2000c0b4:	f340 860f 	ble.w	2000ccd6 <_dtoa_r+0xd6e>
2000c0b8:	442e      	add	r6, r5
2000c0ba:	9010      	str	r0, [sp, #64]	@ 0x40
2000c0bc:	950f      	str	r5, [sp, #60]	@ 0x3c
2000c0be:	9608      	str	r6, [sp, #32]
2000c0c0:	900a      	str	r0, [sp, #40]	@ 0x28
2000c0c2:	2300      	movs	r3, #0
2000c0c4:	930e      	str	r3, [sp, #56]	@ 0x38
2000c0c6:	9b26      	ldr	r3, [sp, #152]	@ 0x98
2000c0c8:	2b09      	cmp	r3, #9
2000c0ca:	d861      	bhi.n	2000c190 <_dtoa_r+0x228>
2000c0cc:	2b05      	cmp	r3, #5
2000c0ce:	f340 816d 	ble.w	2000c3ac <_dtoa_r+0x444>
2000c0d2:	3b04      	subs	r3, #4
2000c0d4:	2500      	movs	r5, #0
2000c0d6:	9326      	str	r3, [sp, #152]	@ 0x98
2000c0d8:	9b26      	ldr	r3, [sp, #152]	@ 0x98
2000c0da:	3b02      	subs	r3, #2
2000c0dc:	2b03      	cmp	r3, #3
2000c0de:	d859      	bhi.n	2000c194 <_dtoa_r+0x22c>
2000c0e0:	e8df f013 	tbh	[pc, r3, lsl #1]
2000c0e4:	02860289 	.word	0x02860289
2000c0e8:	0170027b 	.word	0x0170027b
2000c0ec:	2301      	movs	r3, #1
2000c0ee:	f029 4900 	bic.w	r9, r9, #2147483648	@ 0x80000000
2000c0f2:	602b      	str	r3, [r5, #0]
2000c0f4:	4b1e      	ldr	r3, [pc, #120]	@ (2000c170 <_dtoa_r+0x208>)
2000c0f6:	f8cd 9014 	str.w	r9, [sp, #20]
2000c0fa:	ea33 0309 	bics.w	r3, r3, r9
2000c0fe:	f47f af52 	bne.w	2000bfa6 <_dtoa_r+0x3e>
2000c102:	f3c9 0913 	ubfx	r9, r9, #0, #20
2000c106:	f242 730f 	movw	r3, #9999	@ 0x270f
2000c10a:	9a28      	ldr	r2, [sp, #160]	@ 0xa0
2000c10c:	ea59 0906 	orrs.w	r9, r9, r6
2000c110:	6013      	str	r3, [r2, #0]
2000c112:	d117      	bne.n	2000c144 <_dtoa_r+0x1dc>
2000c114:	9b2a      	ldr	r3, [sp, #168]	@ 0xa8
2000c116:	2b00      	cmp	r3, #0
2000c118:	f000 8714 	beq.w	2000cf44 <_dtoa_r+0xfdc>
2000c11c:	4b19      	ldr	r3, [pc, #100]	@ (2000c184 <_dtoa_r+0x21c>)
2000c11e:	9306      	str	r3, [sp, #24]
2000c120:	3308      	adds	r3, #8
2000c122:	9a2a      	ldr	r2, [sp, #168]	@ 0xa8
2000c124:	9806      	ldr	r0, [sp, #24]
2000c126:	6013      	str	r3, [r2, #0]
2000c128:	b01d      	add	sp, #116	@ 0x74
2000c12a:	e8bd 8ff0 	ldmia.w	sp!, {r4, r5, r6, r7, r8, r9, sl, fp, pc}
2000c12e:	e9dd 0102 	ldrd	r0, r1, [sp, #8]
2000c132:	4b15      	ldr	r3, [pc, #84]	@ (2000c188 <_dtoa_r+0x220>)
2000c134:	f2a5 35ff 	subw	r5, r5, #1023	@ 0x3ff
2000c138:	f3c1 0213 	ubfx	r2, r1, #0, #20
2000c13c:	f8cd a048 	str.w	sl, [sp, #72]	@ 0x48
2000c140:	4313      	orrs	r3, r2
2000c142:	e772      	b.n	2000c02a <_dtoa_r+0xc2>
2000c144:	9b2a      	ldr	r3, [sp, #168]	@ 0xa8
2000c146:	2b00      	cmp	r3, #0
2000c148:	f040 8138 	bne.w	2000c3bc <_dtoa_r+0x454>
2000c14c:	4b0f      	ldr	r3, [pc, #60]	@ (2000c18c <_dtoa_r+0x224>)
2000c14e:	9306      	str	r3, [sp, #24]
2000c150:	e73f      	b.n	2000bfd2 <_dtoa_r+0x6a>
2000c152:	bf00      	nop
2000c154:	f3af 8000 	nop.w
2000c158:	636f4361 	.word	0x636f4361
2000c15c:	3fd287a7 	.word	0x3fd287a7
2000c160:	8b60c8b3 	.word	0x8b60c8b3
2000c164:	3fc68a28 	.word	0x3fc68a28
2000c168:	509f79fb 	.word	0x509f79fb
2000c16c:	3fd34413 	.word	0x3fd34413
2000c170:	7ff00000 	.word	0x7ff00000
2000c174:	2000ebd5 	.word	0x2000ebd5
2000c178:	2000ebd4 	.word	0x2000ebd4
2000c17c:	3ff80000 	.word	0x3ff80000
2000c180:	2000f7e0 	.word	0x2000f7e0
2000c184:	2000ec1c 	.word	0x2000ec1c
2000c188:	3ff00000 	.word	0x3ff00000
2000c18c:	2000ec28 	.word	0x2000ec28
2000c190:	2300      	movs	r3, #0
2000c192:	9326      	str	r3, [sp, #152]	@ 0x98
2000c194:	2100      	movs	r1, #0
2000c196:	4620      	mov	r0, r4
2000c198:	63e1      	str	r1, [r4, #60]	@ 0x3c
2000c19a:	f000 fef9 	bl	2000cf90 <_Balloc>
2000c19e:	9006      	str	r0, [sp, #24]
2000c1a0:	2800      	cmp	r0, #0
2000c1a2:	f000 8666 	beq.w	2000ce72 <_dtoa_r+0xf0a>
2000c1a6:	9b06      	ldr	r3, [sp, #24]
2000c1a8:	63a3      	str	r3, [r4, #56]	@ 0x38
2000c1aa:	9b1b      	ldr	r3, [sp, #108]	@ 0x6c
2000c1ac:	2b00      	cmp	r3, #0
2000c1ae:	db03      	blt.n	2000c1b8 <_dtoa_r+0x250>
2000c1b0:	9a07      	ldr	r2, [sp, #28]
2000c1b2:	2a0e      	cmp	r2, #14
2000c1b4:	f340 85e4 	ble.w	2000cd80 <_dtoa_r+0xe18>
2000c1b8:	2200      	movs	r2, #0
2000c1ba:	9227      	str	r2, [sp, #156]	@ 0x9c
2000c1bc:	f04f 32ff 	mov.w	r2, #4294967295
2000c1c0:	920b      	str	r2, [sp, #44]	@ 0x2c
2000c1c2:	9211      	str	r2, [sp, #68]	@ 0x44
2000c1c4:	9a12      	ldr	r2, [sp, #72]	@ 0x48
2000c1c6:	2a00      	cmp	r2, #0
2000c1c8:	f040 8218 	bne.w	2000c5fc <_dtoa_r+0x694>
2000c1cc:	9b1a      	ldr	r3, [sp, #104]	@ 0x68
2000c1ce:	f1c3 0336 	rsb	r3, r3, #54	@ 0x36
2000c1d2:	9a08      	ldr	r2, [sp, #32]
2000c1d4:	9d0e      	ldr	r5, [sp, #56]	@ 0x38
2000c1d6:	441a      	add	r2, r3
2000c1d8:	9208      	str	r2, [sp, #32]
2000c1da:	9a0a      	ldr	r2, [sp, #40]	@ 0x28
2000c1dc:	4690      	mov	r8, r2
2000c1de:	441a      	add	r2, r3
2000c1e0:	920a      	str	r2, [sp, #40]	@ 0x28
2000c1e2:	2101      	movs	r1, #1
2000c1e4:	4620      	mov	r0, r4
2000c1e6:	f000 ffbf 	bl	2000d168 <__i2b>
2000c1ea:	4606      	mov	r6, r0
2000c1ec:	f1b8 0f00 	cmp.w	r8, #0
2000c1f0:	f000 857a 	beq.w	2000cce8 <_dtoa_r+0xd80>
2000c1f4:	9b08      	ldr	r3, [sp, #32]
2000c1f6:	2b00      	cmp	r3, #0
2000c1f8:	f340 8576 	ble.w	2000cce8 <_dtoa_r+0xd80>
2000c1fc:	9a08      	ldr	r2, [sp, #32]
2000c1fe:	990a      	ldr	r1, [sp, #40]	@ 0x28
2000c200:	4542      	cmp	r2, r8
2000c202:	4613      	mov	r3, r2
2000c204:	bfa8      	it	ge
2000c206:	4643      	movge	r3, r8
2000c208:	1ac9      	subs	r1, r1, r3
2000c20a:	eba8 0803 	sub.w	r8, r8, r3
2000c20e:	1ad3      	subs	r3, r2, r3
2000c210:	910a      	str	r1, [sp, #40]	@ 0x28
2000c212:	9308      	str	r3, [sp, #32]
2000c214:	9b0e      	ldr	r3, [sp, #56]	@ 0x38
2000c216:	b1c3      	cbz	r3, 2000c24a <_dtoa_r+0x2e2>
2000c218:	2d00      	cmp	r5, #0
2000c21a:	f000 85d6 	beq.w	2000cdca <_dtoa_r+0xe62>
2000c21e:	4631      	mov	r1, r6
2000c220:	462a      	mov	r2, r5
2000c222:	4620      	mov	r0, r4
2000c224:	f001 f882 	bl	2000d32c <__pow5mult>
2000c228:	9f09      	ldr	r7, [sp, #36]	@ 0x24
2000c22a:	4606      	mov	r6, r0
2000c22c:	4620      	mov	r0, r4
2000c22e:	463a      	mov	r2, r7
2000c230:	4631      	mov	r1, r6
2000c232:	f000 ffc7 	bl	2000d1c4 <__multiply>
2000c236:	4639      	mov	r1, r7
2000c238:	4607      	mov	r7, r0
2000c23a:	4620      	mov	r0, r4
2000c23c:	f000 fece 	bl	2000cfdc <_Bfree>
2000c240:	9b0e      	ldr	r3, [sp, #56]	@ 0x38
2000c242:	9709      	str	r7, [sp, #36]	@ 0x24
2000c244:	1b5d      	subs	r5, r3, r5
2000c246:	f040 8584 	bne.w	2000cd52 <_dtoa_r+0xdea>
2000c24a:	2301      	movs	r3, #1
2000c24c:	930e      	str	r3, [sp, #56]	@ 0x38
2000c24e:	2101      	movs	r1, #1
2000c250:	4620      	mov	r0, r4
2000c252:	f000 ff89 	bl	2000d168 <__i2b>
2000c256:	9b0f      	ldr	r3, [sp, #60]	@ 0x3c
2000c258:	4607      	mov	r7, r0
2000c25a:	2b00      	cmp	r3, #0
2000c25c:	f040 8306 	bne.w	2000c86c <_dtoa_r+0x904>
2000c260:	9b26      	ldr	r3, [sp, #152]	@ 0x98
2000c262:	2b01      	cmp	r3, #1
2000c264:	f340 835d 	ble.w	2000c922 <_dtoa_r+0x9ba>
2000c268:	2301      	movs	r3, #1
2000c26a:	9908      	ldr	r1, [sp, #32]
2000c26c:	440b      	add	r3, r1
2000c26e:	f013 031f 	ands.w	r3, r3, #31
2000c272:	f000 8254 	beq.w	2000c71e <_dtoa_r+0x7b6>
2000c276:	f1c3 0220 	rsb	r2, r3, #32
2000c27a:	2a04      	cmp	r2, #4
2000c27c:	f340 84f2 	ble.w	2000cc64 <_dtoa_r+0xcfc>
2000c280:	f1c3 031c 	rsb	r3, r3, #28
2000c284:	9a0a      	ldr	r2, [sp, #40]	@ 0x28
2000c286:	4419      	add	r1, r3
2000c288:	441a      	add	r2, r3
2000c28a:	4498      	add	r8, r3
2000c28c:	920a      	str	r2, [sp, #40]	@ 0x28
2000c28e:	9108      	str	r1, [sp, #32]
2000c290:	9b0a      	ldr	r3, [sp, #40]	@ 0x28
2000c292:	2b00      	cmp	r3, #0
2000c294:	dd05      	ble.n	2000c2a2 <_dtoa_r+0x33a>
2000c296:	461a      	mov	r2, r3
2000c298:	9909      	ldr	r1, [sp, #36]	@ 0x24
2000c29a:	4620      	mov	r0, r4
2000c29c:	f001 f8a6 	bl	2000d3ec <__lshift>
2000c2a0:	9009      	str	r0, [sp, #36]	@ 0x24
2000c2a2:	9b08      	ldr	r3, [sp, #32]
2000c2a4:	2b00      	cmp	r3, #0
2000c2a6:	dd05      	ble.n	2000c2b4 <_dtoa_r+0x34c>
2000c2a8:	4639      	mov	r1, r7
2000c2aa:	461a      	mov	r2, r3
2000c2ac:	4620      	mov	r0, r4
2000c2ae:	f001 f89d 	bl	2000d3ec <__lshift>
2000c2b2:	4607      	mov	r7, r0
2000c2b4:	9b26      	ldr	r3, [sp, #152]	@ 0x98
2000c2b6:	2b02      	cmp	r3, #2
2000c2b8:	9b10      	ldr	r3, [sp, #64]	@ 0x40
2000c2ba:	bfd4      	ite	le
2000c2bc:	f04f 0a00 	movle.w	sl, #0
2000c2c0:	f04f 0a01 	movgt.w	sl, #1
2000c2c4:	2b00      	cmp	r3, #0
2000c2c6:	f040 82e6 	bne.w	2000c896 <_dtoa_r+0x92e>
2000c2ca:	9b0b      	ldr	r3, [sp, #44]	@ 0x2c
2000c2cc:	2b00      	cmp	r3, #0
2000c2ce:	f300 822f 	bgt.w	2000c730 <_dtoa_r+0x7c8>
2000c2d2:	f1ba 0f00 	cmp.w	sl, #0
2000c2d6:	f000 822b 	beq.w	2000c730 <_dtoa_r+0x7c8>
2000c2da:	9b0b      	ldr	r3, [sp, #44]	@ 0x2c
2000c2dc:	2b00      	cmp	r3, #0
2000c2de:	f040 82ae 	bne.w	2000c83e <_dtoa_r+0x8d6>
2000c2e2:	4639      	mov	r1, r7
2000c2e4:	2205      	movs	r2, #5
2000c2e6:	4620      	mov	r0, r4
2000c2e8:	f000 fe82 	bl	2000cff0 <__multadd>
2000c2ec:	4607      	mov	r7, r0
2000c2ee:	9809      	ldr	r0, [sp, #36]	@ 0x24
2000c2f0:	4639      	mov	r1, r7
2000c2f2:	f001 f8ed 	bl	2000d4d0 <__mcmp>
2000c2f6:	2800      	cmp	r0, #0
2000c2f8:	f340 82a1 	ble.w	2000c83e <_dtoa_r+0x8d6>
2000c2fc:	9b07      	ldr	r3, [sp, #28]
2000c2fe:	f8dd b018 	ldr.w	fp, [sp, #24]
2000c302:	f103 0a01 	add.w	sl, r3, #1
2000c306:	2331      	movs	r3, #49	@ 0x31
2000c308:	f80b 3b01 	strb.w	r3, [fp], #1
2000c30c:	4639      	mov	r1, r7
2000c30e:	4620      	mov	r0, r4
2000c310:	f10a 0a01 	add.w	sl, sl, #1
2000c314:	f000 fe62 	bl	2000cfdc <_Bfree>
2000c318:	b11e      	cbz	r6, 2000c322 <_dtoa_r+0x3ba>
2000c31a:	4631      	mov	r1, r6
2000c31c:	4620      	mov	r0, r4
2000c31e:	f000 fe5d 	bl	2000cfdc <_Bfree>
2000c322:	9909      	ldr	r1, [sp, #36]	@ 0x24
2000c324:	4620      	mov	r0, r4
2000c326:	f000 fe59 	bl	2000cfdc <_Bfree>
2000c32a:	2300      	movs	r3, #0
2000c32c:	f88b 3000 	strb.w	r3, [fp]
2000c330:	9b28      	ldr	r3, [sp, #160]	@ 0xa0
2000c332:	f8c3 a000 	str.w	sl, [r3]
2000c336:	9b2a      	ldr	r3, [sp, #168]	@ 0xa8
2000c338:	2b00      	cmp	r3, #0
2000c33a:	f43f ae4a 	beq.w	2000bfd2 <_dtoa_r+0x6a>
2000c33e:	9806      	ldr	r0, [sp, #24]
2000c340:	f8c3 b000 	str.w	fp, [r3]
2000c344:	b01d      	add	sp, #116	@ 0x74
2000c346:	e8bd 8ff0 	ldmia.w	sp!, {r4, r5, r6, r7, r8, r9, sl, fp, pc}
2000c34a:	2301      	movs	r3, #1
2000c34c:	9310      	str	r3, [sp, #64]	@ 0x40
2000c34e:	9b08      	ldr	r3, [sp, #32]
2000c350:	2b00      	cmp	r3, #0
2000c352:	db20      	blt.n	2000c396 <_dtoa_r+0x42e>
2000c354:	2300      	movs	r3, #0
2000c356:	930a      	str	r3, [sp, #40]	@ 0x28
2000c358:	9b07      	ldr	r3, [sp, #28]
2000c35a:	2b00      	cmp	r3, #0
2000c35c:	da16      	bge.n	2000c38c <_dtoa_r+0x424>
2000c35e:	9a0a      	ldr	r2, [sp, #40]	@ 0x28
2000c360:	9b07      	ldr	r3, [sp, #28]
2000c362:	1ad2      	subs	r2, r2, r3
2000c364:	425b      	negs	r3, r3
2000c366:	930e      	str	r3, [sp, #56]	@ 0x38
2000c368:	2300      	movs	r3, #0
2000c36a:	920a      	str	r2, [sp, #40]	@ 0x28
2000c36c:	930f      	str	r3, [sp, #60]	@ 0x3c
2000c36e:	e6aa      	b.n	2000c0c6 <_dtoa_r+0x15e>
2000c370:	4648      	mov	r0, r9
2000c372:	f7f7 ff49 	bl	20004208 <__wrap___aeabi_i2d>
2000c376:	4632      	mov	r2, r6
2000c378:	463b      	mov	r3, r7
2000c37a:	f7f7 ff8d 	bl	20004298 <__wrap___aeabi_dcmpeq>
2000c37e:	2800      	cmp	r0, #0
2000c380:	f47f ae81 	bne.w	2000c086 <_dtoa_r+0x11e>
2000c384:	f109 33ff 	add.w	r3, r9, #4294967295
2000c388:	9307      	str	r3, [sp, #28]
2000c38a:	e67c      	b.n	2000c086 <_dtoa_r+0x11e>
2000c38c:	9a08      	ldr	r2, [sp, #32]
2000c38e:	930f      	str	r3, [sp, #60]	@ 0x3c
2000c390:	441a      	add	r2, r3
2000c392:	9208      	str	r2, [sp, #32]
2000c394:	e695      	b.n	2000c0c2 <_dtoa_r+0x15a>
2000c396:	f1c8 0301 	rsb	r3, r8, #1
2000c39a:	930a      	str	r3, [sp, #40]	@ 0x28
2000c39c:	2300      	movs	r3, #0
2000c39e:	9308      	str	r3, [sp, #32]
2000c3a0:	e7da      	b.n	2000c358 <_dtoa_r+0x3f0>
2000c3a2:	f1c3 0320 	rsb	r3, r3, #32
2000c3a6:	fa06 f003 	lsl.w	r0, r6, r3
2000c3aa:	e637      	b.n	2000c01c <_dtoa_r+0xb4>
2000c3ac:	2501      	movs	r5, #1
2000c3ae:	e693      	b.n	2000c0d8 <_dtoa_r+0x170>
2000c3b0:	9b07      	ldr	r3, [sp, #28]
2000c3b2:	3b01      	subs	r3, #1
2000c3b4:	9307      	str	r3, [sp, #28]
2000c3b6:	2300      	movs	r3, #0
2000c3b8:	9310      	str	r3, [sp, #64]	@ 0x40
2000c3ba:	e7c8      	b.n	2000c34e <_dtoa_r+0x3e6>
2000c3bc:	4bb7      	ldr	r3, [pc, #732]	@ (2000c69c <_dtoa_r+0x734>)
2000c3be:	9306      	str	r3, [sp, #24]
2000c3c0:	3303      	adds	r3, #3
2000c3c2:	e6ae      	b.n	2000c122 <_dtoa_r+0x1ba>
2000c3c4:	f04f 0a01 	mov.w	sl, #1
2000c3c8:	9b27      	ldr	r3, [sp, #156]	@ 0x9c
2000c3ca:	9a07      	ldr	r2, [sp, #28]
2000c3cc:	4413      	add	r3, r2
2000c3ce:	9311      	str	r3, [sp, #68]	@ 0x44
2000c3d0:	3301      	adds	r3, #1
2000c3d2:	2b01      	cmp	r3, #1
2000c3d4:	461e      	mov	r6, r3
2000c3d6:	930b      	str	r3, [sp, #44]	@ 0x2c
2000c3d8:	bfb8      	it	lt
2000c3da:	2601      	movlt	r6, #1
2000c3dc:	2e17      	cmp	r6, #23
2000c3de:	f340 85a6 	ble.w	2000cf2e <_dtoa_r+0xfc6>
2000c3e2:	2201      	movs	r2, #1
2000c3e4:	2304      	movs	r3, #4
2000c3e6:	005b      	lsls	r3, r3, #1
2000c3e8:	4611      	mov	r1, r2
2000c3ea:	3201      	adds	r2, #1
2000c3ec:	f103 0014 	add.w	r0, r3, #20
2000c3f0:	42b0      	cmp	r0, r6
2000c3f2:	d9f8      	bls.n	2000c3e6 <_dtoa_r+0x47e>
2000c3f4:	63e1      	str	r1, [r4, #60]	@ 0x3c
2000c3f6:	4620      	mov	r0, r4
2000c3f8:	f000 fdca 	bl	2000cf90 <_Balloc>
2000c3fc:	9006      	str	r0, [sp, #24]
2000c3fe:	2800      	cmp	r0, #0
2000c400:	f000 8537 	beq.w	2000ce72 <_dtoa_r+0xf0a>
2000c404:	9b06      	ldr	r3, [sp, #24]
2000c406:	63a3      	str	r3, [r4, #56]	@ 0x38
2000c408:	9b0b      	ldr	r3, [sp, #44]	@ 0x2c
2000c40a:	2b0e      	cmp	r3, #14
2000c40c:	f200 8124 	bhi.w	2000c658 <_dtoa_r+0x6f0>
2000c410:	2d00      	cmp	r5, #0
2000c412:	f000 8121 	beq.w	2000c658 <_dtoa_r+0x6f0>
2000c416:	9a07      	ldr	r2, [sp, #28]
2000c418:	2a00      	cmp	r2, #0
2000c41a:	f340 81e5 	ble.w	2000c7e8 <_dtoa_r+0x880>
2000c41e:	49a0      	ldr	r1, [pc, #640]	@ (2000c6a0 <_dtoa_r+0x738>)
2000c420:	f002 030f 	and.w	r3, r2, #15
2000c424:	1115      	asrs	r5, r2, #4
2000c426:	eb01 03c3 	add.w	r3, r1, r3, lsl #3
2000c42a:	e9d3 6700 	ldrd	r6, r7, [r3]
2000c42e:	05d3      	lsls	r3, r2, #23
2000c430:	f140 8254 	bpl.w	2000c8dc <_dtoa_r+0x974>
2000c434:	4b9b      	ldr	r3, [pc, #620]	@ (2000c6a4 <_dtoa_r+0x73c>)
2000c436:	f005 050f 	and.w	r5, r5, #15
2000c43a:	f04f 0903 	mov.w	r9, #3
2000c43e:	e9d3 2308 	ldrd	r2, r3, [r3, #32]
2000c442:	e9dd 0102 	ldrd	r0, r1, [sp, #8]
2000c446:	f7f7 fe91 	bl	2000416c <__wrap___aeabi_ddiv>
2000c44a:	e9cd 010c 	strd	r0, r1, [sp, #48]	@ 0x30
2000c44e:	b185      	cbz	r5, 2000c472 <_dtoa_r+0x50a>
2000c450:	f8df 8250 	ldr.w	r8, [pc, #592]	@ 2000c6a4 <_dtoa_r+0x73c>
2000c454:	07e8      	lsls	r0, r5, #31
2000c456:	f140 80d4 	bpl.w	2000c602 <_dtoa_r+0x69a>
2000c45a:	4630      	mov	r0, r6
2000c45c:	4639      	mov	r1, r7
2000c45e:	f109 0901 	add.w	r9, r9, #1
2000c462:	e8f8 2302 	ldrd	r2, r3, [r8], #8
2000c466:	f7f7 fe5b 	bl	20004120 <__wrap___aeabi_dmul>
2000c46a:	4606      	mov	r6, r0
2000c46c:	106d      	asrs	r5, r5, #1
2000c46e:	460f      	mov	r7, r1
2000c470:	d1f0      	bne.n	2000c454 <_dtoa_r+0x4ec>
2000c472:	4632      	mov	r2, r6
2000c474:	463b      	mov	r3, r7
2000c476:	e9dd 010c 	ldrd	r0, r1, [sp, #48]	@ 0x30
2000c47a:	f7f7 fe77 	bl	2000416c <__wrap___aeabi_ddiv>
2000c47e:	e9cd 010c 	strd	r0, r1, [sp, #48]	@ 0x30
2000c482:	9b10      	ldr	r3, [sp, #64]	@ 0x40
2000c484:	b153      	cbz	r3, 2000c49c <_dtoa_r+0x534>
2000c486:	2200      	movs	r2, #0
2000c488:	4b87      	ldr	r3, [pc, #540]	@ (2000c6a8 <_dtoa_r+0x740>)
2000c48a:	e9dd 670c 	ldrd	r6, r7, [sp, #48]	@ 0x30
2000c48e:	4630      	mov	r0, r6
2000c490:	4639      	mov	r1, r7
2000c492:	f7f7 ff13 	bl	200042bc <__wrap___aeabi_dcmplt>
2000c496:	2800      	cmp	r0, #0
2000c498:	f040 83ee 	bne.w	2000cc78 <_dtoa_r+0xd10>
2000c49c:	4648      	mov	r0, r9
2000c49e:	f7f7 feb3 	bl	20004208 <__wrap___aeabi_i2d>
2000c4a2:	e9dd 230c 	ldrd	r2, r3, [sp, #48]	@ 0x30
2000c4a6:	f7f7 fe3b 	bl	20004120 <__wrap___aeabi_dmul>
2000c4aa:	4b80      	ldr	r3, [pc, #512]	@ (2000c6ac <_dtoa_r+0x744>)
2000c4ac:	2200      	movs	r2, #0
2000c4ae:	f7f7 fe0f 	bl	200040d0 <__wrap___aeabi_dadd>
2000c4b2:	9b0b      	ldr	r3, [sp, #44]	@ 0x2c
2000c4b4:	4606      	mov	r6, r0
2000c4b6:	f1a1 7750 	sub.w	r7, r1, #54525952	@ 0x3400000
2000c4ba:	2b00      	cmp	r3, #0
2000c4bc:	f000 80b3 	beq.w	2000c626 <_dtoa_r+0x6be>
2000c4c0:	9b07      	ldr	r3, [sp, #28]
2000c4c2:	9318      	str	r3, [sp, #96]	@ 0x60
2000c4c4:	9b0b      	ldr	r3, [sp, #44]	@ 0x2c
2000c4c6:	9313      	str	r3, [sp, #76]	@ 0x4c
2000c4c8:	4b75      	ldr	r3, [pc, #468]	@ (2000c6a0 <_dtoa_r+0x738>)
2000c4ca:	9913      	ldr	r1, [sp, #76]	@ 0x4c
2000c4cc:	9319      	str	r3, [sp, #100]	@ 0x64
2000c4ce:	eb03 03c1 	add.w	r3, r3, r1, lsl #3
2000c4d2:	e9dd 890c 	ldrd	r8, r9, [sp, #48]	@ 0x30
2000c4d6:	ed13 7b02 	vldr	d7, [r3, #-8]
2000c4da:	4649      	mov	r1, r9
2000c4dc:	4640      	mov	r0, r8
2000c4de:	e9cd 6714 	strd	r6, r7, [sp, #80]	@ 0x50
2000c4e2:	ed8d 7b16 	vstr	d7, [sp, #88]	@ 0x58
2000c4e6:	f7f7 feb3 	bl	20004250 <__wrap___aeabi_d2iz>
2000c4ea:	4607      	mov	r7, r0
2000c4ec:	9e06      	ldr	r6, [sp, #24]
2000c4ee:	f7f7 fe8b 	bl	20004208 <__wrap___aeabi_i2d>
2000c4f2:	3730      	adds	r7, #48	@ 0x30
2000c4f4:	4602      	mov	r2, r0
2000c4f6:	460b      	mov	r3, r1
2000c4f8:	4640      	mov	r0, r8
2000c4fa:	4649      	mov	r1, r9
2000c4fc:	1c75      	adds	r5, r6, #1
2000c4fe:	f7f7 fdfb 	bl	200040f8 <__wrap___aeabi_dsub>
2000c502:	4680      	mov	r8, r0
2000c504:	4689      	mov	r9, r1
2000c506:	b2ff      	uxtb	r7, r7
2000c508:	e9dd 2316 	ldrd	r2, r3, [sp, #88]	@ 0x58
2000c50c:	f1ba 0f00 	cmp.w	sl, #0
2000c510:	f000 8228 	beq.w	2000c964 <_dtoa_r+0x9fc>
2000c514:	2000      	movs	r0, #0
2000c516:	4966      	ldr	r1, [pc, #408]	@ (2000c6b0 <_dtoa_r+0x748>)
2000c518:	f7f7 fe28 	bl	2000416c <__wrap___aeabi_ddiv>
2000c51c:	e9dd 2314 	ldrd	r2, r3, [sp, #80]	@ 0x50
2000c520:	f7f7 fdea 	bl	200040f8 <__wrap___aeabi_dsub>
2000c524:	7037      	strb	r7, [r6, #0]
2000c526:	4642      	mov	r2, r8
2000c528:	464b      	mov	r3, r9
2000c52a:	4606      	mov	r6, r0
2000c52c:	460f      	mov	r7, r1
2000c52e:	f7f7 feed 	bl	2000430c <__wrap___aeabi_dcmpgt>
2000c532:	2800      	cmp	r0, #0
2000c534:	f040 844c 	bne.w	2000cdd0 <_dtoa_r+0xe68>
2000c538:	f04f 0a00 	mov.w	sl, #0
2000c53c:	f8dd b04c 	ldr.w	fp, [sp, #76]	@ 0x4c
2000c540:	940c      	str	r4, [sp, #48]	@ 0x30
2000c542:	e02b      	b.n	2000c59c <_dtoa_r+0x634>
2000c544:	f10a 0a01 	add.w	sl, sl, #1
2000c548:	45da      	cmp	sl, fp
2000c54a:	f280 81ce 	bge.w	2000c8ea <_dtoa_r+0x982>
2000c54e:	4630      	mov	r0, r6
2000c550:	4639      	mov	r1, r7
2000c552:	2200      	movs	r2, #0
2000c554:	4b57      	ldr	r3, [pc, #348]	@ (2000c6b4 <_dtoa_r+0x74c>)
2000c556:	f7f7 fde3 	bl	20004120 <__wrap___aeabi_dmul>
2000c55a:	2200      	movs	r2, #0
2000c55c:	4b55      	ldr	r3, [pc, #340]	@ (2000c6b4 <_dtoa_r+0x74c>)
2000c55e:	4606      	mov	r6, r0
2000c560:	460f      	mov	r7, r1
2000c562:	4640      	mov	r0, r8
2000c564:	4649      	mov	r1, r9
2000c566:	f7f7 fddb 	bl	20004120 <__wrap___aeabi_dmul>
2000c56a:	4689      	mov	r9, r1
2000c56c:	4680      	mov	r8, r0
2000c56e:	f7f7 fe6f 	bl	20004250 <__wrap___aeabi_d2iz>
2000c572:	4604      	mov	r4, r0
2000c574:	f7f7 fe48 	bl	20004208 <__wrap___aeabi_i2d>
2000c578:	4602      	mov	r2, r0
2000c57a:	460b      	mov	r3, r1
2000c57c:	3430      	adds	r4, #48	@ 0x30
2000c57e:	4640      	mov	r0, r8
2000c580:	4649      	mov	r1, r9
2000c582:	f7f7 fdb9 	bl	200040f8 <__wrap___aeabi_dsub>
2000c586:	4632      	mov	r2, r6
2000c588:	463b      	mov	r3, r7
2000c58a:	f805 4b01 	strb.w	r4, [r5], #1
2000c58e:	4680      	mov	r8, r0
2000c590:	4689      	mov	r9, r1
2000c592:	f7f7 fe93 	bl	200042bc <__wrap___aeabi_dcmplt>
2000c596:	2800      	cmp	r0, #0
2000c598:	f040 8419 	bne.w	2000cdce <_dtoa_r+0xe66>
2000c59c:	4642      	mov	r2, r8
2000c59e:	464b      	mov	r3, r9
2000c5a0:	2000      	movs	r0, #0
2000c5a2:	4941      	ldr	r1, [pc, #260]	@ (2000c6a8 <_dtoa_r+0x740>)
2000c5a4:	f7f7 fda8 	bl	200040f8 <__wrap___aeabi_dsub>
2000c5a8:	4632      	mov	r2, r6
2000c5aa:	463b      	mov	r3, r7
2000c5ac:	f7f7 fe86 	bl	200042bc <__wrap___aeabi_dcmplt>
2000c5b0:	2800      	cmp	r0, #0
2000c5b2:	d0c7      	beq.n	2000c544 <_dtoa_r+0x5dc>
2000c5b4:	9a06      	ldr	r2, [sp, #24]
2000c5b6:	9c0c      	ldr	r4, [sp, #48]	@ 0x30
2000c5b8:	e002      	b.n	2000c5c0 <_dtoa_r+0x658>
2000c5ba:	4295      	cmp	r5, r2
2000c5bc:	f000 83ff 	beq.w	2000cdbe <_dtoa_r+0xe56>
2000c5c0:	46ab      	mov	fp, r5
2000c5c2:	f815 3d01 	ldrb.w	r3, [r5, #-1]!
2000c5c6:	2b39      	cmp	r3, #57	@ 0x39
2000c5c8:	d0f7      	beq.n	2000c5ba <_dtoa_r+0x652>
2000c5ca:	3301      	adds	r3, #1
2000c5cc:	9206      	str	r2, [sp, #24]
2000c5ce:	b2db      	uxtb	r3, r3
2000c5d0:	702b      	strb	r3, [r5, #0]
2000c5d2:	9b18      	ldr	r3, [sp, #96]	@ 0x60
2000c5d4:	f103 0a01 	add.w	sl, r3, #1
2000c5d8:	e6a3      	b.n	2000c322 <_dtoa_r+0x3ba>
2000c5da:	f04f 0a01 	mov.w	sl, #1
2000c5de:	9b27      	ldr	r3, [sp, #156]	@ 0x9c
2000c5e0:	2b00      	cmp	r3, #0
2000c5e2:	f340 813c 	ble.w	2000c85e <_dtoa_r+0x8f6>
2000c5e6:	9b27      	ldr	r3, [sp, #156]	@ 0x9c
2000c5e8:	461e      	mov	r6, r3
2000c5ea:	9311      	str	r3, [sp, #68]	@ 0x44
2000c5ec:	930b      	str	r3, [sp, #44]	@ 0x2c
2000c5ee:	e6f5      	b.n	2000c3dc <_dtoa_r+0x474>
2000c5f0:	f04f 0a00 	mov.w	sl, #0
2000c5f4:	e6e8      	b.n	2000c3c8 <_dtoa_r+0x460>
2000c5f6:	f04f 0a00 	mov.w	sl, #0
2000c5fa:	e7f0      	b.n	2000c5de <_dtoa_r+0x676>
2000c5fc:	f203 4333 	addw	r3, r3, #1075	@ 0x433
2000c600:	e5e7      	b.n	2000c1d2 <_dtoa_r+0x26a>
2000c602:	106d      	asrs	r5, r5, #1
2000c604:	f108 0808 	add.w	r8, r8, #8
2000c608:	e724      	b.n	2000c454 <_dtoa_r+0x4ec>
2000c60a:	4648      	mov	r0, r9
2000c60c:	f7f7 fdfc 	bl	20004208 <__wrap___aeabi_i2d>
2000c610:	e9dd 230c 	ldrd	r2, r3, [sp, #48]	@ 0x30
2000c614:	f7f7 fd84 	bl	20004120 <__wrap___aeabi_dmul>
2000c618:	2200      	movs	r2, #0
2000c61a:	4b24      	ldr	r3, [pc, #144]	@ (2000c6ac <_dtoa_r+0x744>)
2000c61c:	f7f7 fd58 	bl	200040d0 <__wrap___aeabi_dadd>
2000c620:	4606      	mov	r6, r0
2000c622:	f1a1 7750 	sub.w	r7, r1, #54525952	@ 0x3400000
2000c626:	2200      	movs	r2, #0
2000c628:	4b23      	ldr	r3, [pc, #140]	@ (2000c6b8 <_dtoa_r+0x750>)
2000c62a:	e9dd 010c 	ldrd	r0, r1, [sp, #48]	@ 0x30
2000c62e:	f7f7 fd63 	bl	200040f8 <__wrap___aeabi_dsub>
2000c632:	4632      	mov	r2, r6
2000c634:	463b      	mov	r3, r7
2000c636:	4680      	mov	r8, r0
2000c638:	4689      	mov	r9, r1
2000c63a:	f7f7 fe67 	bl	2000430c <__wrap___aeabi_dcmpgt>
2000c63e:	2800      	cmp	r0, #0
2000c640:	f040 8358 	bne.w	2000ccf4 <_dtoa_r+0xd8c>
2000c644:	4640      	mov	r0, r8
2000c646:	4649      	mov	r1, r9
2000c648:	4632      	mov	r2, r6
2000c64a:	f107 4300 	add.w	r3, r7, #2147483648	@ 0x80000000
2000c64e:	f7f7 fe35 	bl	200042bc <__wrap___aeabi_dcmplt>
2000c652:	2800      	cmp	r0, #0
2000c654:	f040 80f9 	bne.w	2000c84a <_dtoa_r+0x8e2>
2000c658:	9b1b      	ldr	r3, [sp, #108]	@ 0x6c
2000c65a:	2b00      	cmp	r3, #0
2000c65c:	db02      	blt.n	2000c664 <_dtoa_r+0x6fc>
2000c65e:	9a07      	ldr	r2, [sp, #28]
2000c660:	2a0e      	cmp	r2, #14
2000c662:	dd2b      	ble.n	2000c6bc <_dtoa_r+0x754>
2000c664:	f1ba 0f00 	cmp.w	sl, #0
2000c668:	f040 8147 	bne.w	2000c8fa <_dtoa_r+0x992>
2000c66c:	9b0a      	ldr	r3, [sp, #40]	@ 0x28
2000c66e:	2b00      	cmp	r3, #0
2000c670:	f000 82f1 	beq.w	2000cc56 <_dtoa_r+0xcee>
2000c674:	9b08      	ldr	r3, [sp, #32]
2000c676:	2b00      	cmp	r3, #0
2000c678:	f000 82ed 	beq.w	2000cc56 <_dtoa_r+0xcee>
2000c67c:	9a0a      	ldr	r2, [sp, #40]	@ 0x28
2000c67e:	9908      	ldr	r1, [sp, #32]
2000c680:	4613      	mov	r3, r2
2000c682:	9e0e      	ldr	r6, [sp, #56]	@ 0x38
2000c684:	428a      	cmp	r2, r1
2000c686:	bfa8      	it	ge
2000c688:	460b      	movge	r3, r1
2000c68a:	1ad2      	subs	r2, r2, r3
2000c68c:	1acb      	subs	r3, r1, r3
2000c68e:	920a      	str	r2, [sp, #40]	@ 0x28
2000c690:	9308      	str	r3, [sp, #32]
2000c692:	2e00      	cmp	r6, #0
2000c694:	f040 833c 	bne.w	2000cd10 <_dtoa_r+0xda8>
2000c698:	4690      	mov	r8, r2
2000c69a:	e5d8      	b.n	2000c24e <_dtoa_r+0x2e6>
2000c69c:	2000ec28 	.word	0x2000ec28
2000c6a0:	2000f7e0 	.word	0x2000f7e0
2000c6a4:	2000f7b8 	.word	0x2000f7b8
2000c6a8:	3ff00000 	.word	0x3ff00000
2000c6ac:	401c0000 	.word	0x401c0000
2000c6b0:	3fe00000 	.word	0x3fe00000
2000c6b4:	40240000 	.word	0x40240000
2000c6b8:	40140000 	.word	0x40140000
2000c6bc:	4ba6      	ldr	r3, [pc, #664]	@ (2000c958 <_dtoa_r+0x9f0>)
2000c6be:	9319      	str	r3, [sp, #100]	@ 0x64
2000c6c0:	9b19      	ldr	r3, [sp, #100]	@ 0x64
2000c6c2:	9a07      	ldr	r2, [sp, #28]
2000c6c4:	eb03 03c2 	add.w	r3, r3, r2, lsl #3
2000c6c8:	ed93 7b00 	vldr	d7, [r3]
2000c6cc:	9b27      	ldr	r3, [sp, #156]	@ 0x9c
2000c6ce:	2b00      	cmp	r3, #0
2000c6d0:	ed8d 7b04 	vstr	d7, [sp, #16]
2000c6d4:	f280 835f 	bge.w	2000cd96 <_dtoa_r+0xe2e>
2000c6d8:	9b0b      	ldr	r3, [sp, #44]	@ 0x2c
2000c6da:	2b00      	cmp	r3, #0
2000c6dc:	f300 835b 	bgt.w	2000cd96 <_dtoa_r+0xe2e>
2000c6e0:	2b00      	cmp	r3, #0
2000c6e2:	f040 80b2 	bne.w	2000c84a <_dtoa_r+0x8e2>
2000c6e6:	2200      	movs	r2, #0
2000c6e8:	4b9c      	ldr	r3, [pc, #624]	@ (2000c95c <_dtoa_r+0x9f4>)
2000c6ea:	e9dd 0104 	ldrd	r0, r1, [sp, #16]
2000c6ee:	f7f7 fd17 	bl	20004120 <__wrap___aeabi_dmul>
2000c6f2:	4602      	mov	r2, r0
2000c6f4:	460b      	mov	r3, r1
2000c6f6:	e9dd 0102 	ldrd	r0, r1, [sp, #8]
2000c6fa:	f7f7 fdf3 	bl	200042e4 <__wrap___aeabi_dcmple>
2000c6fe:	990b      	ldr	r1, [sp, #44]	@ 0x2c
2000c700:	2800      	cmp	r0, #0
2000c702:	f040 80a3 	bne.w	2000c84c <_dtoa_r+0x8e4>
2000c706:	2331      	movs	r3, #49	@ 0x31
2000c708:	f8dd b018 	ldr.w	fp, [sp, #24]
2000c70c:	4620      	mov	r0, r4
2000c70e:	f80b 3b01 	strb.w	r3, [fp], #1
2000c712:	f000 fc63 	bl	2000cfdc <_Bfree>
2000c716:	9b07      	ldr	r3, [sp, #28]
2000c718:	f103 0a02 	add.w	sl, r3, #2
2000c71c:	e601      	b.n	2000c322 <_dtoa_r+0x3ba>
2000c71e:	231c      	movs	r3, #28
2000c720:	9a0a      	ldr	r2, [sp, #40]	@ 0x28
2000c722:	4498      	add	r8, r3
2000c724:	441a      	add	r2, r3
2000c726:	920a      	str	r2, [sp, #40]	@ 0x28
2000c728:	9a08      	ldr	r2, [sp, #32]
2000c72a:	441a      	add	r2, r3
2000c72c:	9208      	str	r2, [sp, #32]
2000c72e:	e5af      	b.n	2000c290 <_dtoa_r+0x328>
2000c730:	9b0e      	ldr	r3, [sp, #56]	@ 0x38
2000c732:	2b00      	cmp	r3, #0
2000c734:	f040 81df 	bne.w	2000caf6 <_dtoa_r+0xb8e>
2000c738:	9b07      	ldr	r3, [sp, #28]
2000c73a:	f103 0a01 	add.w	sl, r3, #1
2000c73e:	f8dd 8018 	ldr.w	r8, [sp, #24]
2000c742:	2501      	movs	r5, #1
2000c744:	f8dd b02c 	ldr.w	fp, [sp, #44]	@ 0x2c
2000c748:	f8dd 9024 	ldr.w	r9, [sp, #36]	@ 0x24
2000c74c:	e007      	b.n	2000c75e <_dtoa_r+0x7f6>
2000c74e:	4649      	mov	r1, r9
2000c750:	2300      	movs	r3, #0
2000c752:	220a      	movs	r2, #10
2000c754:	4620      	mov	r0, r4
2000c756:	f000 fc4b 	bl	2000cff0 <__multadd>
2000c75a:	3501      	adds	r5, #1
2000c75c:	4681      	mov	r9, r0
2000c75e:	4639      	mov	r1, r7
2000c760:	4648      	mov	r0, r9
2000c762:	f7ff fb63 	bl	2000be2c <quorem>
2000c766:	455d      	cmp	r5, fp
2000c768:	f100 0330 	add.w	r3, r0, #48	@ 0x30
2000c76c:	f808 3b01 	strb.w	r3, [r8], #1
2000c770:	dbed      	blt.n	2000c74e <_dtoa_r+0x7e6>
2000c772:	9a0b      	ldr	r2, [sp, #44]	@ 0x2c
2000c774:	2500      	movs	r5, #0
2000c776:	f8cd 9024 	str.w	r9, [sp, #36]	@ 0x24
2000c77a:	f102 38ff 	add.w	r8, r2, #4294967295
2000c77e:	2a00      	cmp	r2, #0
2000c780:	9a06      	ldr	r2, [sp, #24]
2000c782:	bfd8      	it	le
2000c784:	f04f 0800 	movle.w	r8, #0
2000c788:	3201      	adds	r2, #1
2000c78a:	4490      	add	r8, r2
2000c78c:	9909      	ldr	r1, [sp, #36]	@ 0x24
2000c78e:	2201      	movs	r2, #1
2000c790:	4620      	mov	r0, r4
2000c792:	9302      	str	r3, [sp, #8]
2000c794:	f000 fe2a 	bl	2000d3ec <__lshift>
2000c798:	4639      	mov	r1, r7
2000c79a:	9009      	str	r0, [sp, #36]	@ 0x24
2000c79c:	f000 fe98 	bl	2000d4d0 <__mcmp>
2000c7a0:	2800      	cmp	r0, #0
2000c7a2:	f340 82fb 	ble.w	2000cd9c <_dtoa_r+0xe34>
2000c7a6:	9a06      	ldr	r2, [sp, #24]
2000c7a8:	e002      	b.n	2000c7b0 <_dtoa_r+0x848>
2000c7aa:	4590      	cmp	r8, r2
2000c7ac:	f000 8301 	beq.w	2000cdb2 <_dtoa_r+0xe4a>
2000c7b0:	f818 3c01 	ldrb.w	r3, [r8, #-1]
2000c7b4:	46c3      	mov	fp, r8
2000c7b6:	f108 38ff 	add.w	r8, r8, #4294967295
2000c7ba:	2b39      	cmp	r3, #57	@ 0x39
2000c7bc:	d0f5      	beq.n	2000c7aa <_dtoa_r+0x842>
2000c7be:	3301      	adds	r3, #1
2000c7c0:	f888 3000 	strb.w	r3, [r8]
2000c7c4:	4639      	mov	r1, r7
2000c7c6:	4620      	mov	r0, r4
2000c7c8:	f000 fc08 	bl	2000cfdc <_Bfree>
2000c7cc:	2e00      	cmp	r6, #0
2000c7ce:	f43f ada8 	beq.w	2000c322 <_dtoa_r+0x3ba>
2000c7d2:	2d00      	cmp	r5, #0
2000c7d4:	f43f ada1 	beq.w	2000c31a <_dtoa_r+0x3b2>
2000c7d8:	42b5      	cmp	r5, r6
2000c7da:	f43f ad9e 	beq.w	2000c31a <_dtoa_r+0x3b2>
2000c7de:	4629      	mov	r1, r5
2000c7e0:	4620      	mov	r0, r4
2000c7e2:	f000 fbfb 	bl	2000cfdc <_Bfree>
2000c7e6:	e598      	b.n	2000c31a <_dtoa_r+0x3b2>
2000c7e8:	f000 826d 	beq.w	2000ccc6 <_dtoa_r+0xd5e>
2000c7ec:	9b07      	ldr	r3, [sp, #28]
2000c7ee:	4a5a      	ldr	r2, [pc, #360]	@ (2000c958 <_dtoa_r+0x9f0>)
2000c7f0:	425d      	negs	r5, r3
2000c7f2:	f005 030f 	and.w	r3, r5, #15
2000c7f6:	eb02 03c3 	add.w	r3, r2, r3, lsl #3
2000c7fa:	e9dd 0102 	ldrd	r0, r1, [sp, #8]
2000c7fe:	e9d3 2300 	ldrd	r2, r3, [r3]
2000c802:	f7f7 fc8d 	bl	20004120 <__wrap___aeabi_dmul>
2000c806:	112d      	asrs	r5, r5, #4
2000c808:	e9cd 010c 	strd	r0, r1, [sp, #48]	@ 0x30
2000c80c:	f000 838b 	beq.w	2000cf26 <_dtoa_r+0xfbe>
2000c810:	4e53      	ldr	r6, [pc, #332]	@ (2000c960 <_dtoa_r+0x9f8>)
2000c812:	f04f 0902 	mov.w	r9, #2
2000c816:	07e9      	lsls	r1, r5, #31
2000c818:	d50e      	bpl.n	2000c838 <_dtoa_r+0x8d0>
2000c81a:	f109 0901 	add.w	r9, r9, #1
2000c81e:	e9dd 010c 	ldrd	r0, r1, [sp, #48]	@ 0x30
2000c822:	e8f6 2302 	ldrd	r2, r3, [r6], #8
2000c826:	f7f7 fc7b 	bl	20004120 <__wrap___aeabi_dmul>
2000c82a:	106d      	asrs	r5, r5, #1
2000c82c:	e9cd 010c 	strd	r0, r1, [sp, #48]	@ 0x30
2000c830:	f43f ae27 	beq.w	2000c482 <_dtoa_r+0x51a>
2000c834:	07e9      	lsls	r1, r5, #31
2000c836:	d4f0      	bmi.n	2000c81a <_dtoa_r+0x8b2>
2000c838:	106d      	asrs	r5, r5, #1
2000c83a:	3608      	adds	r6, #8
2000c83c:	e7eb      	b.n	2000c816 <_dtoa_r+0x8ae>
2000c83e:	9b27      	ldr	r3, [sp, #156]	@ 0x9c
2000c840:	f8dd b018 	ldr.w	fp, [sp, #24]
2000c844:	ea6f 0a03 	mvn.w	sl, r3
2000c848:	e560      	b.n	2000c30c <_dtoa_r+0x3a4>
2000c84a:	2100      	movs	r1, #0
2000c84c:	4620      	mov	r0, r4
2000c84e:	f000 fbc5 	bl	2000cfdc <_Bfree>
2000c852:	9b27      	ldr	r3, [sp, #156]	@ 0x9c
2000c854:	f8dd b018 	ldr.w	fp, [sp, #24]
2000c858:	f1c3 0a00 	rsb	sl, r3, #0
2000c85c:	e561      	b.n	2000c322 <_dtoa_r+0x3ba>
2000c85e:	2301      	movs	r3, #1
2000c860:	2100      	movs	r1, #0
2000c862:	9311      	str	r3, [sp, #68]	@ 0x44
2000c864:	63e1      	str	r1, [r4, #60]	@ 0x3c
2000c866:	9327      	str	r3, [sp, #156]	@ 0x9c
2000c868:	930b      	str	r3, [sp, #44]	@ 0x2c
2000c86a:	e5c4      	b.n	2000c3f6 <_dtoa_r+0x48e>
2000c86c:	461a      	mov	r2, r3
2000c86e:	4601      	mov	r1, r0
2000c870:	4620      	mov	r0, r4
2000c872:	f000 fd5b 	bl	2000d32c <__pow5mult>
2000c876:	9b26      	ldr	r3, [sp, #152]	@ 0x98
2000c878:	4607      	mov	r7, r0
2000c87a:	2b01      	cmp	r3, #1
2000c87c:	f340 8273 	ble.w	2000cd66 <_dtoa_r+0xdfe>
2000c880:	2300      	movs	r3, #0
2000c882:	930f      	str	r3, [sp, #60]	@ 0x3c
2000c884:	693b      	ldr	r3, [r7, #16]
2000c886:	eb07 0383 	add.w	r3, r7, r3, lsl #2
2000c88a:	6918      	ldr	r0, [r3, #16]
2000c88c:	f000 fc02 	bl	2000d094 <__hi0bits>
2000c890:	f1c0 0320 	rsb	r3, r0, #32
2000c894:	e4e9      	b.n	2000c26a <_dtoa_r+0x302>
2000c896:	4639      	mov	r1, r7
2000c898:	9809      	ldr	r0, [sp, #36]	@ 0x24
2000c89a:	f000 fe19 	bl	2000d4d0 <__mcmp>
2000c89e:	2800      	cmp	r0, #0
2000c8a0:	f6bf ad13 	bge.w	2000c2ca <_dtoa_r+0x362>
2000c8a4:	2300      	movs	r3, #0
2000c8a6:	9909      	ldr	r1, [sp, #36]	@ 0x24
2000c8a8:	220a      	movs	r2, #10
2000c8aa:	4620      	mov	r0, r4
2000c8ac:	9d07      	ldr	r5, [sp, #28]
2000c8ae:	f000 fb9f 	bl	2000cff0 <__multadd>
2000c8b2:	9b11      	ldr	r3, [sp, #68]	@ 0x44
2000c8b4:	f105 39ff 	add.w	r9, r5, #4294967295
2000c8b8:	9009      	str	r0, [sp, #36]	@ 0x24
2000c8ba:	2b00      	cmp	r3, #0
2000c8bc:	bfcc      	ite	gt
2000c8be:	2500      	movgt	r5, #0
2000c8c0:	f00a 0501 	andle.w	r5, sl, #1
2000c8c4:	9b0e      	ldr	r3, [sp, #56]	@ 0x38
2000c8c6:	2b00      	cmp	r3, #0
2000c8c8:	f040 8107 	bne.w	2000cada <_dtoa_r+0xb72>
2000c8cc:	2d00      	cmp	r5, #0
2000c8ce:	f040 8312 	bne.w	2000cef6 <_dtoa_r+0xf8e>
2000c8d2:	9b11      	ldr	r3, [sp, #68]	@ 0x44
2000c8d4:	f8dd a01c 	ldr.w	sl, [sp, #28]
2000c8d8:	930b      	str	r3, [sp, #44]	@ 0x2c
2000c8da:	e730      	b.n	2000c73e <_dtoa_r+0x7d6>
2000c8dc:	ed9d 7b02 	vldr	d7, [sp, #8]
2000c8e0:	f04f 0902 	mov.w	r9, #2
2000c8e4:	ed8d 7b0c 	vstr	d7, [sp, #48]	@ 0x30
2000c8e8:	e5b1      	b.n	2000c44e <_dtoa_r+0x4e6>
2000c8ea:	9b1b      	ldr	r3, [sp, #108]	@ 0x6c
2000c8ec:	9c0c      	ldr	r4, [sp, #48]	@ 0x30
2000c8ee:	2b00      	cmp	r3, #0
2000c8f0:	db03      	blt.n	2000c8fa <_dtoa_r+0x992>
2000c8f2:	9a07      	ldr	r2, [sp, #28]
2000c8f4:	2a0e      	cmp	r2, #14
2000c8f6:	f77f aee3 	ble.w	2000c6c0 <_dtoa_r+0x758>
2000c8fa:	9a26      	ldr	r2, [sp, #152]	@ 0x98
2000c8fc:	2a01      	cmp	r2, #1
2000c8fe:	f77f ac61 	ble.w	2000c1c4 <_dtoa_r+0x25c>
2000c902:	9b0b      	ldr	r3, [sp, #44]	@ 0x2c
2000c904:	9a0e      	ldr	r2, [sp, #56]	@ 0x38
2000c906:	1e5d      	subs	r5, r3, #1
2000c908:	42aa      	cmp	r2, r5
2000c90a:	f2c0 820e 	blt.w	2000cd2a <_dtoa_r+0xdc2>
2000c90e:	2b00      	cmp	r3, #0
2000c910:	eba2 0505 	sub.w	r5, r2, r5
2000c914:	f280 82f7 	bge.w	2000cf06 <_dtoa_r+0xf9e>
2000c918:	e9dd 320a 	ldrd	r3, r2, [sp, #40]	@ 0x28
2000c91c:	eba3 0802 	sub.w	r8, r3, r2
2000c920:	e45f      	b.n	2000c1e2 <_dtoa_r+0x27a>
2000c922:	9b04      	ldr	r3, [sp, #16]
2000c924:	2b00      	cmp	r3, #0
2000c926:	f47f ac9f 	bne.w	2000c268 <_dtoa_r+0x300>
2000c92a:	9b05      	ldr	r3, [sp, #20]
2000c92c:	f3c3 0313 	ubfx	r3, r3, #0, #20
2000c930:	2b00      	cmp	r3, #0
2000c932:	f47f ac99 	bne.w	2000c268 <_dtoa_r+0x300>
2000c936:	9b05      	ldr	r3, [sp, #20]
2000c938:	f023 4300 	bic.w	r3, r3, #2147483648	@ 0x80000000
2000c93c:	0d1b      	lsrs	r3, r3, #20
2000c93e:	051b      	lsls	r3, r3, #20
2000c940:	2b00      	cmp	r3, #0
2000c942:	f43f ac91 	beq.w	2000c268 <_dtoa_r+0x300>
2000c946:	9b0a      	ldr	r3, [sp, #40]	@ 0x28
2000c948:	3301      	adds	r3, #1
2000c94a:	930a      	str	r3, [sp, #40]	@ 0x28
2000c94c:	9b08      	ldr	r3, [sp, #32]
2000c94e:	3301      	adds	r3, #1
2000c950:	9308      	str	r3, [sp, #32]
2000c952:	2301      	movs	r3, #1
2000c954:	930f      	str	r3, [sp, #60]	@ 0x3c
2000c956:	e488      	b.n	2000c26a <_dtoa_r+0x302>
2000c958:	2000f7e0 	.word	0x2000f7e0
2000c95c:	40140000 	.word	0x40140000
2000c960:	2000f7b8 	.word	0x2000f7b8
2000c964:	e9dd 0114 	ldrd	r0, r1, [sp, #80]	@ 0x50
2000c968:	f7f7 fbda 	bl	20004120 <__wrap___aeabi_dmul>
2000c96c:	9b06      	ldr	r3, [sp, #24]
2000c96e:	701f      	strb	r7, [r3, #0]
2000c970:	9b13      	ldr	r3, [sp, #76]	@ 0x4c
2000c972:	2b01      	cmp	r3, #1
2000c974:	e9cd 010c 	strd	r0, r1, [sp, #48]	@ 0x30
2000c978:	f000 82c3 	beq.w	2000cf02 <_dtoa_r+0xf9a>
2000c97c:	9b06      	ldr	r3, [sp, #24]
2000c97e:	46aa      	mov	sl, r5
2000c980:	9a13      	ldr	r2, [sp, #76]	@ 0x4c
2000c982:	eb03 0b02 	add.w	fp, r3, r2
2000c986:	2200      	movs	r2, #0
2000c988:	4bb9      	ldr	r3, [pc, #740]	@ (2000cc70 <_dtoa_r+0xd08>)
2000c98a:	4640      	mov	r0, r8
2000c98c:	4649      	mov	r1, r9
2000c98e:	f7f7 fbc7 	bl	20004120 <__wrap___aeabi_dmul>
2000c992:	4689      	mov	r9, r1
2000c994:	4680      	mov	r8, r0
2000c996:	f7f7 fc5b 	bl	20004250 <__wrap___aeabi_d2iz>
2000c99a:	4606      	mov	r6, r0
2000c99c:	f7f7 fc34 	bl	20004208 <__wrap___aeabi_i2d>
2000c9a0:	4602      	mov	r2, r0
2000c9a2:	460b      	mov	r3, r1
2000c9a4:	3630      	adds	r6, #48	@ 0x30
2000c9a6:	4640      	mov	r0, r8
2000c9a8:	4649      	mov	r1, r9
2000c9aa:	f7f7 fba5 	bl	200040f8 <__wrap___aeabi_dsub>
2000c9ae:	f80a 6b01 	strb.w	r6, [sl], #1
2000c9b2:	45d3      	cmp	fp, sl
2000c9b4:	4680      	mov	r8, r0
2000c9b6:	4689      	mov	r9, r1
2000c9b8:	d1e5      	bne.n	2000c986 <_dtoa_r+0xa1e>
2000c9ba:	1e6e      	subs	r6, r5, #1
2000c9bc:	9b13      	ldr	r3, [sp, #76]	@ 0x4c
2000c9be:	441e      	add	r6, r3
2000c9c0:	2200      	movs	r2, #0
2000c9c2:	4bac      	ldr	r3, [pc, #688]	@ (2000cc74 <_dtoa_r+0xd0c>)
2000c9c4:	e9dd ab0c 	ldrd	sl, fp, [sp, #48]	@ 0x30
2000c9c8:	4650      	mov	r0, sl
2000c9ca:	4659      	mov	r1, fp
2000c9cc:	f7f7 fb80 	bl	200040d0 <__wrap___aeabi_dadd>
2000c9d0:	4642      	mov	r2, r8
2000c9d2:	464b      	mov	r3, r9
2000c9d4:	f7f7 fc72 	bl	200042bc <__wrap___aeabi_dcmplt>
2000c9d8:	2800      	cmp	r0, #0
2000c9da:	f040 81ff 	bne.w	2000cddc <_dtoa_r+0xe74>
2000c9de:	4652      	mov	r2, sl
2000c9e0:	465b      	mov	r3, fp
2000c9e2:	2000      	movs	r0, #0
2000c9e4:	49a3      	ldr	r1, [pc, #652]	@ (2000cc74 <_dtoa_r+0xd0c>)
2000c9e6:	f7f7 fb87 	bl	200040f8 <__wrap___aeabi_dsub>
2000c9ea:	4642      	mov	r2, r8
2000c9ec:	464b      	mov	r3, r9
2000c9ee:	f7f7 fc8d 	bl	2000430c <__wrap___aeabi_dcmpgt>
2000c9f2:	2800      	cmp	r0, #0
2000c9f4:	d16a      	bne.n	2000cacc <_dtoa_r+0xb64>
2000c9f6:	9b1b      	ldr	r3, [sp, #108]	@ 0x6c
2000c9f8:	2b00      	cmp	r3, #0
2000c9fa:	f6ff ae37 	blt.w	2000c66c <_dtoa_r+0x704>
2000c9fe:	9b07      	ldr	r3, [sp, #28]
2000ca00:	2b0e      	cmp	r3, #14
2000ca02:	f73f ae33 	bgt.w	2000c66c <_dtoa_r+0x704>
2000ca06:	9b19      	ldr	r3, [sp, #100]	@ 0x64
2000ca08:	9a07      	ldr	r2, [sp, #28]
2000ca0a:	eb03 03c2 	add.w	r3, r3, r2, lsl #3
2000ca0e:	ed93 7b00 	vldr	d7, [r3]
2000ca12:	ed8d 7b04 	vstr	d7, [sp, #16]
2000ca16:	e9dd 9a04 	ldrd	r9, sl, [sp, #16]
2000ca1a:	e9dd 6702 	ldrd	r6, r7, [sp, #8]
2000ca1e:	464a      	mov	r2, r9
2000ca20:	4653      	mov	r3, sl
2000ca22:	4630      	mov	r0, r6
2000ca24:	4639      	mov	r1, r7
2000ca26:	f7f7 fba1 	bl	2000416c <__wrap___aeabi_ddiv>
2000ca2a:	f7f7 fc11 	bl	20004250 <__wrap___aeabi_d2iz>
2000ca2e:	4680      	mov	r8, r0
2000ca30:	f7f7 fbea 	bl	20004208 <__wrap___aeabi_i2d>
2000ca34:	464a      	mov	r2, r9
2000ca36:	4653      	mov	r3, sl
2000ca38:	f7f7 fb72 	bl	20004120 <__wrap___aeabi_dmul>
2000ca3c:	4602      	mov	r2, r0
2000ca3e:	460b      	mov	r3, r1
2000ca40:	4630      	mov	r0, r6
2000ca42:	4639      	mov	r1, r7
2000ca44:	f7f7 fb58 	bl	200040f8 <__wrap___aeabi_dsub>
2000ca48:	f108 0330 	add.w	r3, r8, #48	@ 0x30
2000ca4c:	9a06      	ldr	r2, [sp, #24]
2000ca4e:	7013      	strb	r3, [r2, #0]
2000ca50:	9b0b      	ldr	r3, [sp, #44]	@ 0x2c
2000ca52:	2b01      	cmp	r3, #1
2000ca54:	f000 81de 	beq.w	2000ce14 <_dtoa_r+0xeac>
2000ca58:	f1c5 0901 	rsb	r9, r5, #1
2000ca5c:	9402      	str	r4, [sp, #8]
2000ca5e:	f04f 0a00 	mov.w	sl, #0
2000ca62:	f8df b20c 	ldr.w	fp, [pc, #524]	@ 2000cc70 <_dtoa_r+0xd08>
2000ca66:	464c      	mov	r4, r9
2000ca68:	f8dd 902c 	ldr.w	r9, [sp, #44]	@ 0x2c
2000ca6c:	e01c      	b.n	2000caa8 <_dtoa_r+0xb40>
2000ca6e:	e9dd 2304 	ldrd	r2, r3, [sp, #16]
2000ca72:	4630      	mov	r0, r6
2000ca74:	4639      	mov	r1, r7
2000ca76:	f7f7 fb79 	bl	2000416c <__wrap___aeabi_ddiv>
2000ca7a:	f7f7 fbe9 	bl	20004250 <__wrap___aeabi_d2iz>
2000ca7e:	4680      	mov	r8, r0
2000ca80:	f7f7 fbc2 	bl	20004208 <__wrap___aeabi_i2d>
2000ca84:	e9dd 2304 	ldrd	r2, r3, [sp, #16]
2000ca88:	f7f7 fb4a 	bl	20004120 <__wrap___aeabi_dmul>
2000ca8c:	460b      	mov	r3, r1
2000ca8e:	4602      	mov	r2, r0
2000ca90:	4639      	mov	r1, r7
2000ca92:	4630      	mov	r0, r6
2000ca94:	f7f7 fb30 	bl	200040f8 <__wrap___aeabi_dsub>
2000ca98:	f108 0330 	add.w	r3, r8, #48	@ 0x30
2000ca9c:	f805 3b01 	strb.w	r3, [r5], #1
2000caa0:	192b      	adds	r3, r5, r4
2000caa2:	454b      	cmp	r3, r9
2000caa4:	f000 81b5 	beq.w	2000ce12 <_dtoa_r+0xeaa>
2000caa8:	4652      	mov	r2, sl
2000caaa:	465b      	mov	r3, fp
2000caac:	f7f7 fb38 	bl	20004120 <__wrap___aeabi_dmul>
2000cab0:	2200      	movs	r2, #0
2000cab2:	2300      	movs	r3, #0
2000cab4:	4606      	mov	r6, r0
2000cab6:	460f      	mov	r7, r1
2000cab8:	f7f7 fbee 	bl	20004298 <__wrap___aeabi_dcmpeq>
2000cabc:	2800      	cmp	r0, #0
2000cabe:	d0d6      	beq.n	2000ca6e <_dtoa_r+0xb06>
2000cac0:	9b07      	ldr	r3, [sp, #28]
2000cac2:	46ab      	mov	fp, r5
2000cac4:	9c02      	ldr	r4, [sp, #8]
2000cac6:	f103 0a01 	add.w	sl, r3, #1
2000caca:	e42a      	b.n	2000c322 <_dtoa_r+0x3ba>
2000cacc:	f816 3c01 	ldrb.w	r3, [r6, #-1]
2000cad0:	46b3      	mov	fp, r6
2000cad2:	3e01      	subs	r6, #1
2000cad4:	2b30      	cmp	r3, #48	@ 0x30
2000cad6:	d0f9      	beq.n	2000cacc <_dtoa_r+0xb64>
2000cad8:	e57b      	b.n	2000c5d2 <_dtoa_r+0x66a>
2000cada:	4631      	mov	r1, r6
2000cadc:	2300      	movs	r3, #0
2000cade:	220a      	movs	r2, #10
2000cae0:	4620      	mov	r0, r4
2000cae2:	f000 fa85 	bl	2000cff0 <__multadd>
2000cae6:	9b11      	ldr	r3, [sp, #68]	@ 0x44
2000cae8:	4606      	mov	r6, r0
2000caea:	f8cd 901c 	str.w	r9, [sp, #28]
2000caee:	930b      	str	r3, [sp, #44]	@ 0x2c
2000caf0:	2d00      	cmp	r5, #0
2000caf2:	f47f abf2 	bne.w	2000c2da <_dtoa_r+0x372>
2000caf6:	f1b8 0f00 	cmp.w	r8, #0
2000cafa:	dd05      	ble.n	2000cb08 <_dtoa_r+0xba0>
2000cafc:	4631      	mov	r1, r6
2000cafe:	4642      	mov	r2, r8
2000cb00:	4620      	mov	r0, r4
2000cb02:	f000 fc73 	bl	2000d3ec <__lshift>
2000cb06:	4606      	mov	r6, r0
2000cb08:	9b0f      	ldr	r3, [sp, #60]	@ 0x3c
2000cb0a:	2b00      	cmp	r3, #0
2000cb0c:	f040 816a 	bne.w	2000cde4 <_dtoa_r+0xe7c>
2000cb10:	46b1      	mov	r9, r6
2000cb12:	9d06      	ldr	r5, [sp, #24]
2000cb14:	9a0b      	ldr	r2, [sp, #44]	@ 0x2c
2000cb16:	1e6b      	subs	r3, r5, #1
2000cb18:	9702      	str	r7, [sp, #8]
2000cb1a:	9f09      	ldr	r7, [sp, #36]	@ 0x24
2000cb1c:	441a      	add	r2, r3
2000cb1e:	9b04      	ldr	r3, [sp, #16]
2000cb20:	f003 0301 	and.w	r3, r3, #1
2000cb24:	920a      	str	r2, [sp, #40]	@ 0x28
2000cb26:	930b      	str	r3, [sp, #44]	@ 0x2c
2000cb28:	9902      	ldr	r1, [sp, #8]
2000cb2a:	4638      	mov	r0, r7
2000cb2c:	f7ff f97e 	bl	2000be2c <quorem>
2000cb30:	4631      	mov	r1, r6
2000cb32:	4682      	mov	sl, r0
2000cb34:	4638      	mov	r0, r7
2000cb36:	f000 fccb 	bl	2000d4d0 <__mcmp>
2000cb3a:	9902      	ldr	r1, [sp, #8]
2000cb3c:	4680      	mov	r8, r0
2000cb3e:	464a      	mov	r2, r9
2000cb40:	4620      	mov	r0, r4
2000cb42:	f10a 0b30 	add.w	fp, sl, #48	@ 0x30
2000cb46:	f000 fce5 	bl	2000d514 <__mdiff>
2000cb4a:	68c3      	ldr	r3, [r0, #12]
2000cb4c:	4601      	mov	r1, r0
2000cb4e:	bbb3      	cbnz	r3, 2000cbbe <_dtoa_r+0xc56>
2000cb50:	9008      	str	r0, [sp, #32]
2000cb52:	4638      	mov	r0, r7
2000cb54:	f000 fcbc 	bl	2000d4d0 <__mcmp>
2000cb58:	9908      	ldr	r1, [sp, #32]
2000cb5a:	9008      	str	r0, [sp, #32]
2000cb5c:	4620      	mov	r0, r4
2000cb5e:	f000 fa3d 	bl	2000cfdc <_Bfree>
2000cb62:	9a26      	ldr	r2, [sp, #152]	@ 0x98
2000cb64:	9b08      	ldr	r3, [sp, #32]
2000cb66:	431a      	orrs	r2, r3
2000cb68:	d15e      	bne.n	2000cc28 <_dtoa_r+0xcc0>
2000cb6a:	9b0b      	ldr	r3, [sp, #44]	@ 0x2c
2000cb6c:	2b00      	cmp	r3, #0
2000cb6e:	f000 81b8 	beq.w	2000cee2 <_dtoa_r+0xf7a>
2000cb72:	f1b8 0f00 	cmp.w	r8, #0
2000cb76:	f2c0 81b0 	blt.w	2000ceda <_dtoa_r+0xf72>
2000cb7a:	9b0a      	ldr	r3, [sp, #40]	@ 0x28
2000cb7c:	46a8      	mov	r8, r5
2000cb7e:	42ab      	cmp	r3, r5
2000cb80:	f808 bb01 	strb.w	fp, [r8], #1
2000cb84:	f000 817c 	beq.w	2000ce80 <_dtoa_r+0xf18>
2000cb88:	4639      	mov	r1, r7
2000cb8a:	2300      	movs	r3, #0
2000cb8c:	220a      	movs	r2, #10
2000cb8e:	4620      	mov	r0, r4
2000cb90:	f000 fa2e 	bl	2000cff0 <__multadd>
2000cb94:	454e      	cmp	r6, r9
2000cb96:	4607      	mov	r7, r0
2000cb98:	4631      	mov	r1, r6
2000cb9a:	f04f 0300 	mov.w	r3, #0
2000cb9e:	f04f 020a 	mov.w	r2, #10
2000cba2:	4620      	mov	r0, r4
2000cba4:	d03a      	beq.n	2000cc1c <_dtoa_r+0xcb4>
2000cba6:	f000 fa23 	bl	2000cff0 <__multadd>
2000cbaa:	4649      	mov	r1, r9
2000cbac:	4606      	mov	r6, r0
2000cbae:	2300      	movs	r3, #0
2000cbb0:	220a      	movs	r2, #10
2000cbb2:	4620      	mov	r0, r4
2000cbb4:	f000 fa1c 	bl	2000cff0 <__multadd>
2000cbb8:	4645      	mov	r5, r8
2000cbba:	4681      	mov	r9, r0
2000cbbc:	e7b4      	b.n	2000cb28 <_dtoa_r+0xbc0>
2000cbbe:	4620      	mov	r0, r4
2000cbc0:	e9cd b708 	strd	fp, r7, [sp, #32]
2000cbc4:	9f02      	ldr	r7, [sp, #8]
2000cbc6:	f000 fa09 	bl	2000cfdc <_Bfree>
2000cbca:	f1b8 0f00 	cmp.w	r8, #0
2000cbce:	9b08      	ldr	r3, [sp, #32]
2000cbd0:	db08      	blt.n	2000cbe4 <_dtoa_r+0xc7c>
2000cbd2:	9a04      	ldr	r2, [sp, #16]
2000cbd4:	9926      	ldr	r1, [sp, #152]	@ 0x98
2000cbd6:	f002 0201 	and.w	r2, r2, #1
2000cbda:	ea48 0801 	orr.w	r8, r8, r1
2000cbde:	ea52 0208 	orrs.w	r2, r2, r8
2000cbe2:	d132      	bne.n	2000cc4a <_dtoa_r+0xce2>
2000cbe4:	9909      	ldr	r1, [sp, #36]	@ 0x24
2000cbe6:	2201      	movs	r2, #1
2000cbe8:	4620      	mov	r0, r4
2000cbea:	9302      	str	r3, [sp, #8]
2000cbec:	f000 fbfe 	bl	2000d3ec <__lshift>
2000cbf0:	4639      	mov	r1, r7
2000cbf2:	9009      	str	r0, [sp, #36]	@ 0x24
2000cbf4:	f000 fc6c 	bl	2000d4d0 <__mcmp>
2000cbf8:	2800      	cmp	r0, #0
2000cbfa:	9b02      	ldr	r3, [sp, #8]
2000cbfc:	f340 818d 	ble.w	2000cf1a <_dtoa_r+0xfb2>
2000cc00:	2b39      	cmp	r3, #57	@ 0x39
2000cc02:	f000 8146 	beq.w	2000ce92 <_dtoa_r+0xf2a>
2000cc06:	f10a 0331 	add.w	r3, sl, #49	@ 0x31
2000cc0a:	46ab      	mov	fp, r5
2000cc0c:	f80b 3b01 	strb.w	r3, [fp], #1
2000cc10:	4635      	mov	r5, r6
2000cc12:	9b07      	ldr	r3, [sp, #28]
2000cc14:	464e      	mov	r6, r9
2000cc16:	f103 0a01 	add.w	sl, r3, #1
2000cc1a:	e5d3      	b.n	2000c7c4 <_dtoa_r+0x85c>
2000cc1c:	f000 f9e8 	bl	2000cff0 <__multadd>
2000cc20:	4645      	mov	r5, r8
2000cc22:	4606      	mov	r6, r0
2000cc24:	4681      	mov	r9, r0
2000cc26:	e77f      	b.n	2000cb28 <_dtoa_r+0xbc0>
2000cc28:	f1b8 0f00 	cmp.w	r8, #0
2000cc2c:	f2c0 813c 	blt.w	2000cea8 <_dtoa_r+0xf40>
2000cc30:	9a26      	ldr	r2, [sp, #152]	@ 0x98
2000cc32:	ea48 0802 	orr.w	r8, r8, r2
2000cc36:	9a0b      	ldr	r2, [sp, #44]	@ 0x2c
2000cc38:	ea52 0808 	orrs.w	r8, r2, r8
2000cc3c:	f000 8134 	beq.w	2000cea8 <_dtoa_r+0xf40>
2000cc40:	2b00      	cmp	r3, #0
2000cc42:	dd9a      	ble.n	2000cb7a <_dtoa_r+0xc12>
2000cc44:	9709      	str	r7, [sp, #36]	@ 0x24
2000cc46:	465b      	mov	r3, fp
2000cc48:	9f02      	ldr	r7, [sp, #8]
2000cc4a:	2b39      	cmp	r3, #57	@ 0x39
2000cc4c:	f000 8121 	beq.w	2000ce92 <_dtoa_r+0xf2a>
2000cc50:	46ab      	mov	fp, r5
2000cc52:	3301      	adds	r3, #1
2000cc54:	e7da      	b.n	2000cc0c <_dtoa_r+0xca4>
2000cc56:	9e0e      	ldr	r6, [sp, #56]	@ 0x38
2000cc58:	2e00      	cmp	r6, #0
2000cc5a:	d159      	bne.n	2000cd10 <_dtoa_r+0xda8>
2000cc5c:	f8dd 8028 	ldr.w	r8, [sp, #40]	@ 0x28
2000cc60:	f7ff baf5 	b.w	2000c24e <_dtoa_r+0x2e6>
2000cc64:	f43f ab14 	beq.w	2000c290 <_dtoa_r+0x328>
2000cc68:	f1c3 033c 	rsb	r3, r3, #60	@ 0x3c
2000cc6c:	e558      	b.n	2000c720 <_dtoa_r+0x7b8>
2000cc6e:	bf00      	nop
2000cc70:	40240000 	.word	0x40240000
2000cc74:	3fe00000 	.word	0x3fe00000
2000cc78:	9b0b      	ldr	r3, [sp, #44]	@ 0x2c
2000cc7a:	2b00      	cmp	r3, #0
2000cc7c:	f43f acc5 	beq.w	2000c60a <_dtoa_r+0x6a2>
2000cc80:	9d11      	ldr	r5, [sp, #68]	@ 0x44
2000cc82:	2d00      	cmp	r5, #0
2000cc84:	f77f ace8 	ble.w	2000c658 <_dtoa_r+0x6f0>
2000cc88:	9b07      	ldr	r3, [sp, #28]
2000cc8a:	4630      	mov	r0, r6
2000cc8c:	4639      	mov	r1, r7
2000cc8e:	2200      	movs	r2, #0
2000cc90:	3b01      	subs	r3, #1
2000cc92:	9318      	str	r3, [sp, #96]	@ 0x60
2000cc94:	4bad      	ldr	r3, [pc, #692]	@ (2000cf4c <_dtoa_r+0xfe4>)
2000cc96:	f7f7 fa43 	bl	20004120 <__wrap___aeabi_dmul>
2000cc9a:	4602      	mov	r2, r0
2000cc9c:	460f      	mov	r7, r1
2000cc9e:	f109 0001 	add.w	r0, r9, #1
2000cca2:	4616      	mov	r6, r2
2000cca4:	e9cd 670c 	strd	r6, r7, [sp, #48]	@ 0x30
2000cca8:	f7f7 faae 	bl	20004208 <__wrap___aeabi_i2d>
2000ccac:	4632      	mov	r2, r6
2000ccae:	463b      	mov	r3, r7
2000ccb0:	f7f7 fa36 	bl	20004120 <__wrap___aeabi_dmul>
2000ccb4:	2200      	movs	r2, #0
2000ccb6:	4ba6      	ldr	r3, [pc, #664]	@ (2000cf50 <_dtoa_r+0xfe8>)
2000ccb8:	f7f7 fa0a 	bl	200040d0 <__wrap___aeabi_dadd>
2000ccbc:	9513      	str	r5, [sp, #76]	@ 0x4c
2000ccbe:	4606      	mov	r6, r0
2000ccc0:	f1a1 7750 	sub.w	r7, r1, #54525952	@ 0x3400000
2000ccc4:	e400      	b.n	2000c4c8 <_dtoa_r+0x560>
2000ccc6:	ed9d 7b02 	vldr	d7, [sp, #8]
2000ccca:	f04f 0902 	mov.w	r9, #2
2000ccce:	ed8d 7b0c 	vstr	d7, [sp, #48]	@ 0x30
2000ccd2:	f7ff bbd6 	b.w	2000c482 <_dtoa_r+0x51a>
2000ccd6:	f1c8 0301 	rsb	r3, r8, #1
2000ccda:	9010      	str	r0, [sp, #64]	@ 0x40
2000ccdc:	930a      	str	r3, [sp, #40]	@ 0x28
2000ccde:	9b07      	ldr	r3, [sp, #28]
2000cce0:	9308      	str	r3, [sp, #32]
2000cce2:	930f      	str	r3, [sp, #60]	@ 0x3c
2000cce4:	f7ff b9ed 	b.w	2000c0c2 <_dtoa_r+0x15a>
2000cce8:	9b0e      	ldr	r3, [sp, #56]	@ 0x38
2000ccea:	2b00      	cmp	r3, #0
2000ccec:	f43f aaad 	beq.w	2000c24a <_dtoa_r+0x2e2>
2000ccf0:	f7ff ba92 	b.w	2000c218 <_dtoa_r+0x2b0>
2000ccf4:	2331      	movs	r3, #49	@ 0x31
2000ccf6:	f8dd b018 	ldr.w	fp, [sp, #24]
2000ccfa:	2100      	movs	r1, #0
2000ccfc:	4620      	mov	r0, r4
2000ccfe:	f80b 3b01 	strb.w	r3, [fp], #1
2000cd02:	f000 f96b 	bl	2000cfdc <_Bfree>
2000cd06:	9b07      	ldr	r3, [sp, #28]
2000cd08:	f103 0a02 	add.w	sl, r3, #2
2000cd0c:	f7ff bb09 	b.w	2000c322 <_dtoa_r+0x3ba>
2000cd10:	9a0e      	ldr	r2, [sp, #56]	@ 0x38
2000cd12:	4620      	mov	r0, r4
2000cd14:	9909      	ldr	r1, [sp, #36]	@ 0x24
2000cd16:	f000 fb09 	bl	2000d32c <__pow5mult>
2000cd1a:	2300      	movs	r3, #0
2000cd1c:	f8dd 8028 	ldr.w	r8, [sp, #40]	@ 0x28
2000cd20:	461e      	mov	r6, r3
2000cd22:	9009      	str	r0, [sp, #36]	@ 0x24
2000cd24:	930e      	str	r3, [sp, #56]	@ 0x38
2000cd26:	f7ff ba92 	b.w	2000c24e <_dtoa_r+0x2e6>
2000cd2a:	9b0e      	ldr	r3, [sp, #56]	@ 0x38
2000cd2c:	2101      	movs	r1, #1
2000cd2e:	9a0f      	ldr	r2, [sp, #60]	@ 0x3c
2000cd30:	4620      	mov	r0, r4
2000cd32:	1aeb      	subs	r3, r5, r3
2000cd34:	9f0b      	ldr	r7, [sp, #44]	@ 0x2c
2000cd36:	441a      	add	r2, r3
2000cd38:	9b08      	ldr	r3, [sp, #32]
2000cd3a:	443b      	add	r3, r7
2000cd3c:	920f      	str	r2, [sp, #60]	@ 0x3c
2000cd3e:	9308      	str	r3, [sp, #32]
2000cd40:	f000 fa12 	bl	2000d168 <__i2b>
2000cd44:	9b0a      	ldr	r3, [sp, #40]	@ 0x28
2000cd46:	4606      	mov	r6, r0
2000cd48:	2b00      	cmp	r3, #0
2000cd4a:	f040 8083 	bne.w	2000ce54 <_dtoa_r+0xeec>
2000cd4e:	4698      	mov	r8, r3
2000cd50:	970a      	str	r7, [sp, #40]	@ 0x28
2000cd52:	462a      	mov	r2, r5
2000cd54:	9909      	ldr	r1, [sp, #36]	@ 0x24
2000cd56:	4620      	mov	r0, r4
2000cd58:	f000 fae8 	bl	2000d32c <__pow5mult>
2000cd5c:	2301      	movs	r3, #1
2000cd5e:	9009      	str	r0, [sp, #36]	@ 0x24
2000cd60:	930e      	str	r3, [sp, #56]	@ 0x38
2000cd62:	f7ff ba74 	b.w	2000c24e <_dtoa_r+0x2e6>
2000cd66:	9b04      	ldr	r3, [sp, #16]
2000cd68:	2b00      	cmp	r3, #0
2000cd6a:	f47f ad89 	bne.w	2000c880 <_dtoa_r+0x918>
2000cd6e:	e9dd 1204 	ldrd	r1, r2, [sp, #16]
2000cd72:	f3c2 0313 	ubfx	r3, r2, #0, #20
2000cd76:	2b00      	cmp	r3, #0
2000cd78:	f000 809e 	beq.w	2000ceb8 <_dtoa_r+0xf50>
2000cd7c:	910f      	str	r1, [sp, #60]	@ 0x3c
2000cd7e:	e581      	b.n	2000c884 <_dtoa_r+0x91c>
2000cd80:	9a07      	ldr	r2, [sp, #28]
2000cd82:	4b74      	ldr	r3, [pc, #464]	@ (2000cf54 <_dtoa_r+0xfec>)
2000cd84:	eb03 03c2 	add.w	r3, r3, r2, lsl #3
2000cd88:	f04f 32ff 	mov.w	r2, #4294967295
2000cd8c:	ed93 7b00 	vldr	d7, [r3]
2000cd90:	920b      	str	r2, [sp, #44]	@ 0x2c
2000cd92:	ed8d 7b04 	vstr	d7, [sp, #16]
2000cd96:	9b06      	ldr	r3, [sp, #24]
2000cd98:	1c5d      	adds	r5, r3, #1
2000cd9a:	e63c      	b.n	2000ca16 <_dtoa_r+0xaae>
2000cd9c:	d103      	bne.n	2000cda6 <_dtoa_r+0xe3e>
2000cd9e:	9b02      	ldr	r3, [sp, #8]
2000cda0:	07d8      	lsls	r0, r3, #31
2000cda2:	f53f ad00 	bmi.w	2000c7a6 <_dtoa_r+0x83e>
2000cda6:	46c3      	mov	fp, r8
2000cda8:	f818 3d01 	ldrb.w	r3, [r8, #-1]!
2000cdac:	2b30      	cmp	r3, #48	@ 0x30
2000cdae:	d0fa      	beq.n	2000cda6 <_dtoa_r+0xe3e>
2000cdb0:	e508      	b.n	2000c7c4 <_dtoa_r+0x85c>
2000cdb2:	2331      	movs	r3, #49	@ 0x31
2000cdb4:	9a06      	ldr	r2, [sp, #24]
2000cdb6:	f10a 0a01 	add.w	sl, sl, #1
2000cdba:	7013      	strb	r3, [r2, #0]
2000cdbc:	e502      	b.n	2000c7c4 <_dtoa_r+0x85c>
2000cdbe:	9b18      	ldr	r3, [sp, #96]	@ 0x60
2000cdc0:	9206      	str	r2, [sp, #24]
2000cdc2:	3301      	adds	r3, #1
2000cdc4:	9318      	str	r3, [sp, #96]	@ 0x60
2000cdc6:	2331      	movs	r3, #49	@ 0x31
2000cdc8:	e402      	b.n	2000c5d0 <_dtoa_r+0x668>
2000cdca:	9d0e      	ldr	r5, [sp, #56]	@ 0x38
2000cdcc:	e7c1      	b.n	2000cd52 <_dtoa_r+0xdea>
2000cdce:	9c0c      	ldr	r4, [sp, #48]	@ 0x30
2000cdd0:	9b18      	ldr	r3, [sp, #96]	@ 0x60
2000cdd2:	46ab      	mov	fp, r5
2000cdd4:	f103 0a01 	add.w	sl, r3, #1
2000cdd8:	f7ff baa3 	b.w	2000c322 <_dtoa_r+0x3ba>
2000cddc:	4635      	mov	r5, r6
2000cdde:	9a06      	ldr	r2, [sp, #24]
2000cde0:	f7ff bbee 	b.w	2000c5c0 <_dtoa_r+0x658>
2000cde4:	6871      	ldr	r1, [r6, #4]
2000cde6:	4620      	mov	r0, r4
2000cde8:	f000 f8d2 	bl	2000cf90 <_Balloc>
2000cdec:	4605      	mov	r5, r0
2000cdee:	2800      	cmp	r0, #0
2000cdf0:	f000 80a1 	beq.w	2000cf36 <_dtoa_r+0xfce>
2000cdf4:	6933      	ldr	r3, [r6, #16]
2000cdf6:	f106 010c 	add.w	r1, r6, #12
2000cdfa:	300c      	adds	r0, #12
2000cdfc:	3302      	adds	r3, #2
2000cdfe:	009a      	lsls	r2, r3, #2
2000ce00:	f7fc fc6e 	bl	200096e0 <memcpy>
2000ce04:	4629      	mov	r1, r5
2000ce06:	2201      	movs	r2, #1
2000ce08:	4620      	mov	r0, r4
2000ce0a:	f000 faef 	bl	2000d3ec <__lshift>
2000ce0e:	4681      	mov	r9, r0
2000ce10:	e67f      	b.n	2000cb12 <_dtoa_r+0xbaa>
2000ce12:	9c02      	ldr	r4, [sp, #8]
2000ce14:	4602      	mov	r2, r0
2000ce16:	460b      	mov	r3, r1
2000ce18:	f7f7 f95a 	bl	200040d0 <__wrap___aeabi_dadd>
2000ce1c:	9b07      	ldr	r3, [sp, #28]
2000ce1e:	4606      	mov	r6, r0
2000ce20:	460f      	mov	r7, r1
2000ce22:	f103 0a01 	add.w	sl, r3, #1
2000ce26:	e9dd 2304 	ldrd	r2, r3, [sp, #16]
2000ce2a:	f7f7 fa6f 	bl	2000430c <__wrap___aeabi_dcmpgt>
2000ce2e:	b948      	cbnz	r0, 2000ce44 <_dtoa_r+0xedc>
2000ce30:	4630      	mov	r0, r6
2000ce32:	4639      	mov	r1, r7
2000ce34:	e9dd 2304 	ldrd	r2, r3, [sp, #16]
2000ce38:	f7f7 fa2e 	bl	20004298 <__wrap___aeabi_dcmpeq>
2000ce3c:	b138      	cbz	r0, 2000ce4e <_dtoa_r+0xee6>
2000ce3e:	f018 0f01 	tst.w	r8, #1
2000ce42:	d004      	beq.n	2000ce4e <_dtoa_r+0xee6>
2000ce44:	9b07      	ldr	r3, [sp, #28]
2000ce46:	9a06      	ldr	r2, [sp, #24]
2000ce48:	9318      	str	r3, [sp, #96]	@ 0x60
2000ce4a:	f7ff bbb9 	b.w	2000c5c0 <_dtoa_r+0x658>
2000ce4e:	46ab      	mov	fp, r5
2000ce50:	f7ff ba67 	b.w	2000c322 <_dtoa_r+0x3ba>
2000ce54:	990a      	ldr	r1, [sp, #40]	@ 0x28
2000ce56:	9a08      	ldr	r2, [sp, #32]
2000ce58:	428a      	cmp	r2, r1
2000ce5a:	4613      	mov	r3, r2
2000ce5c:	bfa8      	it	ge
2000ce5e:	460b      	movge	r3, r1
2000ce60:	1ad2      	subs	r2, r2, r3
2000ce62:	eba1 0803 	sub.w	r8, r1, r3
2000ce66:	9208      	str	r2, [sp, #32]
2000ce68:	9a0b      	ldr	r2, [sp, #44]	@ 0x2c
2000ce6a:	188a      	adds	r2, r1, r2
2000ce6c:	1ad3      	subs	r3, r2, r3
2000ce6e:	930a      	str	r3, [sp, #40]	@ 0x28
2000ce70:	e76f      	b.n	2000cd52 <_dtoa_r+0xdea>
2000ce72:	4b39      	ldr	r3, [pc, #228]	@ (2000cf58 <_dtoa_r+0xff0>)
2000ce74:	2200      	movs	r2, #0
2000ce76:	f240 11af 	movw	r1, #431	@ 0x1af
2000ce7a:	4838      	ldr	r0, [pc, #224]	@ (2000cf5c <_dtoa_r+0xff4>)
2000ce7c:	f7f7 fad2 	bl	20004424 <__assert_func>
2000ce80:	9a07      	ldr	r2, [sp, #28]
2000ce82:	4635      	mov	r5, r6
2000ce84:	9709      	str	r7, [sp, #36]	@ 0x24
2000ce86:	465b      	mov	r3, fp
2000ce88:	9f02      	ldr	r7, [sp, #8]
2000ce8a:	f102 0a01 	add.w	sl, r2, #1
2000ce8e:	464e      	mov	r6, r9
2000ce90:	e47c      	b.n	2000c78c <_dtoa_r+0x824>
2000ce92:	9b07      	ldr	r3, [sp, #28]
2000ce94:	46a8      	mov	r8, r5
2000ce96:	9a06      	ldr	r2, [sp, #24]
2000ce98:	4635      	mov	r5, r6
2000ce9a:	f103 0a01 	add.w	sl, r3, #1
2000ce9e:	2339      	movs	r3, #57	@ 0x39
2000cea0:	464e      	mov	r6, r9
2000cea2:	f808 3b01 	strb.w	r3, [r8], #1
2000cea6:	e483      	b.n	2000c7b0 <_dtoa_r+0x848>
2000cea8:	461a      	mov	r2, r3
2000ceaa:	9709      	str	r7, [sp, #36]	@ 0x24
2000ceac:	465b      	mov	r3, fp
2000ceae:	9f02      	ldr	r7, [sp, #8]
2000ceb0:	2a00      	cmp	r2, #0
2000ceb2:	f73f ae97 	bgt.w	2000cbe4 <_dtoa_r+0xc7c>
2000ceb6:	e6a8      	b.n	2000cc0a <_dtoa_r+0xca2>
2000ceb8:	9b05      	ldr	r3, [sp, #20]
2000ceba:	f023 4300 	bic.w	r3, r3, #2147483648	@ 0x80000000
2000cebe:	0d1b      	lsrs	r3, r3, #20
2000cec0:	051b      	lsls	r3, r3, #20
2000cec2:	2b00      	cmp	r3, #0
2000cec4:	f43f acdd 	beq.w	2000c882 <_dtoa_r+0x91a>
2000cec8:	9b0a      	ldr	r3, [sp, #40]	@ 0x28
2000ceca:	3301      	adds	r3, #1
2000cecc:	930a      	str	r3, [sp, #40]	@ 0x28
2000cece:	9b08      	ldr	r3, [sp, #32]
2000ced0:	3301      	adds	r3, #1
2000ced2:	9308      	str	r3, [sp, #32]
2000ced4:	2301      	movs	r3, #1
2000ced6:	930f      	str	r3, [sp, #60]	@ 0x3c
2000ced8:	e4d4      	b.n	2000c884 <_dtoa_r+0x91c>
2000ceda:	9709      	str	r7, [sp, #36]	@ 0x24
2000cedc:	465b      	mov	r3, fp
2000cede:	9f02      	ldr	r7, [sp, #8]
2000cee0:	e693      	b.n	2000cc0a <_dtoa_r+0xca2>
2000cee2:	465b      	mov	r3, fp
2000cee4:	9709      	str	r7, [sp, #36]	@ 0x24
2000cee6:	9f02      	ldr	r7, [sp, #8]
2000cee8:	2b39      	cmp	r3, #57	@ 0x39
2000ceea:	d0d2      	beq.n	2000ce92 <_dtoa_r+0xf2a>
2000ceec:	f1b8 0f00 	cmp.w	r8, #0
2000cef0:	f73f ae89 	bgt.w	2000cc06 <_dtoa_r+0xc9e>
2000cef4:	e689      	b.n	2000cc0a <_dtoa_r+0xca2>
2000cef6:	9b11      	ldr	r3, [sp, #68]	@ 0x44
2000cef8:	f8cd 901c 	str.w	r9, [sp, #28]
2000cefc:	930b      	str	r3, [sp, #44]	@ 0x2c
2000cefe:	f7ff b9ec 	b.w	2000c2da <_dtoa_r+0x372>
2000cf02:	462e      	mov	r6, r5
2000cf04:	e55c      	b.n	2000c9c0 <_dtoa_r+0xa58>
2000cf06:	9b08      	ldr	r3, [sp, #32]
2000cf08:	9a0b      	ldr	r2, [sp, #44]	@ 0x2c
2000cf0a:	4413      	add	r3, r2
2000cf0c:	9308      	str	r3, [sp, #32]
2000cf0e:	9b0a      	ldr	r3, [sp, #40]	@ 0x28
2000cf10:	4698      	mov	r8, r3
2000cf12:	4413      	add	r3, r2
2000cf14:	930a      	str	r3, [sp, #40]	@ 0x28
2000cf16:	f7ff b964 	b.w	2000c1e2 <_dtoa_r+0x27a>
2000cf1a:	f47f ae76 	bne.w	2000cc0a <_dtoa_r+0xca2>
2000cf1e:	07da      	lsls	r2, r3, #31
2000cf20:	f57f ae73 	bpl.w	2000cc0a <_dtoa_r+0xca2>
2000cf24:	e66c      	b.n	2000cc00 <_dtoa_r+0xc98>
2000cf26:	f04f 0902 	mov.w	r9, #2
2000cf2a:	f7ff baaa 	b.w	2000c482 <_dtoa_r+0x51a>
2000cf2e:	2100      	movs	r1, #0
2000cf30:	63e1      	str	r1, [r4, #60]	@ 0x3c
2000cf32:	f7ff ba60 	b.w	2000c3f6 <_dtoa_r+0x48e>
2000cf36:	4602      	mov	r2, r0
2000cf38:	4b07      	ldr	r3, [pc, #28]	@ (2000cf58 <_dtoa_r+0xff0>)
2000cf3a:	f240 21ef 	movw	r1, #751	@ 0x2ef
2000cf3e:	4807      	ldr	r0, [pc, #28]	@ (2000cf5c <_dtoa_r+0xff4>)
2000cf40:	f7f7 fa70 	bl	20004424 <__assert_func>
2000cf44:	4b06      	ldr	r3, [pc, #24]	@ (2000cf60 <_dtoa_r+0xff8>)
2000cf46:	9306      	str	r3, [sp, #24]
2000cf48:	f7ff b843 	b.w	2000bfd2 <_dtoa_r+0x6a>
2000cf4c:	40240000 	.word	0x40240000
2000cf50:	401c0000 	.word	0x401c0000
2000cf54:	2000f7e0 	.word	0x2000f7e0
2000cf58:	2000ec2c 	.word	0x2000ec2c
2000cf5c:	2000ec40 	.word	0x2000ec40
2000cf60:	2000ec1c 	.word	0x2000ec1c

2000cf64 <__ascii_mbtowc>:
2000cf64:	b082      	sub	sp, #8
2000cf66:	b149      	cbz	r1, 2000cf7c <__ascii_mbtowc+0x18>
2000cf68:	b15a      	cbz	r2, 2000cf82 <__ascii_mbtowc+0x1e>
2000cf6a:	b16b      	cbz	r3, 2000cf88 <__ascii_mbtowc+0x24>
2000cf6c:	7813      	ldrb	r3, [r2, #0]
2000cf6e:	600b      	str	r3, [r1, #0]
2000cf70:	7812      	ldrb	r2, [r2, #0]
2000cf72:	1e10      	subs	r0, r2, #0
2000cf74:	bf18      	it	ne
2000cf76:	2001      	movne	r0, #1
2000cf78:	b002      	add	sp, #8
2000cf7a:	4770      	bx	lr
2000cf7c:	a901      	add	r1, sp, #4
2000cf7e:	2a00      	cmp	r2, #0
2000cf80:	d1f3      	bne.n	2000cf6a <__ascii_mbtowc+0x6>
2000cf82:	4610      	mov	r0, r2
2000cf84:	b002      	add	sp, #8
2000cf86:	4770      	bx	lr
2000cf88:	f06f 0001 	mvn.w	r0, #1
2000cf8c:	e7f4      	b.n	2000cf78 <__ascii_mbtowc+0x14>
2000cf8e:	bf00      	nop

2000cf90 <_Balloc>:
2000cf90:	b538      	push	{r3, r4, r5, lr}
2000cf92:	6c43      	ldr	r3, [r0, #68]	@ 0x44
2000cf94:	4605      	mov	r5, r0
2000cf96:	460c      	mov	r4, r1
2000cf98:	b14b      	cbz	r3, 2000cfae <_Balloc+0x1e>
2000cf9a:	f853 0024 	ldr.w	r0, [r3, r4, lsl #2]
2000cf9e:	b180      	cbz	r0, 2000cfc2 <_Balloc+0x32>
2000cfa0:	6802      	ldr	r2, [r0, #0]
2000cfa2:	f843 2024 	str.w	r2, [r3, r4, lsl #2]
2000cfa6:	2300      	movs	r3, #0
2000cfa8:	e9c0 3303 	strd	r3, r3, [r0, #12]
2000cfac:	bd38      	pop	{r3, r4, r5, pc}
2000cfae:	2221      	movs	r2, #33	@ 0x21
2000cfb0:	2104      	movs	r1, #4
2000cfb2:	f7fb fc95 	bl	200088e0 <_calloc_r>
2000cfb6:	4603      	mov	r3, r0
2000cfb8:	6468      	str	r0, [r5, #68]	@ 0x44
2000cfba:	2800      	cmp	r0, #0
2000cfbc:	d1ed      	bne.n	2000cf9a <_Balloc+0xa>
2000cfbe:	2000      	movs	r0, #0
2000cfc0:	bd38      	pop	{r3, r4, r5, pc}
2000cfc2:	2101      	movs	r1, #1
2000cfc4:	4628      	mov	r0, r5
2000cfc6:	fa01 f504 	lsl.w	r5, r1, r4
2000cfca:	1d6a      	adds	r2, r5, #5
2000cfcc:	0092      	lsls	r2, r2, #2
2000cfce:	f7fb fc87 	bl	200088e0 <_calloc_r>
2000cfd2:	2800      	cmp	r0, #0
2000cfd4:	d0f3      	beq.n	2000cfbe <_Balloc+0x2e>
2000cfd6:	e9c0 4501 	strd	r4, r5, [r0, #4]
2000cfda:	e7e4      	b.n	2000cfa6 <_Balloc+0x16>

2000cfdc <_Bfree>:
2000cfdc:	b131      	cbz	r1, 2000cfec <_Bfree+0x10>
2000cfde:	6c43      	ldr	r3, [r0, #68]	@ 0x44
2000cfe0:	684a      	ldr	r2, [r1, #4]
2000cfe2:	f853 0022 	ldr.w	r0, [r3, r2, lsl #2]
2000cfe6:	6008      	str	r0, [r1, #0]
2000cfe8:	f843 1022 	str.w	r1, [r3, r2, lsl #2]
2000cfec:	4770      	bx	lr
2000cfee:	bf00      	nop

2000cff0 <__multadd>:
2000cff0:	e92d 41f0 	stmdb	sp!, {r4, r5, r6, r7, r8, lr}
2000cff4:	4607      	mov	r7, r0
2000cff6:	460e      	mov	r6, r1
2000cff8:	461c      	mov	r4, r3
2000cffa:	690d      	ldr	r5, [r1, #16]
2000cffc:	f101 0e14 	add.w	lr, r1, #20
2000d000:	2000      	movs	r0, #0
2000d002:	f8de 1000 	ldr.w	r1, [lr]
2000d006:	3001      	adds	r0, #1
2000d008:	b28b      	uxth	r3, r1
2000d00a:	4285      	cmp	r5, r0
2000d00c:	ea4f 4111 	mov.w	r1, r1, lsr #16
2000d010:	fb02 4303 	mla	r3, r2, r3, r4
2000d014:	ea4f 4c13 	mov.w	ip, r3, lsr #16
2000d018:	b29b      	uxth	r3, r3
2000d01a:	fb02 cc01 	mla	ip, r2, r1, ip
2000d01e:	eb03 430c 	add.w	r3, r3, ip, lsl #16
2000d022:	ea4f 441c 	mov.w	r4, ip, lsr #16
2000d026:	f84e 3b04 	str.w	r3, [lr], #4
2000d02a:	dcea      	bgt.n	2000d002 <__multadd+0x12>
2000d02c:	b13c      	cbz	r4, 2000d03e <__multadd+0x4e>
2000d02e:	68b3      	ldr	r3, [r6, #8]
2000d030:	42ab      	cmp	r3, r5
2000d032:	dd07      	ble.n	2000d044 <__multadd+0x54>
2000d034:	eb06 0385 	add.w	r3, r6, r5, lsl #2
2000d038:	3501      	adds	r5, #1
2000d03a:	615c      	str	r4, [r3, #20]
2000d03c:	6135      	str	r5, [r6, #16]
2000d03e:	4630      	mov	r0, r6
2000d040:	e8bd 81f0 	ldmia.w	sp!, {r4, r5, r6, r7, r8, pc}
2000d044:	6871      	ldr	r1, [r6, #4]
2000d046:	4638      	mov	r0, r7
2000d048:	3101      	adds	r1, #1
2000d04a:	f7ff ffa1 	bl	2000cf90 <_Balloc>
2000d04e:	4680      	mov	r8, r0
2000d050:	b1a8      	cbz	r0, 2000d07e <__multadd+0x8e>
2000d052:	6932      	ldr	r2, [r6, #16]
2000d054:	f106 010c 	add.w	r1, r6, #12
2000d058:	300c      	adds	r0, #12
2000d05a:	3202      	adds	r2, #2
2000d05c:	0092      	lsls	r2, r2, #2
2000d05e:	f7fc fb3f 	bl	200096e0 <memcpy>
2000d062:	6c7b      	ldr	r3, [r7, #68]	@ 0x44
2000d064:	6872      	ldr	r2, [r6, #4]
2000d066:	f853 1022 	ldr.w	r1, [r3, r2, lsl #2]
2000d06a:	6031      	str	r1, [r6, #0]
2000d06c:	f843 6022 	str.w	r6, [r3, r2, lsl #2]
2000d070:	4646      	mov	r6, r8
2000d072:	eb06 0385 	add.w	r3, r6, r5, lsl #2
2000d076:	3501      	adds	r5, #1
2000d078:	615c      	str	r4, [r3, #20]
2000d07a:	6135      	str	r5, [r6, #16]
2000d07c:	e7df      	b.n	2000d03e <__multadd+0x4e>
2000d07e:	4602      	mov	r2, r0
2000d080:	4b02      	ldr	r3, [pc, #8]	@ (2000d08c <__multadd+0x9c>)
2000d082:	21ba      	movs	r1, #186	@ 0xba
2000d084:	4802      	ldr	r0, [pc, #8]	@ (2000d090 <__multadd+0xa0>)
2000d086:	f7f7 f9cd 	bl	20004424 <__assert_func>
2000d08a:	bf00      	nop
2000d08c:	2000ec2c 	.word	0x2000ec2c
2000d090:	2000ec9c 	.word	0x2000ec9c

2000d094 <__hi0bits>:
2000d094:	f5b0 3f80 	cmp.w	r0, #65536	@ 0x10000
2000d098:	4603      	mov	r3, r0
2000d09a:	d210      	bcs.n	2000d0be <__hi0bits+0x2a>
2000d09c:	0403      	lsls	r3, r0, #16
2000d09e:	2010      	movs	r0, #16
2000d0a0:	f1b3 7f80 	cmp.w	r3, #16777216	@ 0x1000000
2000d0a4:	d201      	bcs.n	2000d0aa <__hi0bits+0x16>
2000d0a6:	3008      	adds	r0, #8
2000d0a8:	021b      	lsls	r3, r3, #8
2000d0aa:	f1b3 5f80 	cmp.w	r3, #268435456	@ 0x10000000
2000d0ae:	d308      	bcc.n	2000d0c2 <__hi0bits+0x2e>
2000d0b0:	f1b3 4f80 	cmp.w	r3, #1073741824	@ 0x40000000
2000d0b4:	d210      	bcs.n	2000d0d8 <__hi0bits+0x44>
2000d0b6:	009a      	lsls	r2, r3, #2
2000d0b8:	d413      	bmi.n	2000d0e2 <__hi0bits+0x4e>
2000d0ba:	3003      	adds	r0, #3
2000d0bc:	4770      	bx	lr
2000d0be:	2000      	movs	r0, #0
2000d0c0:	e7ee      	b.n	2000d0a0 <__hi0bits+0xc>
2000d0c2:	011a      	lsls	r2, r3, #4
2000d0c4:	3004      	adds	r0, #4
2000d0c6:	f1b2 4f80 	cmp.w	r2, #1073741824	@ 0x40000000
2000d0ca:	d206      	bcs.n	2000d0da <__hi0bits+0x46>
2000d0cc:	019b      	lsls	r3, r3, #6
2000d0ce:	d408      	bmi.n	2000d0e2 <__hi0bits+0x4e>
2000d0d0:	005b      	lsls	r3, r3, #1
2000d0d2:	d4f2      	bmi.n	2000d0ba <__hi0bits+0x26>
2000d0d4:	2020      	movs	r0, #32
2000d0d6:	4770      	bx	lr
2000d0d8:	461a      	mov	r2, r3
2000d0da:	2a00      	cmp	r2, #0
2000d0dc:	dbfb      	blt.n	2000d0d6 <__hi0bits+0x42>
2000d0de:	3001      	adds	r0, #1
2000d0e0:	4770      	bx	lr
2000d0e2:	3002      	adds	r0, #2
2000d0e4:	4770      	bx	lr
2000d0e6:	bf00      	nop

2000d0e8 <__lo0bits>:
2000d0e8:	6803      	ldr	r3, [r0, #0]
2000d0ea:	4602      	mov	r2, r0
2000d0ec:	0759      	lsls	r1, r3, #29
2000d0ee:	d007      	beq.n	2000d100 <__lo0bits+0x18>
2000d0f0:	07d8      	lsls	r0, r3, #31
2000d0f2:	d41d      	bmi.n	2000d130 <__lo0bits+0x48>
2000d0f4:	0799      	lsls	r1, r3, #30
2000d0f6:	d52a      	bpl.n	2000d14e <__lo0bits+0x66>
2000d0f8:	085b      	lsrs	r3, r3, #1
2000d0fa:	2001      	movs	r0, #1
2000d0fc:	6013      	str	r3, [r2, #0]
2000d0fe:	4770      	bx	lr
2000d100:	b299      	uxth	r1, r3
2000d102:	b979      	cbnz	r1, 2000d124 <__lo0bits+0x3c>
2000d104:	0c1b      	lsrs	r3, r3, #16
2000d106:	b2d9      	uxtb	r1, r3
2000d108:	b1a1      	cbz	r1, 2000d134 <__lo0bits+0x4c>
2000d10a:	2010      	movs	r0, #16
2000d10c:	0719      	lsls	r1, r3, #28
2000d10e:	d101      	bne.n	2000d114 <__lo0bits+0x2c>
2000d110:	3004      	adds	r0, #4
2000d112:	091b      	lsrs	r3, r3, #4
2000d114:	0799      	lsls	r1, r3, #30
2000d116:	d012      	beq.n	2000d13e <__lo0bits+0x56>
2000d118:	07d9      	lsls	r1, r3, #31
2000d11a:	d401      	bmi.n	2000d120 <__lo0bits+0x38>
2000d11c:	3001      	adds	r0, #1
2000d11e:	085b      	lsrs	r3, r3, #1
2000d120:	6013      	str	r3, [r2, #0]
2000d122:	4770      	bx	lr
2000d124:	b2d9      	uxtb	r1, r3
2000d126:	b141      	cbz	r1, 2000d13a <__lo0bits+0x52>
2000d128:	0718      	lsls	r0, r3, #28
2000d12a:	d118      	bne.n	2000d15e <__lo0bits+0x76>
2000d12c:	2004      	movs	r0, #4
2000d12e:	e7f0      	b.n	2000d112 <__lo0bits+0x2a>
2000d130:	2000      	movs	r0, #0
2000d132:	4770      	bx	lr
2000d134:	2018      	movs	r0, #24
2000d136:	0a1b      	lsrs	r3, r3, #8
2000d138:	e7e8      	b.n	2000d10c <__lo0bits+0x24>
2000d13a:	2008      	movs	r0, #8
2000d13c:	e7fb      	b.n	2000d136 <__lo0bits+0x4e>
2000d13e:	f013 0f04 	tst.w	r3, #4
2000d142:	ea4f 0193 	mov.w	r1, r3, lsr #2
2000d146:	d006      	beq.n	2000d156 <__lo0bits+0x6e>
2000d148:	3002      	adds	r0, #2
2000d14a:	460b      	mov	r3, r1
2000d14c:	e7e8      	b.n	2000d120 <__lo0bits+0x38>
2000d14e:	089b      	lsrs	r3, r3, #2
2000d150:	2002      	movs	r0, #2
2000d152:	6013      	str	r3, [r2, #0]
2000d154:	4770      	bx	lr
2000d156:	08db      	lsrs	r3, r3, #3
2000d158:	d104      	bne.n	2000d164 <__lo0bits+0x7c>
2000d15a:	2020      	movs	r0, #32
2000d15c:	4770      	bx	lr
2000d15e:	08db      	lsrs	r3, r3, #3
2000d160:	2003      	movs	r0, #3
2000d162:	e7dd      	b.n	2000d120 <__lo0bits+0x38>
2000d164:	3003      	adds	r0, #3
2000d166:	e7db      	b.n	2000d120 <__lo0bits+0x38>

2000d168 <__i2b>:
2000d168:	b538      	push	{r3, r4, r5, lr}
2000d16a:	6c43      	ldr	r3, [r0, #68]	@ 0x44
2000d16c:	4604      	mov	r4, r0
2000d16e:	460d      	mov	r5, r1
2000d170:	b14b      	cbz	r3, 2000d186 <__i2b+0x1e>
2000d172:	6858      	ldr	r0, [r3, #4]
2000d174:	b1b0      	cbz	r0, 2000d1a4 <__i2b+0x3c>
2000d176:	6802      	ldr	r2, [r0, #0]
2000d178:	605a      	str	r2, [r3, #4]
2000d17a:	2200      	movs	r2, #0
2000d17c:	2301      	movs	r3, #1
2000d17e:	6145      	str	r5, [r0, #20]
2000d180:	e9c0 2303 	strd	r2, r3, [r0, #12]
2000d184:	bd38      	pop	{r3, r4, r5, pc}
2000d186:	2221      	movs	r2, #33	@ 0x21
2000d188:	2104      	movs	r1, #4
2000d18a:	f7fb fba9 	bl	200088e0 <_calloc_r>
2000d18e:	4603      	mov	r3, r0
2000d190:	6460      	str	r0, [r4, #68]	@ 0x44
2000d192:	2800      	cmp	r0, #0
2000d194:	d1ed      	bne.n	2000d172 <__i2b+0xa>
2000d196:	4b09      	ldr	r3, [pc, #36]	@ (2000d1bc <__i2b+0x54>)
2000d198:	2200      	movs	r2, #0
2000d19a:	f240 1145 	movw	r1, #325	@ 0x145
2000d19e:	4808      	ldr	r0, [pc, #32]	@ (2000d1c0 <__i2b+0x58>)
2000d1a0:	f7f7 f940 	bl	20004424 <__assert_func>
2000d1a4:	221c      	movs	r2, #28
2000d1a6:	2101      	movs	r1, #1
2000d1a8:	4620      	mov	r0, r4
2000d1aa:	f7fb fb99 	bl	200088e0 <_calloc_r>
2000d1ae:	2800      	cmp	r0, #0
2000d1b0:	d0f1      	beq.n	2000d196 <__i2b+0x2e>
2000d1b2:	2201      	movs	r2, #1
2000d1b4:	2302      	movs	r3, #2
2000d1b6:	e9c0 2301 	strd	r2, r3, [r0, #4]
2000d1ba:	e7de      	b.n	2000d17a <__i2b+0x12>
2000d1bc:	2000ec2c 	.word	0x2000ec2c
2000d1c0:	2000ec9c 	.word	0x2000ec9c

2000d1c4 <__multiply>:
2000d1c4:	e92d 4ff0 	stmdb	sp!, {r4, r5, r6, r7, r8, r9, sl, fp, lr}
2000d1c8:	f8d1 8010 	ldr.w	r8, [r1, #16]
2000d1cc:	b085      	sub	sp, #20
2000d1ce:	6915      	ldr	r5, [r2, #16]
2000d1d0:	460e      	mov	r6, r1
2000d1d2:	4692      	mov	sl, r2
2000d1d4:	45a8      	cmp	r8, r5
2000d1d6:	db05      	blt.n	2000d1e4 <__multiply+0x20>
2000d1d8:	462a      	mov	r2, r5
2000d1da:	4653      	mov	r3, sl
2000d1dc:	4645      	mov	r5, r8
2000d1de:	468a      	mov	sl, r1
2000d1e0:	4690      	mov	r8, r2
2000d1e2:	461e      	mov	r6, r3
2000d1e4:	eb05 0408 	add.w	r4, r5, r8
2000d1e8:	e9da 1301 	ldrd	r1, r3, [sl, #4]
2000d1ec:	42a3      	cmp	r3, r4
2000d1ee:	bfb8      	it	lt
2000d1f0:	3101      	addlt	r1, #1
2000d1f2:	f7ff fecd 	bl	2000cf90 <_Balloc>
2000d1f6:	2800      	cmp	r0, #0
2000d1f8:	f000 808c 	beq.w	2000d314 <__multiply+0x150>
2000d1fc:	f100 0714 	add.w	r7, r0, #20
2000d200:	eb07 0e84 	add.w	lr, r7, r4, lsl #2
2000d204:	4577      	cmp	r7, lr
2000d206:	d205      	bcs.n	2000d214 <__multiply+0x50>
2000d208:	463b      	mov	r3, r7
2000d20a:	2200      	movs	r2, #0
2000d20c:	f843 2b04 	str.w	r2, [r3], #4
2000d210:	459e      	cmp	lr, r3
2000d212:	d8fb      	bhi.n	2000d20c <__multiply+0x48>
2000d214:	3614      	adds	r6, #20
2000d216:	f10a 0914 	add.w	r9, sl, #20
2000d21a:	eb06 0888 	add.w	r8, r6, r8, lsl #2
2000d21e:	eb09 0585 	add.w	r5, r9, r5, lsl #2
2000d222:	4546      	cmp	r6, r8
2000d224:	d269      	bcs.n	2000d2fa <__multiply+0x136>
2000d226:	eba5 030a 	sub.w	r3, r5, sl
2000d22a:	f10a 0a15 	add.w	sl, sl, #21
2000d22e:	f8cd e008 	str.w	lr, [sp, #8]
2000d232:	46ae      	mov	lr, r5
2000d234:	3b15      	subs	r3, #21
2000d236:	9403      	str	r4, [sp, #12]
2000d238:	f023 0303 	bic.w	r3, r3, #3
2000d23c:	45aa      	cmp	sl, r5
2000d23e:	bf94      	ite	ls
2000d240:	469b      	movls	fp, r3
2000d242:	f04f 0b00 	movhi.w	fp, #0
2000d246:	4682      	mov	sl, r0
2000d248:	e005      	b.n	2000d256 <__multiply+0x92>
2000d24a:	0c09      	lsrs	r1, r1, #16
2000d24c:	d12d      	bne.n	2000d2aa <__multiply+0xe6>
2000d24e:	45b0      	cmp	r8, r6
2000d250:	f107 0704 	add.w	r7, r7, #4
2000d254:	d94e      	bls.n	2000d2f4 <__multiply+0x130>
2000d256:	f856 1b04 	ldr.w	r1, [r6], #4
2000d25a:	b28d      	uxth	r5, r1
2000d25c:	2d00      	cmp	r5, #0
2000d25e:	d0f4      	beq.n	2000d24a <__multiply+0x86>
2000d260:	46cc      	mov	ip, r9
2000d262:	463c      	mov	r4, r7
2000d264:	2300      	movs	r3, #0
2000d266:	9601      	str	r6, [sp, #4]
2000d268:	f85c 0b04 	ldr.w	r0, [ip], #4
2000d26c:	6821      	ldr	r1, [r4, #0]
2000d26e:	b286      	uxth	r6, r0
2000d270:	45e6      	cmp	lr, ip
2000d272:	b28a      	uxth	r2, r1
2000d274:	ea4f 4010 	mov.w	r0, r0, lsr #16
2000d278:	fb05 2206 	mla	r2, r5, r6, r2
2000d27c:	ea4f 4111 	mov.w	r1, r1, lsr #16
2000d280:	441a      	add	r2, r3
2000d282:	fb05 1100 	mla	r1, r5, r0, r1
2000d286:	eb01 4112 	add.w	r1, r1, r2, lsr #16
2000d28a:	b292      	uxth	r2, r2
2000d28c:	ea4f 4311 	mov.w	r3, r1, lsr #16
2000d290:	ea42 4201 	orr.w	r2, r2, r1, lsl #16
2000d294:	f844 2b04 	str.w	r2, [r4], #4
2000d298:	d8e6      	bhi.n	2000d268 <__multiply+0xa4>
2000d29a:	9e01      	ldr	r6, [sp, #4]
2000d29c:	eb07 020b 	add.w	r2, r7, fp
2000d2a0:	6053      	str	r3, [r2, #4]
2000d2a2:	f856 1c04 	ldr.w	r1, [r6, #-4]
2000d2a6:	0c09      	lsrs	r1, r1, #16
2000d2a8:	d0d1      	beq.n	2000d24e <__multiply+0x8a>
2000d2aa:	683b      	ldr	r3, [r7, #0]
2000d2ac:	2200      	movs	r2, #0
2000d2ae:	4648      	mov	r0, r9
2000d2b0:	463d      	mov	r5, r7
2000d2b2:	461c      	mov	r4, r3
2000d2b4:	4694      	mov	ip, r2
2000d2b6:	8802      	ldrh	r2, [r0, #0]
2000d2b8:	b29b      	uxth	r3, r3
2000d2ba:	fb01 c202 	mla	r2, r1, r2, ip
2000d2be:	eb02 4214 	add.w	r2, r2, r4, lsr #16
2000d2c2:	ea43 4302 	orr.w	r3, r3, r2, lsl #16
2000d2c6:	f845 3b04 	str.w	r3, [r5], #4
2000d2ca:	f850 3b04 	ldr.w	r3, [r0], #4
2000d2ce:	682c      	ldr	r4, [r5, #0]
2000d2d0:	ea4f 4c13 	mov.w	ip, r3, lsr #16
2000d2d4:	4586      	cmp	lr, r0
2000d2d6:	b2a3      	uxth	r3, r4
2000d2d8:	fb01 330c 	mla	r3, r1, ip, r3
2000d2dc:	eb03 4312 	add.w	r3, r3, r2, lsr #16
2000d2e0:	ea4f 4c13 	mov.w	ip, r3, lsr #16
2000d2e4:	d8e7      	bhi.n	2000d2b6 <__multiply+0xf2>
2000d2e6:	eb07 020b 	add.w	r2, r7, fp
2000d2ea:	45b0      	cmp	r8, r6
2000d2ec:	f107 0704 	add.w	r7, r7, #4
2000d2f0:	6053      	str	r3, [r2, #4]
2000d2f2:	d8b0      	bhi.n	2000d256 <__multiply+0x92>
2000d2f4:	4650      	mov	r0, sl
2000d2f6:	e9dd e402 	ldrd	lr, r4, [sp, #8]
2000d2fa:	2c00      	cmp	r4, #0
2000d2fc:	dc02      	bgt.n	2000d304 <__multiply+0x140>
2000d2fe:	e005      	b.n	2000d30c <__multiply+0x148>
2000d300:	3c01      	subs	r4, #1
2000d302:	d003      	beq.n	2000d30c <__multiply+0x148>
2000d304:	f85e 3d04 	ldr.w	r3, [lr, #-4]!
2000d308:	2b00      	cmp	r3, #0
2000d30a:	d0f9      	beq.n	2000d300 <__multiply+0x13c>
2000d30c:	6104      	str	r4, [r0, #16]
2000d30e:	b005      	add	sp, #20
2000d310:	e8bd 8ff0 	ldmia.w	sp!, {r4, r5, r6, r7, r8, r9, sl, fp, pc}
2000d314:	4602      	mov	r2, r0
2000d316:	4b03      	ldr	r3, [pc, #12]	@ (2000d324 <__multiply+0x160>)
2000d318:	f44f 71b1 	mov.w	r1, #354	@ 0x162
2000d31c:	4802      	ldr	r0, [pc, #8]	@ (2000d328 <__multiply+0x164>)
2000d31e:	f7f7 f881 	bl	20004424 <__assert_func>
2000d322:	bf00      	nop
2000d324:	2000ec2c 	.word	0x2000ec2c
2000d328:	2000ec9c 	.word	0x2000ec9c

2000d32c <__pow5mult>:
2000d32c:	f012 0303 	ands.w	r3, r2, #3
2000d330:	e92d 41f0 	stmdb	sp!, {r4, r5, r6, r7, r8, lr}
2000d334:	4614      	mov	r4, r2
2000d336:	4607      	mov	r7, r0
2000d338:	d132      	bne.n	2000d3a0 <__pow5mult+0x74>
2000d33a:	460e      	mov	r6, r1
2000d33c:	10a4      	asrs	r4, r4, #2
2000d33e:	d02c      	beq.n	2000d39a <__pow5mult+0x6e>
2000d340:	6c3d      	ldr	r5, [r7, #64]	@ 0x40
2000d342:	2d00      	cmp	r5, #0
2000d344:	d035      	beq.n	2000d3b2 <__pow5mult+0x86>
2000d346:	f004 0301 	and.w	r3, r4, #1
2000d34a:	f04f 0800 	mov.w	r8, #0
2000d34e:	1064      	asrs	r4, r4, #1
2000d350:	b93b      	cbnz	r3, 2000d362 <__pow5mult+0x36>
2000d352:	6828      	ldr	r0, [r5, #0]
2000d354:	b1b8      	cbz	r0, 2000d386 <__pow5mult+0x5a>
2000d356:	4605      	mov	r5, r0
2000d358:	f004 0301 	and.w	r3, r4, #1
2000d35c:	1064      	asrs	r4, r4, #1
2000d35e:	2b00      	cmp	r3, #0
2000d360:	d0f7      	beq.n	2000d352 <__pow5mult+0x26>
2000d362:	462a      	mov	r2, r5
2000d364:	4631      	mov	r1, r6
2000d366:	4638      	mov	r0, r7
2000d368:	f7ff ff2c 	bl	2000d1c4 <__multiply>
2000d36c:	b136      	cbz	r6, 2000d37c <__pow5mult+0x50>
2000d36e:	6c7b      	ldr	r3, [r7, #68]	@ 0x44
2000d370:	6871      	ldr	r1, [r6, #4]
2000d372:	f853 2021 	ldr.w	r2, [r3, r1, lsl #2]
2000d376:	6032      	str	r2, [r6, #0]
2000d378:	f843 6021 	str.w	r6, [r3, r1, lsl #2]
2000d37c:	b174      	cbz	r4, 2000d39c <__pow5mult+0x70>
2000d37e:	4606      	mov	r6, r0
2000d380:	6828      	ldr	r0, [r5, #0]
2000d382:	2800      	cmp	r0, #0
2000d384:	d1e7      	bne.n	2000d356 <__pow5mult+0x2a>
2000d386:	462a      	mov	r2, r5
2000d388:	4629      	mov	r1, r5
2000d38a:	4638      	mov	r0, r7
2000d38c:	f7ff ff1a 	bl	2000d1c4 <__multiply>
2000d390:	6028      	str	r0, [r5, #0]
2000d392:	4605      	mov	r5, r0
2000d394:	f8c0 8000 	str.w	r8, [r0]
2000d398:	e7de      	b.n	2000d358 <__pow5mult+0x2c>
2000d39a:	4630      	mov	r0, r6
2000d39c:	e8bd 81f0 	ldmia.w	sp!, {r4, r5, r6, r7, r8, pc}
2000d3a0:	3b01      	subs	r3, #1
2000d3a2:	4a0f      	ldr	r2, [pc, #60]	@ (2000d3e0 <__pow5mult+0xb4>)
2000d3a4:	f852 2023 	ldr.w	r2, [r2, r3, lsl #2]
2000d3a8:	2300      	movs	r3, #0
2000d3aa:	f7ff fe21 	bl	2000cff0 <__multadd>
2000d3ae:	4606      	mov	r6, r0
2000d3b0:	e7c4      	b.n	2000d33c <__pow5mult+0x10>
2000d3b2:	2101      	movs	r1, #1
2000d3b4:	4638      	mov	r0, r7
2000d3b6:	f7ff fdeb 	bl	2000cf90 <_Balloc>
2000d3ba:	4605      	mov	r5, r0
2000d3bc:	b140      	cbz	r0, 2000d3d0 <__pow5mult+0xa4>
2000d3be:	2301      	movs	r3, #1
2000d3c0:	f240 2271 	movw	r2, #625	@ 0x271
2000d3c4:	e9c0 3204 	strd	r3, r2, [r0, #16]
2000d3c8:	2300      	movs	r3, #0
2000d3ca:	6438      	str	r0, [r7, #64]	@ 0x40
2000d3cc:	6003      	str	r3, [r0, #0]
2000d3ce:	e7ba      	b.n	2000d346 <__pow5mult+0x1a>
2000d3d0:	4602      	mov	r2, r0
2000d3d2:	4b04      	ldr	r3, [pc, #16]	@ (2000d3e4 <__pow5mult+0xb8>)
2000d3d4:	f240 1145 	movw	r1, #325	@ 0x145
2000d3d8:	4803      	ldr	r0, [pc, #12]	@ (2000d3e8 <__pow5mult+0xbc>)
2000d3da:	f7f7 f823 	bl	20004424 <__assert_func>
2000d3de:	bf00      	nop
2000d3e0:	2000f7a8 	.word	0x2000f7a8
2000d3e4:	2000ec2c 	.word	0x2000ec2c
2000d3e8:	2000ec9c 	.word	0x2000ec9c

2000d3ec <__lshift>:
2000d3ec:	e92d 47f0 	stmdb	sp!, {r4, r5, r6, r7, r8, r9, sl, lr}
2000d3f0:	460c      	mov	r4, r1
2000d3f2:	4690      	mov	r8, r2
2000d3f4:	4606      	mov	r6, r0
2000d3f6:	ea4f 1962 	mov.w	r9, r2, asr #5
2000d3fa:	6927      	ldr	r7, [r4, #16]
2000d3fc:	68a3      	ldr	r3, [r4, #8]
2000d3fe:	eb07 1762 	add.w	r7, r7, r2, asr #5
2000d402:	6849      	ldr	r1, [r1, #4]
2000d404:	1c7d      	adds	r5, r7, #1
2000d406:	429d      	cmp	r5, r3
2000d408:	dd03      	ble.n	2000d412 <__lshift+0x26>
2000d40a:	005b      	lsls	r3, r3, #1
2000d40c:	3101      	adds	r1, #1
2000d40e:	429d      	cmp	r5, r3
2000d410:	dcfb      	bgt.n	2000d40a <__lshift+0x1e>
2000d412:	4630      	mov	r0, r6
2000d414:	f7ff fdbc 	bl	2000cf90 <_Balloc>
2000d418:	2800      	cmp	r0, #0
2000d41a:	d04d      	beq.n	2000d4b8 <__lshift+0xcc>
2000d41c:	f1b9 0f00 	cmp.w	r9, #0
2000d420:	f100 0c14 	add.w	ip, r0, #20
2000d424:	dd0b      	ble.n	2000d43e <__lshift+0x52>
2000d426:	f109 0205 	add.w	r2, r9, #5
2000d42a:	4663      	mov	r3, ip
2000d42c:	2100      	movs	r1, #0
2000d42e:	eb00 0282 	add.w	r2, r0, r2, lsl #2
2000d432:	f843 1b04 	str.w	r1, [r3], #4
2000d436:	4293      	cmp	r3, r2
2000d438:	d1fb      	bne.n	2000d432 <__lshift+0x46>
2000d43a:	eb0c 0c89 	add.w	ip, ip, r9, lsl #2
2000d43e:	f104 0314 	add.w	r3, r4, #20
2000d442:	6921      	ldr	r1, [r4, #16]
2000d444:	f018 081f 	ands.w	r8, r8, #31
2000d448:	eb03 0181 	add.w	r1, r3, r1, lsl #2
2000d44c:	d02b      	beq.n	2000d4a6 <__lshift+0xba>
2000d44e:	f1c8 0920 	rsb	r9, r8, #32
2000d452:	46e6      	mov	lr, ip
2000d454:	f04f 0a00 	mov.w	sl, #0
2000d458:	681a      	ldr	r2, [r3, #0]
2000d45a:	fa02 f208 	lsl.w	r2, r2, r8
2000d45e:	ea42 020a 	orr.w	r2, r2, sl
2000d462:	f84e 2b04 	str.w	r2, [lr], #4
2000d466:	f853 2b04 	ldr.w	r2, [r3], #4
2000d46a:	4299      	cmp	r1, r3
2000d46c:	fa22 fa09 	lsr.w	sl, r2, r9
2000d470:	d8f2      	bhi.n	2000d458 <__lshift+0x6c>
2000d472:	1b0b      	subs	r3, r1, r4
2000d474:	f104 0215 	add.w	r2, r4, #21
2000d478:	3b15      	subs	r3, #21
2000d47a:	f023 0303 	bic.w	r3, r3, #3
2000d47e:	4291      	cmp	r1, r2
2000d480:	bf38      	it	cc
2000d482:	2300      	movcc	r3, #0
2000d484:	3304      	adds	r3, #4
2000d486:	f84c a003 	str.w	sl, [ip, r3]
2000d48a:	f1ba 0f00 	cmp.w	sl, #0
2000d48e:	d100      	bne.n	2000d492 <__lshift+0xa6>
2000d490:	463d      	mov	r5, r7
2000d492:	6c73      	ldr	r3, [r6, #68]	@ 0x44
2000d494:	6862      	ldr	r2, [r4, #4]
2000d496:	6105      	str	r5, [r0, #16]
2000d498:	f853 1022 	ldr.w	r1, [r3, r2, lsl #2]
2000d49c:	6021      	str	r1, [r4, #0]
2000d49e:	f843 4022 	str.w	r4, [r3, r2, lsl #2]
2000d4a2:	e8bd 87f0 	ldmia.w	sp!, {r4, r5, r6, r7, r8, r9, sl, pc}
2000d4a6:	f1ac 0c04 	sub.w	ip, ip, #4
2000d4aa:	f853 2b04 	ldr.w	r2, [r3], #4
2000d4ae:	4299      	cmp	r1, r3
2000d4b0:	f84c 2f04 	str.w	r2, [ip, #4]!
2000d4b4:	d8f9      	bhi.n	2000d4aa <__lshift+0xbe>
2000d4b6:	e7eb      	b.n	2000d490 <__lshift+0xa4>
2000d4b8:	4602      	mov	r2, r0
2000d4ba:	4b03      	ldr	r3, [pc, #12]	@ (2000d4c8 <__lshift+0xdc>)
2000d4bc:	f44f 71ef 	mov.w	r1, #478	@ 0x1de
2000d4c0:	4802      	ldr	r0, [pc, #8]	@ (2000d4cc <__lshift+0xe0>)
2000d4c2:	f7f6 ffaf 	bl	20004424 <__assert_func>
2000d4c6:	bf00      	nop
2000d4c8:	2000ec2c 	.word	0x2000ec2c
2000d4cc:	2000ec9c 	.word	0x2000ec9c

2000d4d0 <__mcmp>:
2000d4d0:	4684      	mov	ip, r0
2000d4d2:	690b      	ldr	r3, [r1, #16]
2000d4d4:	6900      	ldr	r0, [r0, #16]
2000d4d6:	1ac0      	subs	r0, r0, r3
2000d4d8:	d116      	bne.n	2000d508 <__mcmp+0x38>
2000d4da:	f10c 0c14 	add.w	ip, ip, #20
2000d4de:	3114      	adds	r1, #20
2000d4e0:	eb0c 0283 	add.w	r2, ip, r3, lsl #2
2000d4e4:	eb01 0383 	add.w	r3, r1, r3, lsl #2
2000d4e8:	b410      	push	{r4}
2000d4ea:	e001      	b.n	2000d4f0 <__mcmp+0x20>
2000d4ec:	4594      	cmp	ip, r2
2000d4ee:	d208      	bcs.n	2000d502 <__mcmp+0x32>
2000d4f0:	f852 4d04 	ldr.w	r4, [r2, #-4]!
2000d4f4:	f853 1d04 	ldr.w	r1, [r3, #-4]!
2000d4f8:	428c      	cmp	r4, r1
2000d4fa:	d0f7      	beq.n	2000d4ec <__mcmp+0x1c>
2000d4fc:	d205      	bcs.n	2000d50a <__mcmp+0x3a>
2000d4fe:	f04f 30ff 	mov.w	r0, #4294967295
2000d502:	f85d 4b04 	ldr.w	r4, [sp], #4
2000d506:	4770      	bx	lr
2000d508:	4770      	bx	lr
2000d50a:	2001      	movs	r0, #1
2000d50c:	f85d 4b04 	ldr.w	r4, [sp], #4
2000d510:	4770      	bx	lr
2000d512:	bf00      	nop

2000d514 <__mdiff>:
2000d514:	e92d 4ff0 	stmdb	sp!, {r4, r5, r6, r7, r8, r9, sl, fp, lr}
2000d518:	6913      	ldr	r3, [r2, #16]
2000d51a:	b083      	sub	sp, #12
2000d51c:	690e      	ldr	r6, [r1, #16]
2000d51e:	4689      	mov	r9, r1
2000d520:	4615      	mov	r5, r2
2000d522:	1af6      	subs	r6, r6, r3
2000d524:	2e00      	cmp	r6, #0
2000d526:	d114      	bne.n	2000d552 <__mdiff+0x3e>
2000d528:	f101 0714 	add.w	r7, r1, #20
2000d52c:	f102 0114 	add.w	r1, r2, #20
2000d530:	eb01 0183 	add.w	r1, r1, r3, lsl #2
2000d534:	eb07 0383 	add.w	r3, r7, r3, lsl #2
2000d538:	e001      	b.n	2000d53e <__mdiff+0x2a>
2000d53a:	429f      	cmp	r7, r3
2000d53c:	d27e      	bcs.n	2000d63c <__mdiff+0x128>
2000d53e:	f853 4d04 	ldr.w	r4, [r3, #-4]!
2000d542:	f851 2d04 	ldr.w	r2, [r1, #-4]!
2000d546:	4294      	cmp	r4, r2
2000d548:	d0f7      	beq.n	2000d53a <__mdiff+0x26>
2000d54a:	f080 8082 	bcs.w	2000d652 <__mdiff+0x13e>
2000d54e:	2601      	movs	r6, #1
2000d550:	e003      	b.n	2000d55a <__mdiff+0x46>
2000d552:	dbfc      	blt.n	2000d54e <__mdiff+0x3a>
2000d554:	2600      	movs	r6, #0
2000d556:	460d      	mov	r5, r1
2000d558:	4691      	mov	r9, r2
2000d55a:	6869      	ldr	r1, [r5, #4]
2000d55c:	f7ff fd18 	bl	2000cf90 <_Balloc>
2000d560:	2800      	cmp	r0, #0
2000d562:	f000 8083 	beq.w	2000d66c <__mdiff+0x158>
2000d566:	692f      	ldr	r7, [r5, #16]
2000d568:	f105 0b14 	add.w	fp, r5, #20
2000d56c:	f105 0210 	add.w	r2, r5, #16
2000d570:	f8d9 3010 	ldr.w	r3, [r9, #16]
2000d574:	f109 0514 	add.w	r5, r9, #20
2000d578:	f100 0114 	add.w	r1, r0, #20
2000d57c:	eb0b 0e87 	add.w	lr, fp, r7, lsl #2
2000d580:	4694      	mov	ip, r2
2000d582:	eb05 0a83 	add.w	sl, r5, r3, lsl #2
2000d586:	4688      	mov	r8, r1
2000d588:	2300      	movs	r3, #0
2000d58a:	60c6      	str	r6, [r0, #12]
2000d58c:	f8cd b004 	str.w	fp, [sp, #4]
2000d590:	f855 6b04 	ldr.w	r6, [r5], #4
2000d594:	f85c 2f04 	ldr.w	r2, [ip, #4]!
2000d598:	fa1f fb86 	uxth.w	fp, r6
2000d59c:	45aa      	cmp	sl, r5
2000d59e:	b294      	uxth	r4, r2
2000d5a0:	eba4 040b 	sub.w	r4, r4, fp
2000d5a4:	441c      	add	r4, r3
2000d5a6:	ea4f 4316 	mov.w	r3, r6, lsr #16
2000d5aa:	ebc3 4312 	rsb	r3, r3, r2, lsr #16
2000d5ae:	eb03 4324 	add.w	r3, r3, r4, asr #16
2000d5b2:	b2a4      	uxth	r4, r4
2000d5b4:	ea44 4403 	orr.w	r4, r4, r3, lsl #16
2000d5b8:	ea4f 4323 	mov.w	r3, r3, asr #16
2000d5bc:	f848 4b04 	str.w	r4, [r8], #4
2000d5c0:	d8e6      	bhi.n	2000d590 <__mdiff+0x7c>
2000d5c2:	ebaa 0209 	sub.w	r2, sl, r9
2000d5c6:	f109 0915 	add.w	r9, r9, #21
2000d5ca:	f8dd b004 	ldr.w	fp, [sp, #4]
2000d5ce:	4626      	mov	r6, r4
2000d5d0:	3a15      	subs	r2, #21
2000d5d2:	f022 0203 	bic.w	r2, r2, #3
2000d5d6:	45ca      	cmp	sl, r9
2000d5d8:	bf38      	it	cc
2000d5da:	2200      	movcc	r2, #0
2000d5dc:	eb0b 0802 	add.w	r8, fp, r2
2000d5e0:	440a      	add	r2, r1
2000d5e2:	f108 0804 	add.w	r8, r8, #4
2000d5e6:	1d14      	adds	r4, r2, #4
2000d5e8:	45c6      	cmp	lr, r8
2000d5ea:	4645      	mov	r5, r8
2000d5ec:	d935      	bls.n	2000d65a <__mdiff+0x146>
2000d5ee:	eba1 010b 	sub.w	r1, r1, fp
2000d5f2:	eb05 0c01 	add.w	ip, r5, r1
2000d5f6:	f855 2b04 	ldr.w	r2, [r5], #4
2000d5fa:	fa1f f982 	uxth.w	r9, r2
2000d5fe:	18d6      	adds	r6, r2, r3
2000d600:	0c12      	lsrs	r2, r2, #16
2000d602:	45ae      	cmp	lr, r5
2000d604:	444b      	add	r3, r9
2000d606:	b2b6      	uxth	r6, r6
2000d608:	eb02 4223 	add.w	r2, r2, r3, asr #16
2000d60c:	ea46 4602 	orr.w	r6, r6, r2, lsl #16
2000d610:	ea4f 4322 	mov.w	r3, r2, asr #16
2000d614:	f8cc 6000 	str.w	r6, [ip]
2000d618:	d8eb      	bhi.n	2000d5f2 <__mdiff+0xde>
2000d61a:	f10e 33ff 	add.w	r3, lr, #4294967295
2000d61e:	eba3 0308 	sub.w	r3, r3, r8
2000d622:	f023 0303 	bic.w	r3, r3, #3
2000d626:	4423      	add	r3, r4
2000d628:	b926      	cbnz	r6, 2000d634 <__mdiff+0x120>
2000d62a:	f853 2d04 	ldr.w	r2, [r3, #-4]!
2000d62e:	3f01      	subs	r7, #1
2000d630:	2a00      	cmp	r2, #0
2000d632:	d0fa      	beq.n	2000d62a <__mdiff+0x116>
2000d634:	6107      	str	r7, [r0, #16]
2000d636:	b003      	add	sp, #12
2000d638:	e8bd 8ff0 	ldmia.w	sp!, {r4, r5, r6, r7, r8, r9, sl, fp, pc}
2000d63c:	2100      	movs	r1, #0
2000d63e:	f7ff fca7 	bl	2000cf90 <_Balloc>
2000d642:	b160      	cbz	r0, 2000d65e <__mdiff+0x14a>
2000d644:	2201      	movs	r2, #1
2000d646:	2300      	movs	r3, #0
2000d648:	e9c0 2304 	strd	r2, r3, [r0, #16]
2000d64c:	b003      	add	sp, #12
2000d64e:	e8bd 8ff0 	ldmia.w	sp!, {r4, r5, r6, r7, r8, r9, sl, fp, pc}
2000d652:	462b      	mov	r3, r5
2000d654:	464d      	mov	r5, r9
2000d656:	4699      	mov	r9, r3
2000d658:	e77f      	b.n	2000d55a <__mdiff+0x46>
2000d65a:	4613      	mov	r3, r2
2000d65c:	e7e4      	b.n	2000d628 <__mdiff+0x114>
2000d65e:	4602      	mov	r2, r0
2000d660:	4b06      	ldr	r3, [pc, #24]	@ (2000d67c <__mdiff+0x168>)
2000d662:	f240 2137 	movw	r1, #567	@ 0x237
2000d666:	4806      	ldr	r0, [pc, #24]	@ (2000d680 <__mdiff+0x16c>)
2000d668:	f7f6 fedc 	bl	20004424 <__assert_func>
2000d66c:	4602      	mov	r2, r0
2000d66e:	4b03      	ldr	r3, [pc, #12]	@ (2000d67c <__mdiff+0x168>)
2000d670:	f240 2145 	movw	r1, #581	@ 0x245
2000d674:	4802      	ldr	r0, [pc, #8]	@ (2000d680 <__mdiff+0x16c>)
2000d676:	f7f6 fed5 	bl	20004424 <__assert_func>
2000d67a:	bf00      	nop
2000d67c:	2000ec2c 	.word	0x2000ec2c
2000d680:	2000ec9c 	.word	0x2000ec9c

2000d684 <__d2b>:
2000d684:	b5f0      	push	{r4, r5, r6, r7, lr}
2000d686:	2101      	movs	r1, #1
2000d688:	b083      	sub	sp, #12
2000d68a:	4616      	mov	r6, r2
2000d68c:	461f      	mov	r7, r3
2000d68e:	f7ff fc7f 	bl	2000cf90 <_Balloc>
2000d692:	4605      	mov	r5, r0
2000d694:	2800      	cmp	r0, #0
2000d696:	d047      	beq.n	2000d728 <__d2b+0xa4>
2000d698:	f3c7 540a 	ubfx	r4, r7, #20, #11
2000d69c:	f3c7 0313 	ubfx	r3, r7, #0, #20
2000d6a0:	b10c      	cbz	r4, 2000d6a6 <__d2b+0x22>
2000d6a2:	f443 1380 	orr.w	r3, r3, #1048576	@ 0x100000
2000d6a6:	2e00      	cmp	r6, #0
2000d6a8:	9301      	str	r3, [sp, #4]
2000d6aa:	d115      	bne.n	2000d6d8 <__d2b+0x54>
2000d6ac:	a801      	add	r0, sp, #4
2000d6ae:	f7ff fd1b 	bl	2000d0e8 <__lo0bits>
2000d6b2:	9a01      	ldr	r2, [sp, #4]
2000d6b4:	2101      	movs	r1, #1
2000d6b6:	f100 0320 	add.w	r3, r0, #32
2000d6ba:	616a      	str	r2, [r5, #20]
2000d6bc:	6129      	str	r1, [r5, #16]
2000d6be:	b31c      	cbz	r4, 2000d708 <__d2b+0x84>
2000d6c0:	f2a4 4433 	subw	r4, r4, #1075	@ 0x433
2000d6c4:	f1c3 0035 	rsb	r0, r3, #53	@ 0x35
2000d6c8:	441c      	add	r4, r3
2000d6ca:	9b08      	ldr	r3, [sp, #32]
2000d6cc:	601c      	str	r4, [r3, #0]
2000d6ce:	9b09      	ldr	r3, [sp, #36]	@ 0x24
2000d6d0:	6018      	str	r0, [r3, #0]
2000d6d2:	4628      	mov	r0, r5
2000d6d4:	b003      	add	sp, #12
2000d6d6:	bdf0      	pop	{r4, r5, r6, r7, pc}
2000d6d8:	4668      	mov	r0, sp
2000d6da:	9600      	str	r6, [sp, #0]
2000d6dc:	f7ff fd04 	bl	2000d0e8 <__lo0bits>
2000d6e0:	4603      	mov	r3, r0
2000d6e2:	e9dd 1200 	ldrd	r1, r2, [sp]
2000d6e6:	b130      	cbz	r0, 2000d6f6 <__d2b+0x72>
2000d6e8:	f1c0 0020 	rsb	r0, r0, #32
2000d6ec:	fa02 f000 	lsl.w	r0, r2, r0
2000d6f0:	40da      	lsrs	r2, r3
2000d6f2:	4301      	orrs	r1, r0
2000d6f4:	9201      	str	r2, [sp, #4]
2000d6f6:	2a00      	cmp	r2, #0
2000d6f8:	e9c5 1205 	strd	r1, r2, [r5, #20]
2000d6fc:	bf0c      	ite	eq
2000d6fe:	2101      	moveq	r1, #1
2000d700:	2102      	movne	r1, #2
2000d702:	6129      	str	r1, [r5, #16]
2000d704:	2c00      	cmp	r4, #0
2000d706:	d1db      	bne.n	2000d6c0 <__d2b+0x3c>
2000d708:	f2a3 4332 	subw	r3, r3, #1074	@ 0x432
2000d70c:	eb05 0281 	add.w	r2, r5, r1, lsl #2
2000d710:	9808      	ldr	r0, [sp, #32]
2000d712:	6003      	str	r3, [r0, #0]
2000d714:	6910      	ldr	r0, [r2, #16]
2000d716:	f7ff fcbd 	bl	2000d094 <__hi0bits>
2000d71a:	9b09      	ldr	r3, [sp, #36]	@ 0x24
2000d71c:	ebc0 1041 	rsb	r0, r0, r1, lsl #5
2000d720:	6018      	str	r0, [r3, #0]
2000d722:	4628      	mov	r0, r5
2000d724:	b003      	add	sp, #12
2000d726:	bdf0      	pop	{r4, r5, r6, r7, pc}
2000d728:	4602      	mov	r2, r0
2000d72a:	4b03      	ldr	r3, [pc, #12]	@ (2000d738 <__d2b+0xb4>)
2000d72c:	f240 310f 	movw	r1, #783	@ 0x30f
2000d730:	4802      	ldr	r0, [pc, #8]	@ (2000d73c <__d2b+0xb8>)
2000d732:	f7f6 fe77 	bl	20004424 <__assert_func>
2000d736:	bf00      	nop
2000d738:	2000ec2c 	.word	0x2000ec2c
2000d73c:	2000ec9c 	.word	0x2000ec9c

2000d740 <__ascii_wctomb>:
2000d740:	4603      	mov	r3, r0
2000d742:	b149      	cbz	r1, 2000d758 <__ascii_wctomb+0x18>
2000d744:	2aff      	cmp	r2, #255	@ 0xff
2000d746:	d802      	bhi.n	2000d74e <__ascii_wctomb+0xe>
2000d748:	2001      	movs	r0, #1
2000d74a:	700a      	strb	r2, [r1, #0]
2000d74c:	4770      	bx	lr
2000d74e:	228a      	movs	r2, #138	@ 0x8a
2000d750:	f04f 30ff 	mov.w	r0, #4294967295
2000d754:	601a      	str	r2, [r3, #0]
2000d756:	4770      	bx	lr
2000d758:	4608      	mov	r0, r1
2000d75a:	4770      	bx	lr

2000d75c <_wcrtomb_r>:
2000d75c:	b570      	push	{r4, r5, r6, lr}
2000d75e:	4605      	mov	r5, r0
2000d760:	b084      	sub	sp, #16
2000d762:	b15b      	cbz	r3, 2000d77c <_wcrtomb_r+0x20>
2000d764:	461c      	mov	r4, r3
2000d766:	4b0f      	ldr	r3, [pc, #60]	@ (2000d7a4 <_wcrtomb_r+0x48>)
2000d768:	f8d3 60e0 	ldr.w	r6, [r3, #224]	@ 0xe0
2000d76c:	4623      	mov	r3, r4
2000d76e:	b169      	cbz	r1, 2000d78c <_wcrtomb_r+0x30>
2000d770:	4628      	mov	r0, r5
2000d772:	47b0      	blx	r6
2000d774:	1c43      	adds	r3, r0, #1
2000d776:	d00f      	beq.n	2000d798 <_wcrtomb_r+0x3c>
2000d778:	b004      	add	sp, #16
2000d77a:	bd70      	pop	{r4, r5, r6, pc}
2000d77c:	4b09      	ldr	r3, [pc, #36]	@ (2000d7a4 <_wcrtomb_r+0x48>)
2000d77e:	f500 7482 	add.w	r4, r0, #260	@ 0x104
2000d782:	f8d3 60e0 	ldr.w	r6, [r3, #224]	@ 0xe0
2000d786:	4623      	mov	r3, r4
2000d788:	2900      	cmp	r1, #0
2000d78a:	d1f1      	bne.n	2000d770 <_wcrtomb_r+0x14>
2000d78c:	460a      	mov	r2, r1
2000d78e:	4628      	mov	r0, r5
2000d790:	a901      	add	r1, sp, #4
2000d792:	47b0      	blx	r6
2000d794:	1c43      	adds	r3, r0, #1
2000d796:	d1ef      	bne.n	2000d778 <_wcrtomb_r+0x1c>
2000d798:	2200      	movs	r2, #0
2000d79a:	238a      	movs	r3, #138	@ 0x8a
2000d79c:	6022      	str	r2, [r4, #0]
2000d79e:	602b      	str	r3, [r5, #0]
2000d7a0:	b004      	add	sp, #16
2000d7a2:	bd70      	pop	{r4, r5, r6, pc}
2000d7a4:	200103c8 	.word	0x200103c8

2000d7a8 <_wcsrtombs_r>:
2000d7a8:	b510      	push	{r4, lr}
2000d7aa:	b082      	sub	sp, #8
2000d7ac:	9c04      	ldr	r4, [sp, #16]
2000d7ae:	9300      	str	r3, [sp, #0]
2000d7b0:	f04f 33ff 	mov.w	r3, #4294967295
2000d7b4:	9401      	str	r4, [sp, #4]
2000d7b6:	f000 f8dd 	bl	2000d974 <_wcsnrtombs_r>
2000d7ba:	b002      	add	sp, #8
2000d7bc:	bd10      	pop	{r4, pc}
2000d7be:	bf00      	nop

2000d7c0 <__ssputs_r>:
2000d7c0:	e92d 47f0 	stmdb	sp!, {r4, r5, r6, r7, r8, r9, sl, lr}
2000d7c4:	688e      	ldr	r6, [r1, #8]
2000d7c6:	4681      	mov	r9, r0
2000d7c8:	460c      	mov	r4, r1
2000d7ca:	461d      	mov	r5, r3
2000d7cc:	429e      	cmp	r6, r3
2000d7ce:	4690      	mov	r8, r2
2000d7d0:	6808      	ldr	r0, [r1, #0]
2000d7d2:	d836      	bhi.n	2000d842 <__ssputs_r+0x82>
2000d7d4:	f9b1 300c 	ldrsh.w	r3, [r1, #12]
2000d7d8:	f413 6f90 	tst.w	r3, #1152	@ 0x480
2000d7dc:	d10d      	bne.n	2000d7fa <__ssputs_r+0x3a>
2000d7de:	4635      	mov	r5, r6
2000d7e0:	462a      	mov	r2, r5
2000d7e2:	4641      	mov	r1, r8
2000d7e4:	f7fb fe4c 	bl	20009480 <memmove>
2000d7e8:	68a2      	ldr	r2, [r4, #8]
2000d7ea:	6823      	ldr	r3, [r4, #0]
2000d7ec:	2000      	movs	r0, #0
2000d7ee:	1b92      	subs	r2, r2, r6
2000d7f0:	442b      	add	r3, r5
2000d7f2:	60a2      	str	r2, [r4, #8]
2000d7f4:	6023      	str	r3, [r4, #0]
2000d7f6:	e8bd 87f0 	ldmia.w	sp!, {r4, r5, r6, r7, r8, r9, sl, pc}
2000d7fa:	6967      	ldr	r7, [r4, #20]
2000d7fc:	6909      	ldr	r1, [r1, #16]
2000d7fe:	eb17 0747 	adds.w	r7, r7, r7, lsl #1
2000d802:	eba0 0a01 	sub.w	sl, r0, r1
2000d806:	f105 0001 	add.w	r0, r5, #1
2000d80a:	bf48      	it	mi
2000d80c:	3701      	addmi	r7, #1
2000d80e:	4450      	add	r0, sl
2000d810:	107f      	asrs	r7, r7, #1
2000d812:	42b8      	cmp	r0, r7
2000d814:	463a      	mov	r2, r7
2000d816:	d901      	bls.n	2000d81c <__ssputs_r+0x5c>
2000d818:	4607      	mov	r7, r0
2000d81a:	4602      	mov	r2, r0
2000d81c:	055b      	lsls	r3, r3, #21
2000d81e:	d512      	bpl.n	2000d846 <__ssputs_r+0x86>
2000d820:	4611      	mov	r1, r2
2000d822:	4648      	mov	r0, r9
2000d824:	f7fb f894 	bl	20008950 <_malloc_r>
2000d828:	4606      	mov	r6, r0
2000d82a:	b1f8      	cbz	r0, 2000d86c <__ssputs_r+0xac>
2000d82c:	4652      	mov	r2, sl
2000d82e:	6921      	ldr	r1, [r4, #16]
2000d830:	f7fb ff56 	bl	200096e0 <memcpy>
2000d834:	89a3      	ldrh	r3, [r4, #12]
2000d836:	f423 6390 	bic.w	r3, r3, #1152	@ 0x480
2000d83a:	f043 0380 	orr.w	r3, r3, #128	@ 0x80
2000d83e:	81a3      	strh	r3, [r4, #12]
2000d840:	e006      	b.n	2000d850 <__ssputs_r+0x90>
2000d842:	461e      	mov	r6, r3
2000d844:	e7cc      	b.n	2000d7e0 <__ssputs_r+0x20>
2000d846:	4648      	mov	r0, r9
2000d848:	f7fb fb4a 	bl	20008ee0 <_realloc_r>
2000d84c:	4606      	mov	r6, r0
2000d84e:	b148      	cbz	r0, 2000d864 <__ssputs_r+0xa4>
2000d850:	eb06 000a 	add.w	r0, r6, sl
2000d854:	eba7 030a 	sub.w	r3, r7, sl
2000d858:	6126      	str	r6, [r4, #16]
2000d85a:	462e      	mov	r6, r5
2000d85c:	6167      	str	r7, [r4, #20]
2000d85e:	60a3      	str	r3, [r4, #8]
2000d860:	6020      	str	r0, [r4, #0]
2000d862:	e7bd      	b.n	2000d7e0 <__ssputs_r+0x20>
2000d864:	6921      	ldr	r1, [r4, #16]
2000d866:	4648      	mov	r0, r9
2000d868:	f7fc f83a 	bl	200098e0 <_free_r>
2000d86c:	89a3      	ldrh	r3, [r4, #12]
2000d86e:	220c      	movs	r2, #12
2000d870:	f04f 30ff 	mov.w	r0, #4294967295
2000d874:	f043 0340 	orr.w	r3, r3, #64	@ 0x40
2000d878:	f8c9 2000 	str.w	r2, [r9]
2000d87c:	81a3      	strh	r3, [r4, #12]
2000d87e:	e7ba      	b.n	2000d7f6 <__ssputs_r+0x36>

2000d880 <_wcsnrtombs_l>:
2000d880:	e92d 4ff0 	stmdb	sp!, {r4, r5, r6, r7, r8, r9, sl, fp, lr}
2000d884:	b08b      	sub	sp, #44	@ 0x2c
2000d886:	461c      	mov	r4, r3
2000d888:	e9dd 7814 	ldrd	r7, r8, [sp, #80]	@ 0x50
2000d88c:	f8dd 9058 	ldr.w	r9, [sp, #88]	@ 0x58
2000d890:	9002      	str	r0, [sp, #8]
2000d892:	f1b8 0f00 	cmp.w	r8, #0
2000d896:	d050      	beq.n	2000d93a <_wcsnrtombs_l+0xba>
2000d898:	2900      	cmp	r1, #0
2000d89a:	6816      	ldr	r6, [r2, #0]
2000d89c:	46c3      	mov	fp, r8
2000d89e:	f04f 0500 	mov.w	r5, #0
2000d8a2:	bf08      	it	eq
2000d8a4:	f04f 37ff 	moveq.w	r7, #4294967295
2000d8a8:	4692      	mov	sl, r2
2000d8aa:	4688      	mov	r8, r1
2000d8ac:	9601      	str	r6, [sp, #4]
2000d8ae:	9103      	str	r1, [sp, #12]
2000d8b0:	e007      	b.n	2000d8c2 <_wcsnrtombs_l+0x42>
2000d8b2:	9b01      	ldr	r3, [sp, #4]
2000d8b4:	3c01      	subs	r4, #1
2000d8b6:	f853 0b04 	ldr.w	r0, [r3], #4
2000d8ba:	9301      	str	r3, [sp, #4]
2000d8bc:	2800      	cmp	r0, #0
2000d8be:	d04a      	beq.n	2000d956 <_wcsnrtombs_l+0xd6>
2000d8c0:	4665      	mov	r5, ip
2000d8c2:	42af      	cmp	r7, r5
2000d8c4:	d935      	bls.n	2000d932 <_wcsnrtombs_l+0xb2>
2000d8c6:	2c00      	cmp	r4, #0
2000d8c8:	d033      	beq.n	2000d932 <_wcsnrtombs_l+0xb2>
2000d8ca:	f8db 3000 	ldr.w	r3, [fp]
2000d8ce:	a906      	add	r1, sp, #24
2000d8d0:	9a01      	ldr	r2, [sp, #4]
2000d8d2:	9304      	str	r3, [sp, #16]
2000d8d4:	f8db 3004 	ldr.w	r3, [fp, #4]
2000d8d8:	6812      	ldr	r2, [r2, #0]
2000d8da:	9305      	str	r3, [sp, #20]
2000d8dc:	465b      	mov	r3, fp
2000d8de:	9802      	ldr	r0, [sp, #8]
2000d8e0:	f8d9 60e0 	ldr.w	r6, [r9, #224]	@ 0xe0
2000d8e4:	47b0      	blx	r6
2000d8e6:	1c43      	adds	r3, r0, #1
2000d8e8:	d01c      	beq.n	2000d924 <_wcsnrtombs_l+0xa4>
2000d8ea:	eb00 0c05 	add.w	ip, r0, r5
2000d8ee:	45bc      	cmp	ip, r7
2000d8f0:	d826      	bhi.n	2000d940 <_wcsnrtombs_l+0xc0>
2000d8f2:	9b03      	ldr	r3, [sp, #12]
2000d8f4:	2b00      	cmp	r3, #0
2000d8f6:	d0dc      	beq.n	2000d8b2 <_wcsnrtombs_l+0x32>
2000d8f8:	2800      	cmp	r0, #0
2000d8fa:	dd0d      	ble.n	2000d918 <_wcsnrtombs_l+0x98>
2000d8fc:	f108 32ff 	add.w	r2, r8, #4294967295
2000d900:	a906      	add	r1, sp, #24
2000d902:	9e01      	ldr	r6, [sp, #4]
2000d904:	eb02 0e00 	add.w	lr, r2, r0
2000d908:	f811 3b01 	ldrb.w	r3, [r1], #1
2000d90c:	f802 3f01 	strb.w	r3, [r2, #1]!
2000d910:	4572      	cmp	r2, lr
2000d912:	d1f9      	bne.n	2000d908 <_wcsnrtombs_l+0x88>
2000d914:	4480      	add	r8, r0
2000d916:	9601      	str	r6, [sp, #4]
2000d918:	f8da 2000 	ldr.w	r2, [sl]
2000d91c:	3204      	adds	r2, #4
2000d91e:	f8ca 2000 	str.w	r2, [sl]
2000d922:	e7c6      	b.n	2000d8b2 <_wcsnrtombs_l+0x32>
2000d924:	218a      	movs	r1, #138	@ 0x8a
2000d926:	2200      	movs	r2, #0
2000d928:	9b02      	ldr	r3, [sp, #8]
2000d92a:	4605      	mov	r5, r0
2000d92c:	6019      	str	r1, [r3, #0]
2000d92e:	f8cb 2000 	str.w	r2, [fp]
2000d932:	4628      	mov	r0, r5
2000d934:	b00b      	add	sp, #44	@ 0x2c
2000d936:	e8bd 8ff0 	ldmia.w	sp!, {r4, r5, r6, r7, r8, r9, sl, fp, pc}
2000d93a:	f500 7886 	add.w	r8, r0, #268	@ 0x10c
2000d93e:	e7ab      	b.n	2000d898 <_wcsnrtombs_l+0x18>
2000d940:	46d8      	mov	r8, fp
2000d942:	f8dd a010 	ldr.w	sl, [sp, #16]
2000d946:	f8dd b014 	ldr.w	fp, [sp, #20]
2000d94a:	4628      	mov	r0, r5
2000d94c:	e9c8 ab00 	strd	sl, fp, [r8]
2000d950:	b00b      	add	sp, #44	@ 0x2c
2000d952:	e8bd 8ff0 	ldmia.w	sp!, {r4, r5, r6, r7, r8, r9, sl, fp, pc}
2000d956:	9903      	ldr	r1, [sp, #12]
2000d958:	46d8      	mov	r8, fp
2000d95a:	b109      	cbz	r1, 2000d960 <_wcsnrtombs_l+0xe0>
2000d95c:	f8ca 0000 	str.w	r0, [sl]
2000d960:	f10c 35ff 	add.w	r5, ip, #4294967295
2000d964:	2200      	movs	r2, #0
2000d966:	4628      	mov	r0, r5
2000d968:	f8c8 2000 	str.w	r2, [r8]
2000d96c:	b00b      	add	sp, #44	@ 0x2c
2000d96e:	e8bd 8ff0 	ldmia.w	sp!, {r4, r5, r6, r7, r8, r9, sl, fp, pc}
2000d972:	bf00      	nop

2000d974 <_wcsnrtombs_r>:
2000d974:	b510      	push	{r4, lr}
2000d976:	b084      	sub	sp, #16
2000d978:	4c05      	ldr	r4, [pc, #20]	@ (2000d990 <_wcsnrtombs_r+0x1c>)
2000d97a:	9806      	ldr	r0, [sp, #24]
2000d97c:	9000      	str	r0, [sp, #0]
2000d97e:	9807      	ldr	r0, [sp, #28]
2000d980:	9001      	str	r0, [sp, #4]
2000d982:	4804      	ldr	r0, [pc, #16]	@ (2000d994 <_wcsnrtombs_r+0x20>)
2000d984:	6800      	ldr	r0, [r0, #0]
2000d986:	9402      	str	r4, [sp, #8]
2000d988:	f7ff ff7a 	bl	2000d880 <_wcsnrtombs_l>
2000d98c:	b004      	add	sp, #16
2000d98e:	bd10      	pop	{r4, pc}
2000d990:	200103c8 	.word	0x200103c8
2000d994:	20010280 	.word	0x20010280

2000d998 <_fini>:
2000d998:	b5f8      	push	{r3, r4, r5, r6, r7, lr}
2000d99a:	bf00      	nop

Disassembly of section .data:

2000d9a0 <mutex_enter_blocking>:
2000d9a0:	f04f 4350 	mov.w	r3, #3489660928	@ 0xd0000000
2000d9a4:	b510      	push	{r4, lr}
2000d9a6:	6802      	ldr	r2, [r0, #0]
2000d9a8:	f993 4000 	ldrsb.w	r4, [r3]
2000d9ac:	f3ef 8310 	mrs	r3, PRIMASK
2000d9b0:	b672      	cpsid	i
2000d9b2:	e8d2 cfcf 	ldaexb	ip, [r2]
2000d9b6:	2101      	movs	r1, #1
2000d9b8:	f1bc 0f00 	cmp.w	ip, #0
2000d9bc:	d1f9      	bne.n	2000d9b2 <mutex_enter_blocking+0x12>
2000d9be:	e8c2 1f4c 	strexb	ip, r1, [r2]
2000d9c2:	f1bc 0f00 	cmp.w	ip, #0
2000d9c6:	d1f4      	bne.n	2000d9b2 <mutex_enter_blocking+0x12>
2000d9c8:	f3bf 8f5f 	dmb	sy
2000d9cc:	f990 2004 	ldrsb.w	r2, [r0, #4]
2000d9d0:	2a00      	cmp	r2, #0
2000d9d2:	db1c      	blt.n	2000da0e <mutex_enter_blocking+0x6e>
2000d9d4:	2100      	movs	r1, #0
2000d9d6:	6802      	ldr	r2, [r0, #0]
2000d9d8:	e8c2 1f8f 	stlb	r1, [r2]
2000d9dc:	f383 8810 	msr	PRIMASK, r3
2000d9e0:	bf20      	wfe
2000d9e2:	6802      	ldr	r2, [r0, #0]
2000d9e4:	f3ef 8310 	mrs	r3, PRIMASK
2000d9e8:	b672      	cpsid	i
2000d9ea:	e8d2 efcf 	ldaexb	lr, [r2]
2000d9ee:	f05f 0c01 	movs.w	ip, #1
2000d9f2:	f1be 0f00 	cmp.w	lr, #0
2000d9f6:	d1f8      	bne.n	2000d9ea <mutex_enter_blocking+0x4a>
2000d9f8:	e8c2 cf4e 	strexb	lr, ip, [r2]
2000d9fc:	f1be 0f00 	cmp.w	lr, #0
2000da00:	d1f3      	bne.n	2000d9ea <mutex_enter_blocking+0x4a>
2000da02:	f3bf 8f5f 	dmb	sy
2000da06:	f990 2004 	ldrsb.w	r2, [r0, #4]
2000da0a:	2a00      	cmp	r2, #0
2000da0c:	dae3      	bge.n	2000d9d6 <mutex_enter_blocking+0x36>
2000da0e:	2200      	movs	r2, #0
2000da10:	6801      	ldr	r1, [r0, #0]
2000da12:	7104      	strb	r4, [r0, #4]
2000da14:	e8c1 2f8f 	stlb	r2, [r1]
2000da18:	f383 8810 	msr	PRIMASK, r3
2000da1c:	bd10      	pop	{r4, pc}
2000da1e:	bf00      	nop

2000da20 <mutex_enter_block_until>:
2000da20:	f04f 4150 	mov.w	r1, #3489660928	@ 0xd0000000
2000da24:	e92d 41f0 	stmdb	sp!, {r4, r5, r6, r7, r8, lr}
2000da28:	2700      	movs	r7, #0
2000da2a:	4604      	mov	r4, r0
2000da2c:	4616      	mov	r6, r2
2000da2e:	461d      	mov	r5, r3
2000da30:	f8d1 8000 	ldr.w	r8, [r1]
2000da34:	e008      	b.n	2000da48 <mutex_enter_block_until+0x28>
2000da36:	e8c1 7f8f 	stlb	r7, [r1]
2000da3a:	f38c 8810 	msr	PRIMASK, ip
2000da3e:	4630      	mov	r0, r6
2000da40:	4629      	mov	r1, r5
2000da42:	f7f5 fdc7 	bl	200035d4 <best_effort_wfe_or_timeout>
2000da46:	b9e8      	cbnz	r0, 2000da84 <mutex_enter_block_until+0x64>
2000da48:	6821      	ldr	r1, [r4, #0]
2000da4a:	f3ef 8c10 	mrs	ip, PRIMASK
2000da4e:	b672      	cpsid	i
2000da50:	e8d1 2fcf 	ldaexb	r2, [r1]
2000da54:	2301      	movs	r3, #1
2000da56:	2a00      	cmp	r2, #0
2000da58:	d1fa      	bne.n	2000da50 <mutex_enter_block_until+0x30>
2000da5a:	e8c1 3f42 	strexb	r2, r3, [r1]
2000da5e:	2a00      	cmp	r2, #0
2000da60:	d1f6      	bne.n	2000da50 <mutex_enter_block_until+0x30>
2000da62:	f3bf 8f5f 	dmb	sy
2000da66:	f994 3004 	ldrsb.w	r3, [r4, #4]
2000da6a:	6821      	ldr	r1, [r4, #0]
2000da6c:	2b00      	cmp	r3, #0
2000da6e:	dae2      	bge.n	2000da36 <mutex_enter_block_until+0x16>
2000da70:	2300      	movs	r3, #0
2000da72:	f884 8004 	strb.w	r8, [r4, #4]
2000da76:	e8c1 3f8f 	stlb	r3, [r1]
2000da7a:	f38c 8810 	msr	PRIMASK, ip
2000da7e:	2001      	movs	r0, #1
2000da80:	e8bd 81f0 	ldmia.w	sp!, {r4, r5, r6, r7, r8, pc}
2000da84:	2000      	movs	r0, #0
2000da86:	e8bd 81f0 	ldmia.w	sp!, {r4, r5, r6, r7, r8, pc}
2000da8a:	bf00      	nop

2000da8c <mutex_try_enter_block_until>:
2000da8c:	b530      	push	{r4, r5, lr}
2000da8e:	6804      	ldr	r4, [r0, #0]
2000da90:	f3ef 8c10 	mrs	ip, PRIMASK
2000da94:	b672      	cpsid	i
2000da96:	e8d4 efcf 	ldaexb	lr, [r4]
2000da9a:	2501      	movs	r5, #1
2000da9c:	f1be 0f00 	cmp.w	lr, #0
2000daa0:	d1f9      	bne.n	2000da96 <mutex_try_enter_block_until+0xa>
2000daa2:	e8c4 5f4e 	strexb	lr, r5, [r4]
2000daa6:	f1be 0f00 	cmp.w	lr, #0
2000daaa:	d1f4      	bne.n	2000da96 <mutex_try_enter_block_until+0xa>
2000daac:	f3bf 8f5f 	dmb	sy
2000dab0:	f990 4004 	ldrsb.w	r4, [r0, #4]
2000dab4:	6805      	ldr	r5, [r0, #0]
2000dab6:	2c00      	cmp	r4, #0
2000dab8:	db10      	blt.n	2000dadc <mutex_try_enter_block_until+0x50>
2000daba:	2100      	movs	r1, #0
2000dabc:	e8c5 1f8f 	stlb	r1, [r5]
2000dac0:	f38c 8810 	msr	PRIMASK, ip
2000dac4:	f04f 4550 	mov.w	r5, #3489660928	@ 0xd0000000
2000dac8:	f995 5000 	ldrsb.w	r5, [r5]
2000dacc:	42a5      	cmp	r5, r4
2000dace:	d101      	bne.n	2000dad4 <mutex_try_enter_block_until+0x48>
2000dad0:	4608      	mov	r0, r1
2000dad2:	bd30      	pop	{r4, r5, pc}
2000dad4:	e8bd 4030 	ldmia.w	sp!, {r4, r5, lr}
2000dad8:	f7ff bfa2 	b.w	2000da20 <mutex_enter_block_until>
2000dadc:	f04f 4250 	mov.w	r2, #3489660928	@ 0xd0000000
2000dae0:	6812      	ldr	r2, [r2, #0]
2000dae2:	2300      	movs	r3, #0
2000dae4:	7102      	strb	r2, [r0, #4]
2000dae6:	e8c5 3f8f 	stlb	r3, [r5]
2000daea:	f38c 8810 	msr	PRIMASK, ip
2000daee:	2001      	movs	r0, #1
2000daf0:	bd30      	pop	{r4, r5, pc}
2000daf2:	bf00      	nop

2000daf4 <mutex_enter_timeout_ms>:
2000daf4:	b570      	push	{r4, r5, r6, lr}
2000daf6:	4605      	mov	r5, r0
2000daf8:	460c      	mov	r4, r1
2000dafa:	f7f5 fdef 	bl	200036dc <time_us_64>
2000dafe:	4602      	mov	r2, r0
2000db00:	460b      	mov	r3, r1
2000db02:	f44f 707a 	mov.w	r0, #1000	@ 0x3e8
2000db06:	f04f 3eff 	mov.w	lr, #4294967295
2000db0a:	f06f 4c00 	mvn.w	ip, #2147483648	@ 0x80000000
2000db0e:	fbe4 2300 	umlal	r2, r3, r4, r0
2000db12:	4596      	cmp	lr, r2
2000db14:	eb7c 0103 	sbcs.w	r1, ip, r3
2000db18:	bf38      	it	cc
2000db1a:	4672      	movcc	r2, lr
2000db1c:	4628      	mov	r0, r5
2000db1e:	e8bd 4070 	ldmia.w	sp!, {r4, r5, r6, lr}
2000db22:	bf38      	it	cc
2000db24:	4663      	movcc	r3, ip
2000db26:	f7ff bf7b 	b.w	2000da20 <mutex_enter_block_until>
2000db2a:	bf00      	nop

2000db2c <mutex_exit>:
2000db2c:	6803      	ldr	r3, [r0, #0]
2000db2e:	f3ef 8210 	mrs	r2, PRIMASK
2000db32:	b672      	cpsid	i
2000db34:	e8d3 cfcf 	ldaexb	ip, [r3]
2000db38:	2101      	movs	r1, #1
2000db3a:	f1bc 0f00 	cmp.w	ip, #0
2000db3e:	d1f9      	bne.n	2000db34 <mutex_exit+0x8>
2000db40:	e8c3 1f4c 	strexb	ip, r1, [r3]
2000db44:	f1bc 0f00 	cmp.w	ip, #0
2000db48:	d1f4      	bne.n	2000db34 <mutex_exit+0x8>
2000db4a:	f3bf 8f5f 	dmb	sy
2000db4e:	f04f 0cff 	mov.w	ip, #255	@ 0xff
2000db52:	2300      	movs	r3, #0
2000db54:	6801      	ldr	r1, [r0, #0]
2000db56:	f880 c004 	strb.w	ip, [r0, #4]
2000db5a:	e8c1 3f8f 	stlb	r3, [r1]
2000db5e:	f382 8810 	msr	PRIMASK, r2
2000db62:	bf40      	sev
2000db64:	4770      	bx	lr
2000db66:	bf00      	nop

2000db68 <spi_write_blocking>:
2000db68:	4684      	mov	ip, r0
2000db6a:	4610      	mov	r0, r2
2000db6c:	b36a      	cbz	r2, 2000dbca <spi_write_blocking+0x62>
2000db6e:	3901      	subs	r1, #1
2000db70:	b500      	push	{lr}
2000db72:	eb01 0e02 	add.w	lr, r1, r2
2000db76:	f8dc 300c 	ldr.w	r3, [ip, #12]
2000db7a:	079b      	lsls	r3, r3, #30
2000db7c:	d5fb      	bpl.n	2000db76 <spi_write_blocking+0xe>
2000db7e:	f811 3f01 	ldrb.w	r3, [r1, #1]!
2000db82:	4571      	cmp	r1, lr
2000db84:	f8cc 3008 	str.w	r3, [ip, #8]
2000db88:	d1f5      	bne.n	2000db76 <spi_write_blocking+0xe>
2000db8a:	f8dc 300c 	ldr.w	r3, [ip, #12]
2000db8e:	0759      	lsls	r1, r3, #29
2000db90:	d505      	bpl.n	2000db9e <spi_write_blocking+0x36>
2000db92:	f8dc 3008 	ldr.w	r3, [ip, #8]
2000db96:	f8dc 300c 	ldr.w	r3, [ip, #12]
2000db9a:	0759      	lsls	r1, r3, #29
2000db9c:	d4f9      	bmi.n	2000db92 <spi_write_blocking+0x2a>
2000db9e:	f8dc 300c 	ldr.w	r3, [ip, #12]
2000dba2:	06da      	lsls	r2, r3, #27
2000dba4:	d506      	bpl.n	2000dbb4 <spi_write_blocking+0x4c>
2000dba6:	f8dc 300c 	ldr.w	r3, [ip, #12]
2000dbaa:	06da      	lsls	r2, r3, #27
2000dbac:	d4f7      	bmi.n	2000db9e <spi_write_blocking+0x36>
2000dbae:	e001      	b.n	2000dbb4 <spi_write_blocking+0x4c>
2000dbb0:	f8dc 3008 	ldr.w	r3, [ip, #8]
2000dbb4:	f8dc 300c 	ldr.w	r3, [ip, #12]
2000dbb8:	075b      	lsls	r3, r3, #29
2000dbba:	d4f9      	bmi.n	2000dbb0 <spi_write_blocking+0x48>
2000dbbc:	2301      	movs	r3, #1
2000dbbe:	f8cc 3020 	str.w	r3, [ip, #32]
2000dbc2:	f85d fb04 	ldr.w	pc, [sp], #4
2000dbc6:	f8dc 3008 	ldr.w	r3, [ip, #8]
2000dbca:	f8dc 300c 	ldr.w	r3, [ip, #12]
2000dbce:	0759      	lsls	r1, r3, #29
2000dbd0:	d4f9      	bmi.n	2000dbc6 <spi_write_blocking+0x5e>
2000dbd2:	f8dc 300c 	ldr.w	r3, [ip, #12]
2000dbd6:	06da      	lsls	r2, r3, #27
2000dbd8:	d506      	bpl.n	2000dbe8 <spi_write_blocking+0x80>
2000dbda:	f8dc 300c 	ldr.w	r3, [ip, #12]
2000dbde:	06da      	lsls	r2, r3, #27
2000dbe0:	d4f7      	bmi.n	2000dbd2 <spi_write_blocking+0x6a>
2000dbe2:	e001      	b.n	2000dbe8 <spi_write_blocking+0x80>
2000dbe4:	f8dc 3008 	ldr.w	r3, [ip, #8]
2000dbe8:	f8dc 300c 	ldr.w	r3, [ip, #12]
2000dbec:	075b      	lsls	r3, r3, #29
2000dbee:	d4f9      	bmi.n	2000dbe4 <spi_write_blocking+0x7c>
2000dbf0:	2301      	movs	r3, #1
2000dbf2:	f8cc 3020 	str.w	r3, [ip, #32]
2000dbf6:	4770      	bx	lr

2000dbf8 <spi_read_blocking>:
2000dbf8:	b570      	push	{r4, r5, r6, lr}
2000dbfa:	461d      	mov	r5, r3
2000dbfc:	4684      	mov	ip, r0
2000dbfe:	461c      	mov	r4, r3
2000dc00:	b305      	cbz	r5, 2000dc44 <spi_read_blocking+0x4c>
2000dc02:	b1b4      	cbz	r4, 2000dc32 <spi_read_blocking+0x3a>
2000dc04:	f8dc 600c 	ldr.w	r6, [ip, #12]
2000dc08:	f104 0e08 	add.w	lr, r4, #8
2000dc0c:	07b6      	lsls	r6, r6, #30
2000dc0e:	d504      	bpl.n	2000dc1a <spi_read_blocking+0x22>
2000dc10:	4575      	cmp	r5, lr
2000dc12:	d22f      	bcs.n	2000dc74 <spi_read_blocking+0x7c>
2000dc14:	f8cc 1008 	str.w	r1, [ip, #8]
2000dc18:	3c01      	subs	r4, #1
2000dc1a:	f8dc 000c 	ldr.w	r0, [ip, #12]
2000dc1e:	0740      	lsls	r0, r0, #29
2000dc20:	d5ef      	bpl.n	2000dc02 <spi_read_blocking+0xa>
2000dc22:	f8dc 6008 	ldr.w	r6, [ip, #8]
2000dc26:	3d01      	subs	r5, #1
2000dc28:	f802 6b01 	strb.w	r6, [r2], #1
2000dc2c:	2d00      	cmp	r5, #0
2000dc2e:	d1e8      	bne.n	2000dc02 <spi_read_blocking+0xa>
2000dc30:	e008      	b.n	2000dc44 <spi_read_blocking+0x4c>
2000dc32:	f8dc 600c 	ldr.w	r6, [ip, #12]
2000dc36:	0776      	lsls	r6, r6, #29
2000dc38:	d4f3      	bmi.n	2000dc22 <spi_read_blocking+0x2a>
2000dc3a:	f8dc 600c 	ldr.w	r6, [ip, #12]
2000dc3e:	0776      	lsls	r6, r6, #29
2000dc40:	d4ef      	bmi.n	2000dc22 <spi_read_blocking+0x2a>
2000dc42:	e7f6      	b.n	2000dc32 <spi_read_blocking+0x3a>
2000dc44:	b15c      	cbz	r4, 2000dc5e <spi_read_blocking+0x66>
2000dc46:	f8dc 200c 	ldr.w	r2, [ip, #12]
2000dc4a:	0790      	lsls	r0, r2, #30
2000dc4c:	d5fb      	bpl.n	2000dc46 <spi_read_blocking+0x4e>
2000dc4e:	f114 0f08 	cmn.w	r4, #8
2000dc52:	d006      	beq.n	2000dc62 <spi_read_blocking+0x6a>
2000dc54:	3c01      	subs	r4, #1
2000dc56:	f8cc 1008 	str.w	r1, [ip, #8]
2000dc5a:	2c00      	cmp	r4, #0
2000dc5c:	d1f3      	bne.n	2000dc46 <spi_read_blocking+0x4e>
2000dc5e:	4618      	mov	r0, r3
2000dc60:	bd70      	pop	{r4, r5, r6, pc}
2000dc62:	f8dc 200c 	ldr.w	r2, [ip, #12]
2000dc66:	0792      	lsls	r2, r2, #30
2000dc68:	d5ed      	bpl.n	2000dc46 <spi_read_blocking+0x4e>
2000dc6a:	f8dc 200c 	ldr.w	r2, [ip, #12]
2000dc6e:	0792      	lsls	r2, r2, #30
2000dc70:	d4f7      	bmi.n	2000dc62 <spi_read_blocking+0x6a>
2000dc72:	e7e8      	b.n	2000dc46 <spi_read_blocking+0x4e>
2000dc74:	f8dc 000c 	ldr.w	r0, [ip, #12]
2000dc78:	0740      	lsls	r0, r0, #29
2000dc7a:	d4d2      	bmi.n	2000dc22 <spi_read_blocking+0x2a>
2000dc7c:	e7c2      	b.n	2000dc04 <spi_read_blocking+0xc>
2000dc7e:	bf00      	nop

2000dc80 <reset_non_control_endpoints>:
2000dc80:	2100      	movs	r1, #0
2000dc82:	b508      	push	{r3, lr}
2000dc84:	4b13      	ldr	r3, [pc, #76]	@ (2000dcd4 <reset_non_control_endpoints+0x54>)
2000dc86:	f44f 7270 	mov.w	r2, #960	@ 0x3c0
2000dc8a:	6099      	str	r1, [r3, #8]
2000dc8c:	4812      	ldr	r0, [pc, #72]	@ (2000dcd8 <reset_non_control_endpoints+0x58>)
2000dc8e:	60d9      	str	r1, [r3, #12]
2000dc90:	6119      	str	r1, [r3, #16]
2000dc92:	6159      	str	r1, [r3, #20]
2000dc94:	6199      	str	r1, [r3, #24]
2000dc96:	61d9      	str	r1, [r3, #28]
2000dc98:	6219      	str	r1, [r3, #32]
2000dc9a:	6259      	str	r1, [r3, #36]	@ 0x24
2000dc9c:	6299      	str	r1, [r3, #40]	@ 0x28
2000dc9e:	62d9      	str	r1, [r3, #44]	@ 0x2c
2000dca0:	6319      	str	r1, [r3, #48]	@ 0x30
2000dca2:	6359      	str	r1, [r3, #52]	@ 0x34
2000dca4:	6399      	str	r1, [r3, #56]	@ 0x38
2000dca6:	63d9      	str	r1, [r3, #60]	@ 0x3c
2000dca8:	6419      	str	r1, [r3, #64]	@ 0x40
2000dcaa:	6459      	str	r1, [r3, #68]	@ 0x44
2000dcac:	6499      	str	r1, [r3, #72]	@ 0x48
2000dcae:	64d9      	str	r1, [r3, #76]	@ 0x4c
2000dcb0:	6519      	str	r1, [r3, #80]	@ 0x50
2000dcb2:	6559      	str	r1, [r3, #84]	@ 0x54
2000dcb4:	6599      	str	r1, [r3, #88]	@ 0x58
2000dcb6:	65d9      	str	r1, [r3, #92]	@ 0x5c
2000dcb8:	6619      	str	r1, [r3, #96]	@ 0x60
2000dcba:	6659      	str	r1, [r3, #100]	@ 0x64
2000dcbc:	6699      	str	r1, [r3, #104]	@ 0x68
2000dcbe:	66d9      	str	r1, [r3, #108]	@ 0x6c
2000dcc0:	6719      	str	r1, [r3, #112]	@ 0x70
2000dcc2:	6759      	str	r1, [r3, #116]	@ 0x74
2000dcc4:	6799      	str	r1, [r3, #120]	@ 0x78
2000dcc6:	67d9      	str	r1, [r3, #124]	@ 0x7c
2000dcc8:	f7fb fc58 	bl	2000957c <memset>
2000dccc:	4b03      	ldr	r3, [pc, #12]	@ (2000dcdc <reset_non_control_endpoints+0x5c>)
2000dcce:	4a04      	ldr	r2, [pc, #16]	@ (2000dce0 <reset_non_control_endpoints+0x60>)
2000dcd0:	601a      	str	r2, [r3, #0]
2000dcd2:	bd08      	pop	{r3, pc}
2000dcd4:	50100000 	.word	0x50100000
2000dcd8:	2005a34c 	.word	0x2005a34c
2000dcdc:	2005a730 	.word	0x2005a730
2000dce0:	50100180 	.word	0x50100180

2000dce4 <hw_handle_buff_status>:
2000dce4:	e92d 4ff0 	stmdb	sp!, {r4, r5, r6, r7, r8, r9, sl, fp, lr}
2000dce8:	4b1f      	ldr	r3, [pc, #124]	@ (2000dd68 <hw_handle_buff_status+0x84>)
2000dcea:	b085      	sub	sp, #20
2000dcec:	f8d3 a058 	ldr.w	sl, [r3, #88]	@ 0x58
2000dcf0:	f1ba 0f00 	cmp.w	sl, #0
2000dcf4:	d022      	beq.n	2000dd3c <hw_handle_buff_status+0x58>
2000dcf6:	2400      	movs	r4, #0
2000dcf8:	2501      	movs	r5, #1
2000dcfa:	f44f 69e0 	mov.w	r9, #1792	@ 0x700
2000dcfe:	f8df 8070 	ldr.w	r8, [pc, #112]	@ 2000dd70 <hw_handle_buff_status+0x8c>
2000dd02:	4f1a      	ldr	r7, [pc, #104]	@ (2000dd6c <hw_handle_buff_status+0x88>)
2000dd04:	e001      	b.n	2000dd0a <hw_handle_buff_status+0x26>
2000dd06:	2c20      	cmp	r4, #32
2000dd08:	d018      	beq.n	2000dd3c <hw_handle_buff_status+0x58>
2000dd0a:	ea0a 0205 	and.w	r2, sl, r5
2000dd0e:	1c61      	adds	r1, r4, #1
2000dd10:	4623      	mov	r3, r4
2000dd12:	46ab      	mov	fp, r5
2000dd14:	b2cc      	uxtb	r4, r1
2000dd16:	006d      	lsls	r5, r5, #1
2000dd18:	2a00      	cmp	r2, #0
2000dd1a:	d0f4      	beq.n	2000dd06 <hw_handle_buff_status+0x22>
2000dd1c:	f004 0201 	and.w	r2, r4, #1
2000dd20:	f003 06fe 	and.w	r6, r3, #254	@ 0xfe
2000dd24:	4416      	add	r6, r2
2000dd26:	eb07 1646 	add.w	r6, r7, r6, lsl #5
2000dd2a:	4630      	mov	r0, r6
2000dd2c:	f8c8 b058 	str.w	fp, [r8, #88]	@ 0x58
2000dd30:	f000 fc0a 	bl	2000e548 <hw_endpoint_xfer_continue>
2000dd34:	b928      	cbnz	r0, 2000dd42 <hw_handle_buff_status+0x5e>
2000dd36:	ea3a 0a0b 	bics.w	sl, sl, fp
2000dd3a:	d1e4      	bne.n	2000dd06 <hw_handle_buff_status+0x22>
2000dd3c:	b005      	add	sp, #20
2000dd3e:	e8bd 8ff0 	ldmia.w	sp!, {r4, r5, r6, r7, r8, r9, sl, fp, pc}
2000dd42:	2300      	movs	r3, #0
2000dd44:	f88d 3009 	strb.w	r3, [sp, #9]
2000dd48:	78b3      	ldrb	r3, [r6, #2]
2000dd4a:	a801      	add	r0, sp, #4
2000dd4c:	f88d 3008 	strb.w	r3, [sp, #8]
2000dd50:	8af3      	ldrh	r3, [r6, #22]
2000dd52:	2101      	movs	r1, #1
2000dd54:	f8ad 9004 	strh.w	r9, [sp, #4]
2000dd58:	9303      	str	r3, [sp, #12]
2000dd5a:	f000 fc13 	bl	2000e584 <dcd_event_handler>
2000dd5e:	4630      	mov	r0, r6
2000dd60:	f000 fb98 	bl	2000e494 <hw_endpoint_reset_transfer>
2000dd64:	e7e7      	b.n	2000dd36 <hw_handle_buff_status+0x52>
2000dd66:	bf00      	nop
2000dd68:	50110000 	.word	0x50110000
2000dd6c:	2005a30c 	.word	0x2005a30c
2000dd70:	50113000 	.word	0x50113000

2000dd74 <dcd_rp2040_irq>:
2000dd74:	b5f0      	push	{r4, r5, r6, r7, lr}
2000dd76:	4bbb      	ldr	r3, [pc, #748]	@ (2000e064 <dcd_rp2040_irq+0x2f0>)
2000dd78:	b085      	sub	sp, #20
2000dd7a:	f8d3 5098 	ldr.w	r5, [r3, #152]	@ 0x98
2000dd7e:	f415 3600 	ands.w	r6, r5, #131072	@ 0x20000
2000dd82:	d074      	beq.n	2000de6e <dcd_rp2040_irq+0xfa>
2000dd84:	4bb8      	ldr	r3, [pc, #736]	@ (2000e068 <dcd_rp2040_irq+0x2f4>)
2000dd86:	4cb9      	ldr	r4, [pc, #740]	@ (2000e06c <dcd_rp2040_irq+0x2f8>)
2000dd88:	6a99      	ldr	r1, [r3, #40]	@ 0x28
2000dd8a:	f894 303b 	ldrb.w	r3, [r4, #59]	@ 0x3b
2000dd8e:	4ab8      	ldr	r2, [pc, #736]	@ (2000e070 <dcd_rp2040_irq+0x2fc>)
2000dd90:	2b02      	cmp	r3, #2
2000dd92:	6011      	str	r1, [r2, #0]
2000dd94:	f000 80d4 	beq.w	2000df40 <dcd_rp2040_irq+0x1cc>
2000dd98:	2600      	movs	r6, #0
2000dd9a:	f894 307b 	ldrb.w	r3, [r4, #123]	@ 0x7b
2000dd9e:	2b02      	cmp	r3, #2
2000dda0:	f000 813b 	beq.w	2000e01a <dcd_rp2040_irq+0x2a6>
2000dda4:	f894 30bb 	ldrb.w	r3, [r4, #187]	@ 0xbb
2000dda8:	2b02      	cmp	r3, #2
2000ddaa:	f000 817d 	beq.w	2000e0a8 <dcd_rp2040_irq+0x334>
2000ddae:	f894 30fb 	ldrb.w	r3, [r4, #251]	@ 0xfb
2000ddb2:	2b02      	cmp	r3, #2
2000ddb4:	f000 816c 	beq.w	2000e090 <dcd_rp2040_irq+0x31c>
2000ddb8:	f894 313b 	ldrb.w	r3, [r4, #315]	@ 0x13b
2000ddbc:	2b02      	cmp	r3, #2
2000ddbe:	f000 8144 	beq.w	2000e04a <dcd_rp2040_irq+0x2d6>
2000ddc2:	f894 317b 	ldrb.w	r3, [r4, #379]	@ 0x17b
2000ddc6:	2b02      	cmp	r3, #2
2000ddc8:	f000 8133 	beq.w	2000e032 <dcd_rp2040_irq+0x2be>
2000ddcc:	f894 31bb 	ldrb.w	r3, [r4, #443]	@ 0x1bb
2000ddd0:	2b02      	cmp	r3, #2
2000ddd2:	f000 81b6 	beq.w	2000e142 <dcd_rp2040_irq+0x3ce>
2000ddd6:	f894 31fb 	ldrb.w	r3, [r4, #507]	@ 0x1fb
2000ddda:	2b02      	cmp	r3, #2
2000dddc:	f000 81a6 	beq.w	2000e12c <dcd_rp2040_irq+0x3b8>
2000dde0:	f894 323b 	ldrb.w	r3, [r4, #571]	@ 0x23b
2000dde4:	2b02      	cmp	r3, #2
2000dde6:	f000 8196 	beq.w	2000e116 <dcd_rp2040_irq+0x3a2>
2000ddea:	f894 327b 	ldrb.w	r3, [r4, #635]	@ 0x27b
2000ddee:	2b02      	cmp	r3, #2
2000ddf0:	f000 8186 	beq.w	2000e100 <dcd_rp2040_irq+0x38c>
2000ddf4:	f894 32bb 	ldrb.w	r3, [r4, #699]	@ 0x2bb
2000ddf8:	2b02      	cmp	r3, #2
2000ddfa:	f000 8176 	beq.w	2000e0ea <dcd_rp2040_irq+0x376>
2000ddfe:	f894 32fb 	ldrb.w	r3, [r4, #763]	@ 0x2fb
2000de02:	2b02      	cmp	r3, #2
2000de04:	f000 8166 	beq.w	2000e0d4 <dcd_rp2040_irq+0x360>
2000de08:	f894 333b 	ldrb.w	r3, [r4, #827]	@ 0x33b
2000de0c:	2b02      	cmp	r3, #2
2000de0e:	f000 8156 	beq.w	2000e0be <dcd_rp2040_irq+0x34a>
2000de12:	f894 337b 	ldrb.w	r3, [r4, #891]	@ 0x37b
2000de16:	2b02      	cmp	r3, #2
2000de18:	f000 80a4 	beq.w	2000df64 <dcd_rp2040_irq+0x1f0>
2000de1c:	f894 33bb 	ldrb.w	r3, [r4, #955]	@ 0x3bb
2000de20:	2b02      	cmp	r3, #2
2000de22:	f000 8199 	beq.w	2000e158 <dcd_rp2040_irq+0x3e4>
2000de26:	f894 33fb 	ldrb.w	r3, [r4, #1019]	@ 0x3fb
2000de2a:	2b02      	cmp	r3, #2
2000de2c:	f000 80b4 	beq.w	2000df98 <dcd_rp2040_irq+0x224>
2000de30:	b93e      	cbnz	r6, 2000de42 <dcd_rp2040_irq+0xce>
2000de32:	4b90      	ldr	r3, [pc, #576]	@ (2000e074 <dcd_rp2040_irq+0x300>)
2000de34:	781b      	ldrb	r3, [r3, #0]
2000de36:	b923      	cbnz	r3, 2000de42 <dcd_rp2040_irq+0xce>
2000de38:	f44f 3200 	mov.w	r2, #131072	@ 0x20000
2000de3c:	4b8e      	ldr	r3, [pc, #568]	@ (2000e078 <dcd_rp2040_irq+0x304>)
2000de3e:	f8c3 2090 	str.w	r2, [r3, #144]	@ 0x90
2000de42:	f44f 7240 	mov.w	r2, #768	@ 0x300
2000de46:	4b87      	ldr	r3, [pc, #540]	@ (2000e064 <dcd_rp2040_irq+0x2f0>)
2000de48:	2101      	movs	r1, #1
2000de4a:	6c9b      	ldr	r3, [r3, #72]	@ 0x48
2000de4c:	a801      	add	r0, sp, #4
2000de4e:	f3c3 030a 	ubfx	r3, r3, #0, #11
2000de52:	f8ad 2004 	strh.w	r2, [sp, #4]
2000de56:	9302      	str	r3, [sp, #8]
2000de58:	f000 fb94 	bl	2000e584 <dcd_event_handler>
2000de5c:	06ea      	lsls	r2, r5, #27
2000de5e:	f44f 3600 	mov.w	r6, #131072	@ 0x20000
2000de62:	4c86      	ldr	r4, [pc, #536]	@ (2000e07c <dcd_rp2040_irq+0x308>)
2000de64:	d507      	bpl.n	2000de76 <dcd_rp2040_irq+0x102>
2000de66:	f7ff ff3d 	bl	2000dce4 <hw_handle_buff_status>
2000de6a:	4626      	mov	r6, r4
2000de6c:	e003      	b.n	2000de76 <dcd_rp2040_irq+0x102>
2000de6e:	06ea      	lsls	r2, r5, #27
2000de70:	f04f 0410 	mov.w	r4, #16
2000de74:	d4f7      	bmi.n	2000de66 <dcd_rp2040_irq+0xf2>
2000de76:	03eb      	lsls	r3, r5, #15
2000de78:	d522      	bpl.n	2000dec0 <dcd_rp2040_irq+0x14c>
2000de7a:	4c7c      	ldr	r4, [pc, #496]	@ (2000e06c <dcd_rp2040_irq+0x2f8>)
2000de7c:	f446 3680 	orr.w	r6, r6, #65536	@ 0x10000
2000de80:	7ea3      	ldrb	r3, [r4, #26]
2000de82:	2b00      	cmp	r3, #0
2000de84:	f040 8099 	bne.w	2000dfba <dcd_rp2040_irq+0x246>
2000de88:	2301      	movs	r3, #1
2000de8a:	f894 203a 	ldrb.w	r2, [r4, #58]	@ 0x3a
2000de8e:	70e3      	strb	r3, [r4, #3]
2000de90:	2a00      	cmp	r2, #0
2000de92:	f040 80ad 	bne.w	2000dff0 <dcd_rp2040_irq+0x27c>
2000de96:	2301      	movs	r3, #1
2000de98:	f44f 61c0 	mov.w	r1, #1536	@ 0x600
2000de9c:	4a78      	ldr	r2, [pc, #480]	@ (2000e080 <dcd_rp2040_irq+0x30c>)
2000de9e:	f884 3023 	strb.w	r3, [r4, #35]	@ 0x23
2000dea2:	f8ad 1004 	strh.w	r1, [sp, #4]
2000dea6:	e892 0003 	ldmia.w	r2, {r0, r1}
2000deaa:	aa04      	add	r2, sp, #16
2000deac:	e902 0003 	stmdb	r2, {r0, r1}
2000deb0:	4619      	mov	r1, r3
2000deb2:	a801      	add	r0, sp, #4
2000deb4:	f000 fb66 	bl	2000e584 <dcd_event_handler>
2000deb8:	f44f 3200 	mov.w	r2, #131072	@ 0x20000
2000debc:	4b6e      	ldr	r3, [pc, #440]	@ (2000e078 <dcd_rp2040_irq+0x304>)
2000debe:	651a      	str	r2, [r3, #80]	@ 0x50
2000dec0:	04e9      	lsls	r1, r5, #19
2000dec2:	d408      	bmi.n	2000ded6 <dcd_rp2040_irq+0x162>
2000dec4:	046a      	lsls	r2, r5, #17
2000dec6:	d41d      	bmi.n	2000df04 <dcd_rp2040_irq+0x190>
2000dec8:	042b      	lsls	r3, r5, #16
2000deca:	d42a      	bmi.n	2000df22 <dcd_rp2040_irq+0x1ae>
2000decc:	42ae      	cmp	r6, r5
2000dece:	f040 81c5 	bne.w	2000e25c <dcd_rp2040_irq+0x4e8>
2000ded2:	b005      	add	sp, #20
2000ded4:	bdf0      	pop	{r4, r5, r6, r7, pc}
2000ded6:	2400      	movs	r4, #0
2000ded8:	4b62      	ldr	r3, [pc, #392]	@ (2000e064 <dcd_rp2040_irq+0x2f0>)
2000deda:	f446 5680 	orr.w	r6, r6, #4096	@ 0x1000
2000dede:	601c      	str	r4, [r3, #0]
2000dee0:	f7ff fece 	bl	2000dc80 <reset_non_control_endpoints>
2000dee4:	f44f 7380 	mov.w	r3, #256	@ 0x100
2000dee8:	2101      	movs	r1, #1
2000deea:	a801      	add	r0, sp, #4
2000deec:	f8ad 3004 	strh.w	r3, [sp, #4]
2000def0:	f88d 4008 	strb.w	r4, [sp, #8]
2000def4:	f000 fb46 	bl	2000e584 <dcd_event_handler>
2000def8:	f44f 2200 	mov.w	r2, #524288	@ 0x80000
2000defc:	4b5e      	ldr	r3, [pc, #376]	@ (2000e078 <dcd_rp2040_irq+0x304>)
2000defe:	651a      	str	r2, [r3, #80]	@ 0x50
2000df00:	046a      	lsls	r2, r5, #17
2000df02:	d5e1      	bpl.n	2000dec8 <dcd_rp2040_irq+0x154>
2000df04:	f44f 6380 	mov.w	r3, #1024	@ 0x400
2000df08:	2101      	movs	r1, #1
2000df0a:	a801      	add	r0, sp, #4
2000df0c:	f8ad 3004 	strh.w	r3, [sp, #4]
2000df10:	f000 fb38 	bl	2000e584 <dcd_event_handler>
2000df14:	2210      	movs	r2, #16
2000df16:	4b58      	ldr	r3, [pc, #352]	@ (2000e078 <dcd_rp2040_irq+0x304>)
2000df18:	f446 4680 	orr.w	r6, r6, #16384	@ 0x4000
2000df1c:	651a      	str	r2, [r3, #80]	@ 0x50
2000df1e:	042b      	lsls	r3, r5, #16
2000df20:	d5d4      	bpl.n	2000decc <dcd_rp2040_irq+0x158>
2000df22:	f44f 63a0 	mov.w	r3, #1280	@ 0x500
2000df26:	2101      	movs	r1, #1
2000df28:	a801      	add	r0, sp, #4
2000df2a:	f8ad 3004 	strh.w	r3, [sp, #4]
2000df2e:	f000 fb29 	bl	2000e584 <dcd_event_handler>
2000df32:	f44f 6200 	mov.w	r2, #2048	@ 0x800
2000df36:	4b50      	ldr	r3, [pc, #320]	@ (2000e078 <dcd_rp2040_irq+0x304>)
2000df38:	f446 4600 	orr.w	r6, r6, #32768	@ 0x8000
2000df3c:	651a      	str	r2, [r3, #80]	@ 0x50
2000df3e:	e7c5      	b.n	2000decc <dcd_rp2040_irq+0x158>
2000df40:	f894 603a 	ldrb.w	r6, [r4, #58]	@ 0x3a
2000df44:	2e00      	cmp	r6, #0
2000df46:	f43f af28 	beq.w	2000dd9a <dcd_rp2040_irq+0x26>
2000df4a:	f894 303c 	ldrb.w	r3, [r4, #60]	@ 0x3c
2000df4e:	2b00      	cmp	r3, #0
2000df50:	f43f af23 	beq.w	2000dd9a <dcd_rp2040_irq+0x26>
2000df54:	2300      	movs	r3, #0
2000df56:	f104 0020 	add.w	r0, r4, #32
2000df5a:	f884 303c 	strb.w	r3, [r4, #60]	@ 0x3c
2000df5e:	f000 fac1 	bl	2000e4e4 <hw_endpoint_start_next_buffer>
2000df62:	e71a      	b.n	2000dd9a <dcd_rp2040_irq+0x26>
2000df64:	f894 737a 	ldrb.w	r7, [r4, #890]	@ 0x37a
2000df68:	2f00      	cmp	r7, #0
2000df6a:	f43f af57 	beq.w	2000de1c <dcd_rp2040_irq+0xa8>
2000df6e:	f894 337c 	ldrb.w	r3, [r4, #892]	@ 0x37c
2000df72:	2b00      	cmp	r3, #0
2000df74:	f040 8164 	bne.w	2000e240 <dcd_rp2040_irq+0x4cc>
2000df78:	f894 33bb 	ldrb.w	r3, [r4, #955]	@ 0x3bb
2000df7c:	2b02      	cmp	r3, #2
2000df7e:	f040 80f4 	bne.w	2000e16a <dcd_rp2040_irq+0x3f6>
2000df82:	f894 33ba 	ldrb.w	r3, [r4, #954]	@ 0x3ba
2000df86:	2b00      	cmp	r3, #0
2000df88:	f040 80eb 	bne.w	2000e162 <dcd_rp2040_irq+0x3ee>
2000df8c:	f894 33fb 	ldrb.w	r3, [r4, #1019]	@ 0x3fb
2000df90:	2b02      	cmp	r3, #2
2000df92:	f47f af56 	bne.w	2000de42 <dcd_rp2040_irq+0xce>
2000df96:	463e      	mov	r6, r7
2000df98:	f894 33fa 	ldrb.w	r3, [r4, #1018]	@ 0x3fa
2000df9c:	2b00      	cmp	r3, #0
2000df9e:	f43f af47 	beq.w	2000de30 <dcd_rp2040_irq+0xbc>
2000dfa2:	f894 33fc 	ldrb.w	r3, [r4, #1020]	@ 0x3fc
2000dfa6:	2b00      	cmp	r3, #0
2000dfa8:	f43f af4b 	beq.w	2000de42 <dcd_rp2040_irq+0xce>
2000dfac:	2300      	movs	r3, #0
2000dfae:	4835      	ldr	r0, [pc, #212]	@ (2000e084 <dcd_rp2040_irq+0x310>)
2000dfb0:	f884 33fc 	strb.w	r3, [r4, #1020]	@ 0x3fc
2000dfb4:	f000 fa96 	bl	2000e4e4 <hw_endpoint_start_next_buffer>
2000dfb8:	e743      	b.n	2000de42 <dcd_rp2040_irq+0xce>
2000dfba:	2102      	movs	r1, #2
2000dfbc:	4b32      	ldr	r3, [pc, #200]	@ (2000e088 <dcd_rp2040_irq+0x314>)
2000dfbe:	4a29      	ldr	r2, [pc, #164]	@ (2000e064 <dcd_rp2040_irq+0x2f0>)
2000dfc0:	6619      	str	r1, [r3, #96]	@ 0x60
2000dfc2:	6e53      	ldr	r3, [r2, #100]	@ 0x64
2000dfc4:	079f      	lsls	r7, r3, #30
2000dfc6:	d5fc      	bpl.n	2000dfc2 <dcd_rp2040_irq+0x24e>
2000dfc8:	f44f 5240 	mov.w	r2, #12288	@ 0x3000
2000dfcc:	2100      	movs	r1, #0
2000dfce:	4827      	ldr	r0, [pc, #156]	@ (2000e06c <dcd_rp2040_irq+0x2f8>)
2000dfd0:	f000 fa66 	bl	2000e4a0 <_hw_endpoint_buffer_control_update32>
2000dfd4:	4825      	ldr	r0, [pc, #148]	@ (2000e06c <dcd_rp2040_irq+0x2f8>)
2000dfd6:	f000 fa5d 	bl	2000e494 <hw_endpoint_reset_transfer>
2000dfda:	2202      	movs	r2, #2
2000dfdc:	4b26      	ldr	r3, [pc, #152]	@ (2000e078 <dcd_rp2040_irq+0x304>)
2000dfde:	665a      	str	r2, [r3, #100]	@ 0x64
2000dfe0:	661a      	str	r2, [r3, #96]	@ 0x60
2000dfe2:	2301      	movs	r3, #1
2000dfe4:	f894 203a 	ldrb.w	r2, [r4, #58]	@ 0x3a
2000dfe8:	70e3      	strb	r3, [r4, #3]
2000dfea:	2a00      	cmp	r2, #0
2000dfec:	f43f af53 	beq.w	2000de96 <dcd_rp2040_irq+0x122>
2000dff0:	4a25      	ldr	r2, [pc, #148]	@ (2000e088 <dcd_rp2040_irq+0x314>)
2000dff2:	6613      	str	r3, [r2, #96]	@ 0x60
2000dff4:	f5a2 5200 	sub.w	r2, r2, #8192	@ 0x2000
2000dff8:	6e53      	ldr	r3, [r2, #100]	@ 0x64
2000dffa:	07d8      	lsls	r0, r3, #31
2000dffc:	d5fc      	bpl.n	2000dff8 <dcd_rp2040_irq+0x284>
2000dffe:	f44f 5240 	mov.w	r2, #12288	@ 0x3000
2000e002:	2100      	movs	r1, #0
2000e004:	4821      	ldr	r0, [pc, #132]	@ (2000e08c <dcd_rp2040_irq+0x318>)
2000e006:	f000 fa4b 	bl	2000e4a0 <_hw_endpoint_buffer_control_update32>
2000e00a:	4820      	ldr	r0, [pc, #128]	@ (2000e08c <dcd_rp2040_irq+0x318>)
2000e00c:	f000 fa42 	bl	2000e494 <hw_endpoint_reset_transfer>
2000e010:	2201      	movs	r2, #1
2000e012:	4b19      	ldr	r3, [pc, #100]	@ (2000e078 <dcd_rp2040_irq+0x304>)
2000e014:	665a      	str	r2, [r3, #100]	@ 0x64
2000e016:	661a      	str	r2, [r3, #96]	@ 0x60
2000e018:	e73d      	b.n	2000de96 <dcd_rp2040_irq+0x122>
2000e01a:	f894 707a 	ldrb.w	r7, [r4, #122]	@ 0x7a
2000e01e:	2f00      	cmp	r7, #0
2000e020:	f43f aec0 	beq.w	2000dda4 <dcd_rp2040_irq+0x30>
2000e024:	f894 307c 	ldrb.w	r3, [r4, #124]	@ 0x7c
2000e028:	2b00      	cmp	r3, #0
2000e02a:	f040 8101 	bne.w	2000e230 <dcd_rp2040_irq+0x4bc>
2000e02e:	463e      	mov	r6, r7
2000e030:	e6b8      	b.n	2000dda4 <dcd_rp2040_irq+0x30>
2000e032:	f894 717a 	ldrb.w	r7, [r4, #378]	@ 0x17a
2000e036:	2f00      	cmp	r7, #0
2000e038:	f43f aec8 	beq.w	2000ddcc <dcd_rp2040_irq+0x58>
2000e03c:	f894 317c 	ldrb.w	r3, [r4, #380]	@ 0x17c
2000e040:	2b00      	cmp	r3, #0
2000e042:	f040 80ed 	bne.w	2000e220 <dcd_rp2040_irq+0x4ac>
2000e046:	463e      	mov	r6, r7
2000e048:	e6c0      	b.n	2000ddcc <dcd_rp2040_irq+0x58>
2000e04a:	f894 713a 	ldrb.w	r7, [r4, #314]	@ 0x13a
2000e04e:	2f00      	cmp	r7, #0
2000e050:	f43f aeb7 	beq.w	2000ddc2 <dcd_rp2040_irq+0x4e>
2000e054:	f894 313c 	ldrb.w	r3, [r4, #316]	@ 0x13c
2000e058:	2b00      	cmp	r3, #0
2000e05a:	f040 80d9 	bne.w	2000e210 <dcd_rp2040_irq+0x49c>
2000e05e:	463e      	mov	r6, r7
2000e060:	e6af      	b.n	2000ddc2 <dcd_rp2040_irq+0x4e>
2000e062:	bf00      	nop
2000e064:	50110000 	.word	0x50110000
2000e068:	400b0000 	.word	0x400b0000
2000e06c:	2005a30c 	.word	0x2005a30c
2000e070:	20059c8c 	.word	0x20059c8c
2000e074:	2005afc7 	.word	0x2005afc7
2000e078:	50113000 	.word	0x50113000
2000e07c:	00020010 	.word	0x00020010
2000e080:	50100000 	.word	0x50100000
2000e084:	2005a6ec 	.word	0x2005a6ec
2000e088:	50112000 	.word	0x50112000
2000e08c:	2005a32c 	.word	0x2005a32c
2000e090:	f894 70fa 	ldrb.w	r7, [r4, #250]	@ 0xfa
2000e094:	2f00      	cmp	r7, #0
2000e096:	f43f ae8f 	beq.w	2000ddb8 <dcd_rp2040_irq+0x44>
2000e09a:	f894 30fc 	ldrb.w	r3, [r4, #252]	@ 0xfc
2000e09e:	2b00      	cmp	r3, #0
2000e0a0:	f040 808e 	bne.w	2000e1c0 <dcd_rp2040_irq+0x44c>
2000e0a4:	463e      	mov	r6, r7
2000e0a6:	e687      	b.n	2000ddb8 <dcd_rp2040_irq+0x44>
2000e0a8:	f894 70ba 	ldrb.w	r7, [r4, #186]	@ 0xba
2000e0ac:	2f00      	cmp	r7, #0
2000e0ae:	f43f ae7e 	beq.w	2000ddae <dcd_rp2040_irq+0x3a>
2000e0b2:	f894 30bc 	ldrb.w	r3, [r4, #188]	@ 0xbc
2000e0b6:	2b00      	cmp	r3, #0
2000e0b8:	d17a      	bne.n	2000e1b0 <dcd_rp2040_irq+0x43c>
2000e0ba:	463e      	mov	r6, r7
2000e0bc:	e677      	b.n	2000ddae <dcd_rp2040_irq+0x3a>
2000e0be:	f894 733a 	ldrb.w	r7, [r4, #826]	@ 0x33a
2000e0c2:	2f00      	cmp	r7, #0
2000e0c4:	f43f aea5 	beq.w	2000de12 <dcd_rp2040_irq+0x9e>
2000e0c8:	f894 333c 	ldrb.w	r3, [r4, #828]	@ 0x33c
2000e0cc:	2b00      	cmp	r3, #0
2000e0ce:	d157      	bne.n	2000e180 <dcd_rp2040_irq+0x40c>
2000e0d0:	463e      	mov	r6, r7
2000e0d2:	e69e      	b.n	2000de12 <dcd_rp2040_irq+0x9e>
2000e0d4:	f894 72fa 	ldrb.w	r7, [r4, #762]	@ 0x2fa
2000e0d8:	2f00      	cmp	r7, #0
2000e0da:	f43f ae95 	beq.w	2000de08 <dcd_rp2040_irq+0x94>
2000e0de:	f894 32fc 	ldrb.w	r3, [r4, #764]	@ 0x2fc
2000e0e2:	2b00      	cmp	r3, #0
2000e0e4:	d15c      	bne.n	2000e1a0 <dcd_rp2040_irq+0x42c>
2000e0e6:	463e      	mov	r6, r7
2000e0e8:	e68e      	b.n	2000de08 <dcd_rp2040_irq+0x94>
2000e0ea:	f894 72ba 	ldrb.w	r7, [r4, #698]	@ 0x2ba
2000e0ee:	2f00      	cmp	r7, #0
2000e0f0:	f43f ae85 	beq.w	2000ddfe <dcd_rp2040_irq+0x8a>
2000e0f4:	f894 32bc 	ldrb.w	r3, [r4, #700]	@ 0x2bc
2000e0f8:	2b00      	cmp	r3, #0
2000e0fa:	d149      	bne.n	2000e190 <dcd_rp2040_irq+0x41c>
2000e0fc:	463e      	mov	r6, r7
2000e0fe:	e67e      	b.n	2000ddfe <dcd_rp2040_irq+0x8a>
2000e100:	f894 727a 	ldrb.w	r7, [r4, #634]	@ 0x27a
2000e104:	2f00      	cmp	r7, #0
2000e106:	f43f ae75 	beq.w	2000ddf4 <dcd_rp2040_irq+0x80>
2000e10a:	f894 327c 	ldrb.w	r3, [r4, #636]	@ 0x27c
2000e10e:	2b00      	cmp	r3, #0
2000e110:	d176      	bne.n	2000e200 <dcd_rp2040_irq+0x48c>
2000e112:	463e      	mov	r6, r7
2000e114:	e66e      	b.n	2000ddf4 <dcd_rp2040_irq+0x80>
2000e116:	f894 723a 	ldrb.w	r7, [r4, #570]	@ 0x23a
2000e11a:	2f00      	cmp	r7, #0
2000e11c:	f43f ae65 	beq.w	2000ddea <dcd_rp2040_irq+0x76>
2000e120:	f894 323c 	ldrb.w	r3, [r4, #572]	@ 0x23c
2000e124:	2b00      	cmp	r3, #0
2000e126:	d163      	bne.n	2000e1f0 <dcd_rp2040_irq+0x47c>
2000e128:	463e      	mov	r6, r7
2000e12a:	e65e      	b.n	2000ddea <dcd_rp2040_irq+0x76>
2000e12c:	f894 71fa 	ldrb.w	r7, [r4, #506]	@ 0x1fa
2000e130:	2f00      	cmp	r7, #0
2000e132:	f43f ae55 	beq.w	2000dde0 <dcd_rp2040_irq+0x6c>
2000e136:	f894 31fc 	ldrb.w	r3, [r4, #508]	@ 0x1fc
2000e13a:	2b00      	cmp	r3, #0
2000e13c:	d150      	bne.n	2000e1e0 <dcd_rp2040_irq+0x46c>
2000e13e:	463e      	mov	r6, r7
2000e140:	e64e      	b.n	2000dde0 <dcd_rp2040_irq+0x6c>
2000e142:	f894 71ba 	ldrb.w	r7, [r4, #442]	@ 0x1ba
2000e146:	2f00      	cmp	r7, #0
2000e148:	f43f ae45 	beq.w	2000ddd6 <dcd_rp2040_irq+0x62>
2000e14c:	f894 31bc 	ldrb.w	r3, [r4, #444]	@ 0x1bc
2000e150:	2b00      	cmp	r3, #0
2000e152:	d13d      	bne.n	2000e1d0 <dcd_rp2040_irq+0x45c>
2000e154:	463e      	mov	r6, r7
2000e156:	e63e      	b.n	2000ddd6 <dcd_rp2040_irq+0x62>
2000e158:	f894 33ba 	ldrb.w	r3, [r4, #954]	@ 0x3ba
2000e15c:	2b00      	cmp	r3, #0
2000e15e:	f43f ae62 	beq.w	2000de26 <dcd_rp2040_irq+0xb2>
2000e162:	f894 33bc 	ldrb.w	r3, [r4, #956]	@ 0x3bc
2000e166:	2b00      	cmp	r3, #0
2000e168:	d171      	bne.n	2000e24e <dcd_rp2040_irq+0x4da>
2000e16a:	f894 33fb 	ldrb.w	r3, [r4, #1019]	@ 0x3fb
2000e16e:	2b02      	cmp	r3, #2
2000e170:	f47f ae67 	bne.w	2000de42 <dcd_rp2040_irq+0xce>
2000e174:	f894 33fa 	ldrb.w	r3, [r4, #1018]	@ 0x3fa
2000e178:	2b00      	cmp	r3, #0
2000e17a:	f43f ae62 	beq.w	2000de42 <dcd_rp2040_irq+0xce>
2000e17e:	e710      	b.n	2000dfa2 <dcd_rp2040_irq+0x22e>
2000e180:	2300      	movs	r3, #0
2000e182:	4839      	ldr	r0, [pc, #228]	@ (2000e268 <dcd_rp2040_irq+0x4f4>)
2000e184:	f884 333c 	strb.w	r3, [r4, #828]	@ 0x33c
2000e188:	463e      	mov	r6, r7
2000e18a:	f000 f9ab 	bl	2000e4e4 <hw_endpoint_start_next_buffer>
2000e18e:	e640      	b.n	2000de12 <dcd_rp2040_irq+0x9e>
2000e190:	2300      	movs	r3, #0
2000e192:	4836      	ldr	r0, [pc, #216]	@ (2000e26c <dcd_rp2040_irq+0x4f8>)
2000e194:	f884 32bc 	strb.w	r3, [r4, #700]	@ 0x2bc
2000e198:	463e      	mov	r6, r7
2000e19a:	f000 f9a3 	bl	2000e4e4 <hw_endpoint_start_next_buffer>
2000e19e:	e62e      	b.n	2000ddfe <dcd_rp2040_irq+0x8a>
2000e1a0:	2300      	movs	r3, #0
2000e1a2:	4833      	ldr	r0, [pc, #204]	@ (2000e270 <dcd_rp2040_irq+0x4fc>)
2000e1a4:	f884 32fc 	strb.w	r3, [r4, #764]	@ 0x2fc
2000e1a8:	463e      	mov	r6, r7
2000e1aa:	f000 f99b 	bl	2000e4e4 <hw_endpoint_start_next_buffer>
2000e1ae:	e62b      	b.n	2000de08 <dcd_rp2040_irq+0x94>
2000e1b0:	2300      	movs	r3, #0
2000e1b2:	4830      	ldr	r0, [pc, #192]	@ (2000e274 <dcd_rp2040_irq+0x500>)
2000e1b4:	f884 30bc 	strb.w	r3, [r4, #188]	@ 0xbc
2000e1b8:	463e      	mov	r6, r7
2000e1ba:	f000 f993 	bl	2000e4e4 <hw_endpoint_start_next_buffer>
2000e1be:	e5f6      	b.n	2000ddae <dcd_rp2040_irq+0x3a>
2000e1c0:	2300      	movs	r3, #0
2000e1c2:	482d      	ldr	r0, [pc, #180]	@ (2000e278 <dcd_rp2040_irq+0x504>)
2000e1c4:	f884 30fc 	strb.w	r3, [r4, #252]	@ 0xfc
2000e1c8:	463e      	mov	r6, r7
2000e1ca:	f000 f98b 	bl	2000e4e4 <hw_endpoint_start_next_buffer>
2000e1ce:	e5f3      	b.n	2000ddb8 <dcd_rp2040_irq+0x44>
2000e1d0:	2300      	movs	r3, #0
2000e1d2:	482a      	ldr	r0, [pc, #168]	@ (2000e27c <dcd_rp2040_irq+0x508>)
2000e1d4:	f884 31bc 	strb.w	r3, [r4, #444]	@ 0x1bc
2000e1d8:	463e      	mov	r6, r7
2000e1da:	f000 f983 	bl	2000e4e4 <hw_endpoint_start_next_buffer>
2000e1de:	e5fa      	b.n	2000ddd6 <dcd_rp2040_irq+0x62>
2000e1e0:	2300      	movs	r3, #0
2000e1e2:	4827      	ldr	r0, [pc, #156]	@ (2000e280 <dcd_rp2040_irq+0x50c>)
2000e1e4:	f884 31fc 	strb.w	r3, [r4, #508]	@ 0x1fc
2000e1e8:	463e      	mov	r6, r7
2000e1ea:	f000 f97b 	bl	2000e4e4 <hw_endpoint_start_next_buffer>
2000e1ee:	e5f7      	b.n	2000dde0 <dcd_rp2040_irq+0x6c>
2000e1f0:	2300      	movs	r3, #0
2000e1f2:	4824      	ldr	r0, [pc, #144]	@ (2000e284 <dcd_rp2040_irq+0x510>)
2000e1f4:	f884 323c 	strb.w	r3, [r4, #572]	@ 0x23c
2000e1f8:	463e      	mov	r6, r7
2000e1fa:	f000 f973 	bl	2000e4e4 <hw_endpoint_start_next_buffer>
2000e1fe:	e5f4      	b.n	2000ddea <dcd_rp2040_irq+0x76>
2000e200:	2300      	movs	r3, #0
2000e202:	4821      	ldr	r0, [pc, #132]	@ (2000e288 <dcd_rp2040_irq+0x514>)
2000e204:	f884 327c 	strb.w	r3, [r4, #636]	@ 0x27c
2000e208:	463e      	mov	r6, r7
2000e20a:	f000 f96b 	bl	2000e4e4 <hw_endpoint_start_next_buffer>
2000e20e:	e5f1      	b.n	2000ddf4 <dcd_rp2040_irq+0x80>
2000e210:	2300      	movs	r3, #0
2000e212:	481e      	ldr	r0, [pc, #120]	@ (2000e28c <dcd_rp2040_irq+0x518>)
2000e214:	f884 313c 	strb.w	r3, [r4, #316]	@ 0x13c
2000e218:	463e      	mov	r6, r7
2000e21a:	f000 f963 	bl	2000e4e4 <hw_endpoint_start_next_buffer>
2000e21e:	e5d0      	b.n	2000ddc2 <dcd_rp2040_irq+0x4e>
2000e220:	2300      	movs	r3, #0
2000e222:	481b      	ldr	r0, [pc, #108]	@ (2000e290 <dcd_rp2040_irq+0x51c>)
2000e224:	f884 317c 	strb.w	r3, [r4, #380]	@ 0x17c
2000e228:	463e      	mov	r6, r7
2000e22a:	f000 f95b 	bl	2000e4e4 <hw_endpoint_start_next_buffer>
2000e22e:	e5cd      	b.n	2000ddcc <dcd_rp2040_irq+0x58>
2000e230:	2300      	movs	r3, #0
2000e232:	4818      	ldr	r0, [pc, #96]	@ (2000e294 <dcd_rp2040_irq+0x520>)
2000e234:	f884 307c 	strb.w	r3, [r4, #124]	@ 0x7c
2000e238:	463e      	mov	r6, r7
2000e23a:	f000 f953 	bl	2000e4e4 <hw_endpoint_start_next_buffer>
2000e23e:	e5b1      	b.n	2000dda4 <dcd_rp2040_irq+0x30>
2000e240:	2300      	movs	r3, #0
2000e242:	4815      	ldr	r0, [pc, #84]	@ (2000e298 <dcd_rp2040_irq+0x524>)
2000e244:	f884 337c 	strb.w	r3, [r4, #892]	@ 0x37c
2000e248:	f000 f94c 	bl	2000e4e4 <hw_endpoint_start_next_buffer>
2000e24c:	e694      	b.n	2000df78 <dcd_rp2040_irq+0x204>
2000e24e:	2300      	movs	r3, #0
2000e250:	4812      	ldr	r0, [pc, #72]	@ (2000e29c <dcd_rp2040_irq+0x528>)
2000e252:	f884 33bc 	strb.w	r3, [r4, #956]	@ 0x3bc
2000e256:	f000 f945 	bl	2000e4e4 <hw_endpoint_start_next_buffer>
2000e25a:	e786      	b.n	2000e16a <dcd_rp2040_irq+0x3f6>
2000e25c:	4810      	ldr	r0, [pc, #64]	@ (2000e2a0 <dcd_rp2040_irq+0x52c>)
2000e25e:	ea86 0105 	eor.w	r1, r6, r5
2000e262:	f7f4 fa47 	bl	200026f4 <panic>
2000e266:	bf00      	nop
2000e268:	2005a62c 	.word	0x2005a62c
2000e26c:	2005a5ac 	.word	0x2005a5ac
2000e270:	2005a5ec 	.word	0x2005a5ec
2000e274:	2005a3ac 	.word	0x2005a3ac
2000e278:	2005a3ec 	.word	0x2005a3ec
2000e27c:	2005a4ac 	.word	0x2005a4ac
2000e280:	2005a4ec 	.word	0x2005a4ec
2000e284:	2005a52c 	.word	0x2005a52c
2000e288:	2005a56c 	.word	0x2005a56c
2000e28c:	2005a42c 	.word	0x2005a42c
2000e290:	2005a46c 	.word	0x2005a46c
2000e294:	2005a36c 	.word	0x2005a36c
2000e298:	2005a66c 	.word	0x2005a66c
2000e29c:	2005a6ac 	.word	0x2005a6ac
2000e2a0:	2000eb14 	.word	0x2000eb14

2000e2a4 <prepare_ep_buffer>:
2000e2a4:	e92d 47f0 	stmdb	sp!, {r4, r5, r6, r7, r8, r9, sl, lr}
2000e2a8:	8a84      	ldrh	r4, [r0, #20]
2000e2aa:	8b05      	ldrh	r5, [r0, #24]
2000e2ac:	78c2      	ldrb	r2, [r0, #3]
2000e2ae:	42a5      	cmp	r5, r4
2000e2b0:	bf28      	it	cs
2000e2b2:	4625      	movcs	r5, r4
2000e2b4:	1e17      	subs	r7, r2, #0
2000e2b6:	bf18      	it	ne
2000e2b8:	2701      	movne	r7, #1
2000e2ba:	1b64      	subs	r4, r4, r5
2000e2bc:	7846      	ldrb	r6, [r0, #1]
2000e2be:	f082 0201 	eor.w	r2, r2, #1
2000e2c2:	b2a4      	uxth	r4, r4
2000e2c4:	4603      	mov	r3, r0
2000e2c6:	70c2      	strb	r2, [r0, #3]
2000e2c8:	8284      	strh	r4, [r0, #20]
2000e2ca:	f445 6080 	orr.w	r0, r5, #1024	@ 0x400
2000e2ce:	ea40 3047 	orr.w	r0, r0, r7, lsl #13
2000e2d2:	bba6      	cbnz	r6, 2000e33e <prepare_ep_buffer+0x9a>
2000e2d4:	e9d3 2603 	ldrd	r2, r6, [r3, #12]
2000e2d8:	1e6f      	subs	r7, r5, #1
2000e2da:	eb02 1e81 	add.w	lr, r2, r1, lsl #6
2000e2de:	b355      	cbz	r5, 2000e336 <prepare_ep_buffer+0x92>
2000e2e0:	2f05      	cmp	r7, #5
2000e2e2:	bf98      	it	ls
2000e2e4:	1c72      	addls	r2, r6, #1
2000e2e6:	d931      	bls.n	2000e34c <prepare_ep_buffer+0xa8>
2000e2e8:	eb02 1c81 	add.w	ip, r2, r1, lsl #6
2000e2ec:	1c72      	adds	r2, r6, #1
2000e2ee:	ebac 0402 	sub.w	r4, ip, r2
2000e2f2:	2c02      	cmp	r4, #2
2000e2f4:	d92a      	bls.n	2000e34c <prepare_ep_buffer+0xa8>
2000e2f6:	4632      	mov	r2, r6
2000e2f8:	ea4f 0995 	mov.w	r9, r5, lsr #2
2000e2fc:	ea4f 0a89 	mov.w	sl, r9, lsl #2
2000e300:	eb06 0889 	add.w	r8, r6, r9, lsl #2
2000e304:	f852 4b04 	ldr.w	r4, [r2], #4
2000e308:	4542      	cmp	r2, r8
2000e30a:	f84c 4b04 	str.w	r4, [ip], #4
2000e30e:	d1f9      	bne.n	2000e304 <prepare_ep_buffer+0x60>
2000e310:	4555      	cmp	r5, sl
2000e312:	eba7 070a 	sub.w	r7, r7, sl
2000e316:	eb0e 040a 	add.w	r4, lr, sl
2000e31a:	d00a      	beq.n	2000e332 <prepare_ep_buffer+0x8e>
2000e31c:	f816 6029 	ldrb.w	r6, [r6, r9, lsl #2]
2000e320:	f80e 6029 	strb.w	r6, [lr, r9, lsl #2]
2000e324:	b12f      	cbz	r7, 2000e332 <prepare_ep_buffer+0x8e>
2000e326:	7856      	ldrb	r6, [r2, #1]
2000e328:	2f01      	cmp	r7, #1
2000e32a:	7066      	strb	r6, [r4, #1]
2000e32c:	d001      	beq.n	2000e332 <prepare_ep_buffer+0x8e>
2000e32e:	7892      	ldrb	r2, [r2, #2]
2000e330:	70a2      	strb	r2, [r4, #2]
2000e332:	691e      	ldr	r6, [r3, #16]
2000e334:	8a9c      	ldrh	r4, [r3, #20]
2000e336:	442e      	add	r6, r5
2000e338:	611e      	str	r6, [r3, #16]
2000e33a:	f440 4000 	orr.w	r0, r0, #32768	@ 0x8000
2000e33e:	b90c      	cbnz	r4, 2000e344 <prepare_ep_buffer+0xa0>
2000e340:	f440 4080 	orr.w	r0, r0, #16384	@ 0x4000
2000e344:	b101      	cbz	r1, 2000e348 <prepare_ep_buffer+0xa4>
2000e346:	0400      	lsls	r0, r0, #16
2000e348:	e8bd 87f0 	ldmia.w	sp!, {r4, r5, r6, r7, r8, r9, sl, pc}
2000e34c:	f10e 3eff 	add.w	lr, lr, #4294967295
2000e350:	442e      	add	r6, r5
2000e352:	e000      	b.n	2000e356 <prepare_ep_buffer+0xb2>
2000e354:	3201      	adds	r2, #1
2000e356:	f812 4c01 	ldrb.w	r4, [r2, #-1]
2000e35a:	42b2      	cmp	r2, r6
2000e35c:	f80e 4f01 	strb.w	r4, [lr, #1]!
2000e360:	d1f8      	bne.n	2000e354 <prepare_ep_buffer+0xb0>
2000e362:	e7e6      	b.n	2000e332 <prepare_ep_buffer+0x8e>

2000e364 <sync_ep_buffer>:
2000e364:	6883      	ldr	r3, [r0, #8]
2000e366:	4602      	mov	r2, r0
2000e368:	6818      	ldr	r0, [r3, #0]
2000e36a:	b101      	cbz	r1, 2000e36e <sync_ep_buffer+0xa>
2000e36c:	0c00      	lsrs	r0, r0, #16
2000e36e:	7853      	ldrb	r3, [r2, #1]
2000e370:	f3c0 0009 	ubfx	r0, r0, #0, #10
2000e374:	2b00      	cmp	r3, #0
2000e376:	d03c      	beq.n	2000e3f2 <sync_ep_buffer+0x8e>
2000e378:	e92d 41f0 	stmdb	sp!, {r4, r5, r6, r7, r8, lr}
2000e37c:	e9d2 3403 	ldrd	r3, r4, [r2, #12]
2000e380:	1e46      	subs	r6, r0, #1
2000e382:	eb03 1e81 	add.w	lr, r3, r1, lsl #6
2000e386:	b340      	cbz	r0, 2000e3da <sync_ep_buffer+0x76>
2000e388:	2e05      	cmp	r6, #5
2000e38a:	d93b      	bls.n	2000e404 <sync_ep_buffer+0xa0>
2000e38c:	0189      	lsls	r1, r1, #6
2000e38e:	1c4d      	adds	r5, r1, #1
2000e390:	441d      	add	r5, r3
2000e392:	1b65      	subs	r5, r4, r5
2000e394:	2d02      	cmp	r5, #2
2000e396:	d935      	bls.n	2000e404 <sync_ep_buffer+0xa0>
2000e398:	4673      	mov	r3, lr
2000e39a:	4621      	mov	r1, r4
2000e39c:	f400 777f 	and.w	r7, r0, #1020	@ 0x3fc
2000e3a0:	ea4f 0890 	mov.w	r8, r0, lsr #2
2000e3a4:	18fd      	adds	r5, r7, r3
2000e3a6:	f853 cb04 	ldr.w	ip, [r3], #4
2000e3aa:	42ab      	cmp	r3, r5
2000e3ac:	f841 cb04 	str.w	ip, [r1], #4
2000e3b0:	d1f9      	bne.n	2000e3a6 <sync_ep_buffer+0x42>
2000e3b2:	42b8      	cmp	r0, r7
2000e3b4:	eba6 0607 	sub.w	r6, r6, r7
2000e3b8:	eb04 0307 	add.w	r3, r4, r7
2000e3bc:	eb0e 0107 	add.w	r1, lr, r7
2000e3c0:	d00a      	beq.n	2000e3d8 <sync_ep_buffer+0x74>
2000e3c2:	f81e 5028 	ldrb.w	r5, [lr, r8, lsl #2]
2000e3c6:	f804 5028 	strb.w	r5, [r4, r8, lsl #2]
2000e3ca:	b12e      	cbz	r6, 2000e3d8 <sync_ep_buffer+0x74>
2000e3cc:	784c      	ldrb	r4, [r1, #1]
2000e3ce:	2e01      	cmp	r6, #1
2000e3d0:	705c      	strb	r4, [r3, #1]
2000e3d2:	d001      	beq.n	2000e3d8 <sync_ep_buffer+0x74>
2000e3d4:	7889      	ldrb	r1, [r1, #2]
2000e3d6:	7099      	strb	r1, [r3, #2]
2000e3d8:	6914      	ldr	r4, [r2, #16]
2000e3da:	8ad3      	ldrh	r3, [r2, #22]
2000e3dc:	4404      	add	r4, r0
2000e3de:	4403      	add	r3, r0
2000e3e0:	82d3      	strh	r3, [r2, #22]
2000e3e2:	8b13      	ldrh	r3, [r2, #24]
2000e3e4:	6114      	str	r4, [r2, #16]
2000e3e6:	4283      	cmp	r3, r0
2000e3e8:	bf84      	itt	hi
2000e3ea:	2300      	movhi	r3, #0
2000e3ec:	8293      	strhhi	r3, [r2, #20]
2000e3ee:	e8bd 81f0 	ldmia.w	sp!, {r4, r5, r6, r7, r8, pc}
2000e3f2:	8ad3      	ldrh	r3, [r2, #22]
2000e3f4:	4403      	add	r3, r0
2000e3f6:	82d3      	strh	r3, [r2, #22]
2000e3f8:	8b13      	ldrh	r3, [r2, #24]
2000e3fa:	4283      	cmp	r3, r0
2000e3fc:	bf84      	itt	hi
2000e3fe:	2300      	movhi	r3, #0
2000e400:	8293      	strhhi	r3, [r2, #20]
2000e402:	4770      	bx	lr
2000e404:	3c01      	subs	r4, #1
2000e406:	eb0e 0100 	add.w	r1, lr, r0
2000e40a:	f81e 3b01 	ldrb.w	r3, [lr], #1
2000e40e:	4571      	cmp	r1, lr
2000e410:	f804 3f01 	strb.w	r3, [r4, #1]!
2000e414:	d1f9      	bne.n	2000e40a <sync_ep_buffer+0xa6>
2000e416:	e7df      	b.n	2000e3d8 <sync_ep_buffer+0x74>

2000e418 <_hw_endpoint_xfer_sync>:
2000e418:	b510      	push	{r4, lr}
2000e41a:	4604      	mov	r4, r0
2000e41c:	6883      	ldr	r3, [r0, #8]
2000e41e:	2100      	movs	r1, #0
2000e420:	681b      	ldr	r3, [r3, #0]
2000e422:	f7ff ff9f 	bl	2000e364 <sync_ep_buffer>
2000e426:	6863      	ldr	r3, [r4, #4]
2000e428:	681b      	ldr	r3, [r3, #0]
2000e42a:	005b      	lsls	r3, r3, #1
2000e42c:	d502      	bpl.n	2000e434 <_hw_endpoint_xfer_sync+0x1c>
2000e42e:	8b23      	ldrh	r3, [r4, #24]
2000e430:	4283      	cmp	r3, r0
2000e432:	d000      	beq.n	2000e436 <_hw_endpoint_xfer_sync+0x1e>
2000e434:	bd10      	pop	{r4, pc}
2000e436:	4620      	mov	r0, r4
2000e438:	e8bd 4010 	ldmia.w	sp!, {r4, lr}
2000e43c:	2101      	movs	r1, #1
2000e43e:	f7ff bf91 	b.w	2000e364 <sync_ep_buffer>
2000e442:	bf00      	nop

2000e444 <e15_is_bulkin_ep>:
2000e444:	4b08      	ldr	r3, [pc, #32]	@ (2000e468 <e15_is_bulkin_ep+0x24>)
2000e446:	6c1b      	ldr	r3, [r3, #64]	@ 0x40
2000e448:	f013 0302 	ands.w	r3, r3, #2
2000e44c:	d102      	bne.n	2000e454 <e15_is_bulkin_ep+0x10>
2000e44e:	7882      	ldrb	r2, [r0, #2]
2000e450:	09d2      	lsrs	r2, r2, #7
2000e452:	d101      	bne.n	2000e458 <e15_is_bulkin_ep+0x14>
2000e454:	2000      	movs	r0, #0
2000e456:	4770      	bx	lr
2000e458:	7ec0      	ldrb	r0, [r0, #27]
2000e45a:	f1a0 0002 	sub.w	r0, r0, #2
2000e45e:	fab0 f080 	clz	r0, r0
2000e462:	0940      	lsrs	r0, r0, #5
2000e464:	4770      	bx	lr
2000e466:	bf00      	nop
2000e468:	50110000 	.word	0x50110000

2000e46c <e15_is_critical_frame_period>:
2000e46c:	b508      	push	{r3, lr}
2000e46e:	f7ff ffe9 	bl	2000e444 <e15_is_bulkin_ep>
2000e472:	b150      	cbz	r0, 2000e48a <e15_is_critical_frame_period+0x1e>
2000e474:	4a05      	ldr	r2, [pc, #20]	@ (2000e48c <e15_is_critical_frame_period+0x20>)
2000e476:	4b06      	ldr	r3, [pc, #24]	@ (2000e490 <e15_is_critical_frame_period+0x24>)
2000e478:	6a90      	ldr	r0, [r2, #40]	@ 0x28
2000e47a:	681b      	ldr	r3, [r3, #0]
2000e47c:	f5a0 7048 	sub.w	r0, r0, #800	@ 0x320
2000e480:	1ac0      	subs	r0, r0, r3
2000e482:	28c6      	cmp	r0, #198	@ 0xc6
2000e484:	bf8c      	ite	hi
2000e486:	2000      	movhi	r0, #0
2000e488:	2001      	movls	r0, #1
2000e48a:	bd08      	pop	{r3, pc}
2000e48c:	400b0000 	.word	0x400b0000
2000e490:	20059c8c 	.word	0x20059c8c

2000e494 <hw_endpoint_reset_transfer>:
2000e494:	2300      	movs	r3, #0
2000e496:	e9c0 3304 	strd	r3, r3, [r0, #16]
2000e49a:	7683      	strb	r3, [r0, #26]
2000e49c:	4770      	bx	lr
2000e49e:	bf00      	nop

2000e4a0 <_hw_endpoint_buffer_control_update32>:
2000e4a0:	b510      	push	{r4, lr}
2000e4a2:	6883      	ldr	r3, [r0, #8]
2000e4a4:	b109      	cbz	r1, 2000e4aa <_hw_endpoint_buffer_control_update32+0xa>
2000e4a6:	681c      	ldr	r4, [r3, #0]
2000e4a8:	4021      	ands	r1, r4
2000e4aa:	b182      	cbz	r2, 2000e4ce <_hw_endpoint_buffer_control_update32+0x2e>
2000e4ac:	4311      	orrs	r1, r2
2000e4ae:	0552      	lsls	r2, r2, #21
2000e4b0:	d50d      	bpl.n	2000e4ce <_hw_endpoint_buffer_control_update32+0x2e>
2000e4b2:	681a      	ldr	r2, [r3, #0]
2000e4b4:	0554      	lsls	r4, r2, #21
2000e4b6:	d40c      	bmi.n	2000e4d2 <_hw_endpoint_buffer_control_update32+0x32>
2000e4b8:	4a08      	ldr	r2, [pc, #32]	@ (2000e4dc <_hw_endpoint_buffer_control_update32+0x3c>)
2000e4ba:	f421 6480 	bic.w	r4, r1, #1024	@ 0x400
2000e4be:	601c      	str	r4, [r3, #0]
2000e4c0:	6c12      	ldr	r2, [r2, #64]	@ 0x40
2000e4c2:	0792      	lsls	r2, r2, #30
2000e4c4:	d403      	bmi.n	2000e4ce <_hw_endpoint_buffer_control_update32+0x2e>
2000e4c6:	230c      	movs	r3, #12
2000e4c8:	3b03      	subs	r3, #3
2000e4ca:	d2fd      	bcs.n	2000e4c8 <_hw_endpoint_buffer_control_update32+0x28>
2000e4cc:	6883      	ldr	r3, [r0, #8]
2000e4ce:	6019      	str	r1, [r3, #0]
2000e4d0:	bd10      	pop	{r4, pc}
2000e4d2:	7881      	ldrb	r1, [r0, #2]
2000e4d4:	4802      	ldr	r0, [pc, #8]	@ (2000e4e0 <_hw_endpoint_buffer_control_update32+0x40>)
2000e4d6:	f7f4 f90d 	bl	200026f4 <panic>
2000e4da:	bf00      	nop
2000e4dc:	50110000 	.word	0x50110000
2000e4e0:	2000eb28 	.word	0x2000eb28

2000e4e4 <hw_endpoint_start_next_buffer>:
2000e4e4:	b530      	push	{r4, r5, lr}
2000e4e6:	6843      	ldr	r3, [r0, #4]
2000e4e8:	2100      	movs	r1, #0
2000e4ea:	b083      	sub	sp, #12
2000e4ec:	4604      	mov	r4, r0
2000e4ee:	681d      	ldr	r5, [r3, #0]
2000e4f0:	f7ff fed8 	bl	2000e2a4 <prepare_ep_buffer>
2000e4f4:	4b13      	ldr	r3, [pc, #76]	@ (2000e544 <hw_endpoint_start_next_buffer+0x60>)
2000e4f6:	f440 5280 	orr.w	r2, r0, #4096	@ 0x1000
2000e4fa:	6c19      	ldr	r1, [r3, #64]	@ 0x40
2000e4fc:	78a3      	ldrb	r3, [r4, #2]
2000e4fe:	0789      	lsls	r1, r1, #30
2000e500:	d50e      	bpl.n	2000e520 <hw_endpoint_start_next_buffer+0x3c>
2000e502:	065b      	lsls	r3, r3, #25
2000e504:	d00e      	beq.n	2000e524 <hw_endpoint_start_next_buffer+0x40>
2000e506:	f025 45a0 	bic.w	r5, r5, #1342177280	@ 0x50000000
2000e50a:	f045 5500 	orr.w	r5, r5, #536870912	@ 0x20000000
2000e50e:	2100      	movs	r1, #0
2000e510:	4620      	mov	r0, r4
2000e512:	6863      	ldr	r3, [r4, #4]
2000e514:	601d      	str	r5, [r3, #0]
2000e516:	b003      	add	sp, #12
2000e518:	e8bd 4030 	ldmia.w	sp!, {r4, r5, lr}
2000e51c:	f7ff bfc0 	b.w	2000e4a0 <_hw_endpoint_buffer_control_update32>
2000e520:	09db      	lsrs	r3, r3, #7
2000e522:	d0f0      	beq.n	2000e506 <hw_endpoint_start_next_buffer+0x22>
2000e524:	8aa3      	ldrh	r3, [r4, #20]
2000e526:	2b00      	cmp	r3, #0
2000e528:	d0ed      	beq.n	2000e506 <hw_endpoint_start_next_buffer+0x22>
2000e52a:	2101      	movs	r1, #1
2000e52c:	4620      	mov	r0, r4
2000e52e:	9201      	str	r2, [sp, #4]
2000e530:	f7ff feb8 	bl	2000e2a4 <prepare_ep_buffer>
2000e534:	9a01      	ldr	r2, [sp, #4]
2000e536:	f025 5500 	bic.w	r5, r5, #536870912	@ 0x20000000
2000e53a:	4302      	orrs	r2, r0
2000e53c:	f045 45a0 	orr.w	r5, r5, #1342177280	@ 0x50000000
2000e540:	e7e5      	b.n	2000e50e <hw_endpoint_start_next_buffer+0x2a>
2000e542:	bf00      	nop
2000e544:	50110000 	.word	0x50110000

2000e548 <hw_endpoint_xfer_continue>:
2000e548:	b538      	push	{r3, r4, r5, lr}
2000e54a:	7e85      	ldrb	r5, [r0, #26]
2000e54c:	4604      	mov	r4, r0
2000e54e:	b195      	cbz	r5, 2000e576 <hw_endpoint_xfer_continue+0x2e>
2000e550:	f7ff ff62 	bl	2000e418 <_hw_endpoint_xfer_sync>
2000e554:	8aa3      	ldrh	r3, [r4, #20]
2000e556:	b90b      	cbnz	r3, 2000e55c <hw_endpoint_xfer_continue+0x14>
2000e558:	4628      	mov	r0, r5
2000e55a:	bd38      	pop	{r3, r4, r5, pc}
2000e55c:	4620      	mov	r0, r4
2000e55e:	f7ff ff85 	bl	2000e46c <e15_is_critical_frame_period>
2000e562:	b120      	cbz	r0, 2000e56e <hw_endpoint_xfer_continue+0x26>
2000e564:	2301      	movs	r3, #1
2000e566:	7723      	strb	r3, [r4, #28]
2000e568:	2500      	movs	r5, #0
2000e56a:	4628      	mov	r0, r5
2000e56c:	bd38      	pop	{r3, r4, r5, pc}
2000e56e:	4620      	mov	r0, r4
2000e570:	f7ff ffb8 	bl	2000e4e4 <hw_endpoint_start_next_buffer>
2000e574:	e7f8      	b.n	2000e568 <hw_endpoint_xfer_continue+0x20>
2000e576:	7881      	ldrb	r1, [r0, #2]
2000e578:	4801      	ldr	r0, [pc, #4]	@ (2000e580 <hw_endpoint_xfer_continue+0x38>)
2000e57a:	f7f4 f8bb 	bl	200026f4 <panic>
2000e57e:	bf00      	nop
2000e580:	2000eb48 	.word	0x2000eb48

2000e584 <dcd_event_handler>:
2000e584:	e92d 43f0 	stmdb	sp!, {r4, r5, r6, r7, r8, r9, lr}
2000e588:	7843      	ldrb	r3, [r0, #1]
2000e58a:	4604      	mov	r4, r0
2000e58c:	3b02      	subs	r3, #2
2000e58e:	460d      	mov	r5, r1
2000e590:	b085      	sub	sp, #20
2000e592:	2b04      	cmp	r3, #4
2000e594:	d813      	bhi.n	2000e5be <dcd_event_handler+0x3a>
2000e596:	e8df f003 	tbb	[pc, r3]
2000e59a:	4803      	.short	0x4803
2000e59c:	7067      	.short	0x7067
2000e59e:	42          	.byte	0x42
2000e59f:	00          	.byte	0x00
2000e5a0:	2100      	movs	r1, #0
2000e5a2:	4b78      	ldr	r3, [pc, #480]	@ (2000e784 <dcd_event_handler+0x200>)
2000e5a4:	781a      	ldrb	r2, [r3, #0]
2000e5a6:	f022 0201 	bic.w	r2, r2, #1
2000e5aa:	701a      	strb	r2, [r3, #0]
2000e5ac:	781a      	ldrb	r2, [r3, #0]
2000e5ae:	f022 0202 	bic.w	r2, r2, #2
2000e5b2:	701a      	strb	r2, [r3, #0]
2000e5b4:	7059      	strb	r1, [r3, #1]
2000e5b6:	781a      	ldrb	r2, [r3, #0]
2000e5b8:	f361 0282 	bfi	r2, r1, #2, #1
2000e5bc:	701a      	strb	r2, [r3, #0]
2000e5be:	4b72      	ldr	r3, [pc, #456]	@ (2000e788 <dcd_event_handler+0x204>)
2000e5c0:	681e      	ldr	r6, [r3, #0]
2000e5c2:	6973      	ldr	r3, [r6, #20]
2000e5c4:	f3ef 8210 	mrs	r2, PRIMASK
2000e5c8:	b672      	cpsid	i
2000e5ca:	e8d3 0fcf 	ldaexb	r0, [r3]
2000e5ce:	2101      	movs	r1, #1
2000e5d0:	2800      	cmp	r0, #0
2000e5d2:	d1fa      	bne.n	2000e5ca <dcd_event_handler+0x46>
2000e5d4:	e8c3 1f40 	strexb	r0, r1, [r3]
2000e5d8:	2800      	cmp	r0, #0
2000e5da:	d1f6      	bne.n	2000e5ca <dcd_event_handler+0x46>
2000e5dc:	f3bf 8f5f 	dmb	sy
2000e5e0:	61b2      	str	r2, [r6, #24]
2000e5e2:	4621      	mov	r1, r4
2000e5e4:	4630      	mov	r0, r6
2000e5e6:	f7f7 fe95 	bl	20006314 <tu_fifo_write>
2000e5ea:	2300      	movs	r3, #0
2000e5ec:	6972      	ldr	r2, [r6, #20]
2000e5ee:	e8c2 3f8f 	stlb	r3, [r2]
2000e5f2:	69b3      	ldr	r3, [r6, #24]
2000e5f4:	f383 8810 	msr	PRIMASK, r3
2000e5f8:	b948      	cbnz	r0, 2000e60e <dcd_event_handler+0x8a>
2000e5fa:	f04f 23e0 	mov.w	r3, #3758153728	@ 0xe000e000
2000e5fe:	f8d3 3df0 	ldr.w	r3, [r3, #3568]	@ 0xdf0
2000e602:	07db      	lsls	r3, r3, #31
2000e604:	d508      	bpl.n	2000e618 <dcd_event_handler+0x94>
2000e606:	be00      	bkpt	0x0000
2000e608:	b005      	add	sp, #20
2000e60a:	e8bd 83f0 	ldmia.w	sp!, {r4, r5, r6, r7, r8, r9, pc}
2000e60e:	462a      	mov	r2, r5
2000e610:	7861      	ldrb	r1, [r4, #1]
2000e612:	7820      	ldrb	r0, [r4, #0]
2000e614:	f7f6 fba6 	bl	20004d64 <tud_event_hook_cb>
2000e618:	b005      	add	sp, #20
2000e61a:	e8bd 83f0 	ldmia.w	sp!, {r4, r5, r6, r7, r8, r9, pc}
2000e61e:	4a5b      	ldr	r2, [pc, #364]	@ (2000e78c <dcd_event_handler+0x208>)
2000e620:	7813      	ldrb	r3, [r2, #0]
2000e622:	3301      	adds	r3, #1
2000e624:	b2db      	uxtb	r3, r3
2000e626:	7013      	strb	r3, [r2, #0]
2000e628:	e7c9      	b.n	2000e5be <dcd_event_handler+0x3a>
2000e62a:	f04f 0900 	mov.w	r9, #0
2000e62e:	4e58      	ldr	r6, [pc, #352]	@ (2000e790 <dcd_event_handler+0x20c>)
2000e630:	464b      	mov	r3, r9
2000e632:	7831      	ldrb	r1, [r6, #0]
2000e634:	f8df 8160 	ldr.w	r8, [pc, #352]	@ 2000e798 <dcd_event_handler+0x214>
2000e638:	4f56      	ldr	r7, [pc, #344]	@ (2000e794 <dcd_event_handler+0x210>)
2000e63a:	e00f      	b.n	2000e65c <dcd_event_handler+0xd8>
2000e63c:	683a      	ldr	r2, [r7, #0]
2000e63e:	eb12 1343 	adds.w	r3, r2, r3, lsl #5
2000e642:	d005      	beq.n	2000e650 <dcd_event_handler+0xcc>
2000e644:	69db      	ldr	r3, [r3, #28]
2000e646:	b11b      	cbz	r3, 2000e650 <dcd_event_handler+0xcc>
2000e648:	6861      	ldr	r1, [r4, #4]
2000e64a:	7820      	ldrb	r0, [r4, #0]
2000e64c:	4798      	blx	r3
2000e64e:	7831      	ldrb	r1, [r6, #0]
2000e650:	f109 0901 	add.w	r9, r9, #1
2000e654:	fa5f f389 	uxtb.w	r3, r9
2000e658:	428b      	cmp	r3, r1
2000e65a:	d817      	bhi.n	2000e68c <dcd_event_handler+0x108>
2000e65c:	4299      	cmp	r1, r3
2000e65e:	d8ed      	bhi.n	2000e63c <dcd_event_handler+0xb8>
2000e660:	1a5b      	subs	r3, r3, r1
2000e662:	eb08 1343 	add.w	r3, r8, r3, lsl #5
2000e666:	e7ed      	b.n	2000e644 <dcd_event_handler+0xc0>
2000e668:	4b46      	ldr	r3, [pc, #280]	@ (2000e784 <dcd_event_handler+0x200>)
2000e66a:	781a      	ldrb	r2, [r3, #0]
2000e66c:	07d7      	lsls	r7, r2, #31
2000e66e:	d5d3      	bpl.n	2000e618 <dcd_event_handler+0x94>
2000e670:	781a      	ldrb	r2, [r3, #0]
2000e672:	f042 0204 	orr.w	r2, r2, #4
2000e676:	701a      	strb	r2, [r3, #0]
2000e678:	e7a1      	b.n	2000e5be <dcd_event_handler+0x3a>
2000e67a:	4b42      	ldr	r3, [pc, #264]	@ (2000e784 <dcd_event_handler+0x200>)
2000e67c:	781a      	ldrb	r2, [r3, #0]
2000e67e:	07d6      	lsls	r6, r2, #31
2000e680:	d5ca      	bpl.n	2000e618 <dcd_event_handler+0x94>
2000e682:	781a      	ldrb	r2, [r3, #0]
2000e684:	f022 0204 	bic.w	r2, r2, #4
2000e688:	701a      	strb	r2, [r3, #0]
2000e68a:	e798      	b.n	2000e5be <dcd_event_handler+0x3a>
2000e68c:	4e3d      	ldr	r6, [pc, #244]	@ (2000e784 <dcd_event_handler+0x200>)
2000e68e:	7833      	ldrb	r3, [r6, #0]
2000e690:	0758      	lsls	r0, r3, #29
2000e692:	d437      	bmi.n	2000e704 <dcd_event_handler+0x180>
2000e694:	78f3      	ldrb	r3, [r6, #3]
2000e696:	07da      	lsls	r2, r3, #31
2000e698:	d5be      	bpl.n	2000e618 <dcd_event_handler+0x94>
2000e69a:	2303      	movs	r3, #3
2000e69c:	2700      	movs	r7, #0
2000e69e:	4a3a      	ldr	r2, [pc, #232]	@ (2000e788 <dcd_event_handler+0x204>)
2000e6a0:	7821      	ldrb	r1, [r4, #0]
2000e6a2:	6816      	ldr	r6, [r2, #0]
2000e6a4:	6862      	ldr	r2, [r4, #4]
2000e6a6:	f88d 1004 	strb.w	r1, [sp, #4]
2000e6aa:	f88d 3005 	strb.w	r3, [sp, #5]
2000e6ae:	6973      	ldr	r3, [r6, #20]
2000e6b0:	f8cd 7006 	str.w	r7, [sp, #6]
2000e6b4:	f8cd 700a 	str.w	r7, [sp, #10]
2000e6b8:	f8ad 700e 	strh.w	r7, [sp, #14]
2000e6bc:	9202      	str	r2, [sp, #8]
2000e6be:	f3ef 8210 	mrs	r2, PRIMASK
2000e6c2:	b672      	cpsid	i
2000e6c4:	e8d3 0fcf 	ldaexb	r0, [r3]
2000e6c8:	2101      	movs	r1, #1
2000e6ca:	2800      	cmp	r0, #0
2000e6cc:	d1fa      	bne.n	2000e6c4 <dcd_event_handler+0x140>
2000e6ce:	e8c3 1f40 	strexb	r0, r1, [r3]
2000e6d2:	2800      	cmp	r0, #0
2000e6d4:	d1f6      	bne.n	2000e6c4 <dcd_event_handler+0x140>
2000e6d6:	f3bf 8f5f 	dmb	sy
2000e6da:	4630      	mov	r0, r6
2000e6dc:	61b2      	str	r2, [r6, #24]
2000e6de:	a901      	add	r1, sp, #4
2000e6e0:	f7f7 fe18 	bl	20006314 <tu_fifo_write>
2000e6e4:	6973      	ldr	r3, [r6, #20]
2000e6e6:	e8c3 7f8f 	stlb	r7, [r3]
2000e6ea:	69b3      	ldr	r3, [r6, #24]
2000e6ec:	f383 8810 	msr	PRIMASK, r3
2000e6f0:	2800      	cmp	r0, #0
2000e6f2:	d082      	beq.n	2000e5fa <dcd_event_handler+0x76>
2000e6f4:	462a      	mov	r2, r5
2000e6f6:	f89d 1005 	ldrb.w	r1, [sp, #5]
2000e6fa:	f89d 0004 	ldrb.w	r0, [sp, #4]
2000e6fe:	f7f6 fb31 	bl	20004d64 <tud_event_hook_cb>
2000e702:	e789      	b.n	2000e618 <dcd_event_handler+0x94>
2000e704:	7833      	ldrb	r3, [r6, #0]
2000e706:	f04f 0800 	mov.w	r8, #0
2000e70a:	f023 0304 	bic.w	r3, r3, #4
2000e70e:	7033      	strb	r3, [r6, #0]
2000e710:	2305      	movs	r3, #5
2000e712:	4a1d      	ldr	r2, [pc, #116]	@ (2000e788 <dcd_event_handler+0x204>)
2000e714:	f88d 3005 	strb.w	r3, [sp, #5]
2000e718:	6817      	ldr	r7, [r2, #0]
2000e71a:	7822      	ldrb	r2, [r4, #0]
2000e71c:	f8ad 800e 	strh.w	r8, [sp, #14]
2000e720:	f88d 2004 	strb.w	r2, [sp, #4]
2000e724:	697b      	ldr	r3, [r7, #20]
2000e726:	f8cd 8006 	str.w	r8, [sp, #6]
2000e72a:	f8cd 800a 	str.w	r8, [sp, #10]
2000e72e:	f3ef 8210 	mrs	r2, PRIMASK
2000e732:	b672      	cpsid	i
2000e734:	e8d3 0fcf 	ldaexb	r0, [r3]
2000e738:	2101      	movs	r1, #1
2000e73a:	2800      	cmp	r0, #0
2000e73c:	d1fa      	bne.n	2000e734 <dcd_event_handler+0x1b0>
2000e73e:	e8c3 1f40 	strexb	r0, r1, [r3]
2000e742:	2800      	cmp	r0, #0
2000e744:	d1f6      	bne.n	2000e734 <dcd_event_handler+0x1b0>
2000e746:	f3bf 8f5f 	dmb	sy
2000e74a:	4638      	mov	r0, r7
2000e74c:	61ba      	str	r2, [r7, #24]
2000e74e:	a901      	add	r1, sp, #4
2000e750:	f7f7 fde0 	bl	20006314 <tu_fifo_write>
2000e754:	697b      	ldr	r3, [r7, #20]
2000e756:	e8c3 8f8f 	stlb	r8, [r3]
2000e75a:	69bb      	ldr	r3, [r7, #24]
2000e75c:	f383 8810 	msr	PRIMASK, r3
2000e760:	b938      	cbnz	r0, 2000e772 <dcd_event_handler+0x1ee>
2000e762:	f04f 23e0 	mov.w	r3, #3758153728	@ 0xe000e000
2000e766:	f8d3 3df0 	ldr.w	r3, [r3, #3568]	@ 0xdf0
2000e76a:	07d9      	lsls	r1, r3, #31
2000e76c:	d592      	bpl.n	2000e694 <dcd_event_handler+0x110>
2000e76e:	be00      	bkpt	0x0000
2000e770:	e790      	b.n	2000e694 <dcd_event_handler+0x110>
2000e772:	462a      	mov	r2, r5
2000e774:	f89d 1005 	ldrb.w	r1, [sp, #5]
2000e778:	f89d 0004 	ldrb.w	r0, [sp, #4]
2000e77c:	f7f6 faf2 	bl	20004d64 <tud_event_hook_cb>
2000e780:	e788      	b.n	2000e694 <dcd_event_handler+0x110>
2000e782:	bf00      	nop
2000e784:	20011264 	.word	0x20011264
2000e788:	200112bc 	.word	0x200112bc
2000e78c:	2005afc8 	.word	0x2005afc8
2000e790:	2005afc6 	.word	0x2005afc6
2000e794:	20010954 	.word	0x20010954
2000e798:	2000f3d8 	.word	0x2000f3d8
2000e79c:	4a325b1b 	.word	0x4a325b1b
2000e7a0:	3b315b1b 	.word	0x3b315b1b
2000e7a4:	00004831 	.word	0x00004831
2000e7a8:	7272450d 	.word	0x7272450d
2000e7ac:	6920726f 	.word	0x6920726f
2000e7b0:	6174696e 	.word	0x6174696e
2000e7b4:	697a696c 	.word	0x697a696c
2000e7b8:	5020676e 	.word	0x5020676e
2000e7bc:	4d415253 	.word	0x4d415253
2000e7c0:	000d0a21 	.word	0x000d0a21
2000e7c4:	5253500d 	.word	0x5253500d
2000e7c8:	69204d41 	.word	0x69204d41
2000e7cc:	2074696e 	.word	0x2074696e
2000e7d0:	0a214b4f 	.word	0x0a214b4f
2000e7d4:	0000000d 	.word	0x0000000d
2000e7d8:	7272450d 	.word	0x7272450d
2000e7dc:	6920726f 	.word	0x6920726f
2000e7e0:	6174696e 	.word	0x6174696e
2000e7e4:	697a696c 	.word	0x697a696c
2000e7e8:	5320676e 	.word	0x5320676e
2000e7ec:	0d0a2144 	.word	0x0d0a2144
2000e7f0:	00000000 	.word	0x00000000
2000e7f4:	2044530d 	.word	0x2044530d
2000e7f8:	74696e69 	.word	0x74696e69
2000e7fc:	214b4f20 	.word	0x214b4f20
2000e800:	00000d0a 	.word	0x00000d0a
2000e804:	41525350 	.word	0x41525350
2000e808:	6c63204d 	.word	0x6c63204d
2000e80c:	206b636f 	.word	0x206b636f
2000e810:	71657266 	.word	0x71657266
2000e814:	2e25203a 	.word	0x2e25203a
2000e818:	4d206632 	.word	0x4d206632
2000e81c:	0a0a7a48 	.word	0x0a0a7a48
2000e820:	0000000d 	.word	0x0000000d
2000e824:	74737953 	.word	0x74737953
2000e828:	63206d65 	.word	0x63206d65
2000e82c:	6b636f6c 	.word	0x6b636f6c
2000e830:	20666f20 	.word	0x20666f20
2000e834:	6b207525 	.word	0x6b207525
2000e838:	63207a48 	.word	0x63207a48
2000e83c:	6f6e6e61 	.word	0x6f6e6e61
2000e840:	65622074 	.word	0x65622074
2000e844:	61786520 	.word	0x61786520
2000e848:	796c7463 	.word	0x796c7463
2000e84c:	68636120 	.word	0x68636120
2000e850:	65766569 	.word	0x65766569
2000e854:	00000064 	.word	0x00000064
2000e858:	494e4150 	.word	0x494e4150
2000e85c:	00203a43 	.word	0x00203a43
2000e860:	69700d0a 	.word	0x69700d0a
2000e864:	722d6f63 	.word	0x722d6f63
2000e868:	69323376 	.word	0x69323376
2000e86c:	202c616d 	.word	0x202c616d
2000e870:	706d6f63 	.word	0x706d6f63
2000e874:	64656c69 	.word	0x64656c69
2000e878:	00000020 	.word	0x00000020
2000e87c:	20677541 	.word	0x20677541
2000e880:	32203832 	.word	0x32203832
2000e884:	00353230 	.word	0x00353230
2000e888:	0000003b 	.word	0x0000003b
2000e88c:	47414d49 	.word	0x47414d49
2000e890:	00000045 	.word	0x00000045
2000e894:	6f727245 	.word	0x6f727245
2000e898:	706f2072 	.word	0x706f2072
2000e89c:	6e696e65 	.word	0x6e696e65
2000e8a0:	656b2067 	.word	0x656b2067
2000e8a4:	6c656e72 	.word	0x6c656e72
2000e8a8:	73252220 	.word	0x73252220
2000e8ac:	0d0a2122 	.word	0x0d0a2122
2000e8b0:	00000000 	.word	0x00000000
2000e8b4:	64616f4c 	.word	0x64616f4c
2000e8b8:	20676e69 	.word	0x20676e69
2000e8bc:	6e72656b 	.word	0x6e72656b
2000e8c0:	22206c65 	.word	0x22206c65
2000e8c4:	20227325 	.word	0x20227325
2000e8c8:	6f746e69 	.word	0x6f746e69
2000e8cc:	4d415220 	.word	0x4d415220
2000e8d0:	00000d0a 	.word	0x00000d0a
2000e8d4:	6b206425 	.word	0x6b206425
2000e8d8:	6f732062 	.word	0x6f732062
2000e8dc:	72616620 	.word	0x72616620
2000e8e0:	202e2e2e 	.word	0x202e2e2e
2000e8e4:	00000020 	.word	0x00000020
2000e8e8:	6f727245 	.word	0x6f727245
2000e8ec:	6f6c2072 	.word	0x6f6c2072
2000e8f0:	6e696461 	.word	0x6e696461
2000e8f4:	656b2067 	.word	0x656b2067
2000e8f8:	6c656e72 	.word	0x6c656e72
2000e8fc:	0000002e 	.word	0x0000002e
2000e900:	616f4c0d 	.word	0x616f4c0d
2000e904:	20646564 	.word	0x20646564
2000e908:	6b206425 	.word	0x6b206425
2000e90c:	626f6c69 	.word	0x626f6c69
2000e910:	73657479 	.word	0x73657479
2000e914:	000d0a2e 	.word	0x000d0a2e
2000e918:	544f4f52 	.word	0x544f4f52
2000e91c:	00005346 	.word	0x00005346
2000e920:	6f727245 	.word	0x6f727245
2000e924:	706f2072 	.word	0x706f2072
2000e928:	6e696e65 	.word	0x6e696e65
2000e92c:	6c622067 	.word	0x6c622067
2000e930:	206b636f 	.word	0x206b636f
2000e934:	69766564 	.word	0x69766564
2000e938:	69206563 	.word	0x69206563
2000e93c:	6567616d 	.word	0x6567616d
2000e940:	73252220 	.word	0x73252220
2000e944:	0d0a2122 	.word	0x0d0a2122
2000e948:	00000000 	.word	0x00000000
2000e94c:	6e65704f 	.word	0x6e65704f
2000e950:	62206465 	.word	0x62206465
2000e954:	6b636f6c 	.word	0x6b636f6c
2000e958:	76656420 	.word	0x76656420
2000e95c:	20656369 	.word	0x20656369
2000e960:	67616d69 	.word	0x67616d69
2000e964:	25222065 	.word	0x25222065
2000e968:	0a2e2273 	.word	0x0a2e2273
2000e96c:	00000d0a 	.word	0x00000d0a
2000e970:	64616f4c 	.word	0x64616f4c
2000e974:	64206465 	.word	0x64206465
2000e978:	63697665 	.word	0x63697665
2000e97c:	72742065 	.word	0x72742065
2000e980:	202c6565 	.word	0x202c6565
2000e984:	666e6f63 	.word	0x666e6f63
2000e988:	72756769 	.word	0x72756769
2000e98c:	66206465 	.word	0x66206465
2000e990:	0a3a726f 	.word	0x0a3a726f
2000e994:	0000000d 	.word	0x0000000d
2000e998:	20642509 	.word	0x20642509
2000e99c:	6167656d 	.word	0x6167656d
2000e9a0:	65747962 	.word	0x65747962
2000e9a4:	41522073 	.word	0x41522073
2000e9a8:	000d0a4d 	.word	0x000d0a4d
2000e9ac:	646d6309 	.word	0x646d6309
2000e9b0:	656e696c 	.word	0x656e696c
2000e9b4:	2522203a 	.word	0x2522203a
2000e9b8:	0a0a2273 	.word	0x0a0a2273
2000e9bc:	0000000d 	.word	0x0000000d
2000e9c0:	72617453 	.word	0x72617453
2000e9c4:	676e6974 	.word	0x676e6974
2000e9c8:	53495220 	.word	0x53495220
2000e9cc:	20562d43 	.word	0x20562d43
2000e9d0:	0a0a4d56 	.word	0x0a0a4d56
2000e9d4:	0000000d 	.word	0x0000000d
2000e9d8:	4245520a 	.word	0x4245520a
2000e9dc:	40544f4f 	.word	0x40544f4f
2000e9e0:	30257830 	.word	0x30257830
2000e9e4:	30257838 	.word	0x30257838
2000e9e8:	0d0a7838 	.word	0x0d0a7838
2000e9ec:	00000000 	.word	0x00000000
2000e9f0:	574f500a 	.word	0x574f500a
2000e9f4:	464f5245 	.word	0x464f5245
2000e9f8:	78304046 	.word	0x78304046
2000e9fc:	78383025 	.word	0x78383025
2000ea00:	78383025 	.word	0x78383025
2000ea04:	00000d0a 	.word	0x00000d0a
2000ea08:	6b6e550a 	.word	0x6b6e550a
2000ea0c:	6e776f6e 	.word	0x6e776f6e
2000ea10:	69616620 	.word	0x69616620
2000ea14:	6572756c 	.word	0x6572756c
2000ea18:	00000d0a 	.word	0x00000d0a
2000ea1c:	616c7674 	.word	0x616c7674
2000ea20:	33323164 	.word	0x33323164
2000ea24:	00000034 	.word	0x00000034
2000ea28:	6f636970 	.word	0x6f636970
2000ea2c:	3376722d 	.word	0x3376722d
2000ea30:	616d6932 	.word	0x616d6932
2000ea34:	00000000 	.word	0x00000000
2000ea38:	2a2a2a0a 	.word	0x2a2a2a0a
2000ea3c:	4e415020 	.word	0x4e415020
2000ea40:	2a204349 	.word	0x2a204349
2000ea44:	000a2a2a 	.word	0x000a2a2a
2000ea48:	0000000a 	.word	0x0000000a
2000ea4c:	73206f4e 	.word	0x73206f4e
2000ea50:	6c6e6970 	.word	0x6c6e6970
2000ea54:	736b636f 	.word	0x736b636f
2000ea58:	65726120 	.word	0x65726120
2000ea5c:	61766120 	.word	0x61766120
2000ea60:	62616c69 	.word	0x62616c69
2000ea64:	0000656c 	.word	0x0000656c
2000ea68:	64726148 	.word	0x64726148
2000ea6c:	65726177 	.word	0x65726177
2000ea70:	616c6120 	.word	0x616c6120
2000ea74:	25206d72 	.word	0x25206d72
2000ea78:	6c612064 	.word	0x6c612064
2000ea7c:	64616572 	.word	0x64616572
2000ea80:	6c632079 	.word	0x6c632079
2000ea84:	656d6961 	.word	0x656d6961
2000ea88:	00000064 	.word	0x00000064
2000ea8c:	64726148 	.word	0x64726148
2000ea90:	73736120 	.word	0x73736120
2000ea94:	00747265 	.word	0x00747265
2000ea98:	2074754f 	.word	0x2074754f
2000ea9c:	6d20666f 	.word	0x6d20666f
2000eaa0:	726f6d65 	.word	0x726f6d65
2000eaa4:	00000079 	.word	0x00000079
2000eaa8:	656c6552 	.word	0x656c6552
2000eaac:	00657361 	.word	0x00657361
2000eab0:	706d6f63 	.word	0x706d6f63
2000eab4:	5f656c69 	.word	0x5f656c69
2000eab8:	656d6974 	.word	0x656d6974
2000eabc:	6f68635f 	.word	0x6f68635f
2000eac0:	00656369 	.word	0x00656369
2000eac4:	2e312e32 	.word	0x2e312e32
2000eac8:	00000031 	.word	0x00000031
2000eacc:	6f636970 	.word	0x6f636970
2000ead0:	00000032 	.word	0x00000032
2000ead4:	7566202c 	.word	0x7566202c
2000ead8:	6974636e 	.word	0x6974636e
2000eadc:	203a6e6f 	.word	0x203a6e6f
2000eae0:	00000000 	.word	0x00000000
2000eae4:	65737361 	.word	0x65737361
2000eae8:	6f697472 	.word	0x6f697472
2000eaec:	2522206e 	.word	0x2522206e
2000eaf0:	66202273 	.word	0x66202273
2000eaf4:	656c6961 	.word	0x656c6961
2000eaf8:	66203a64 	.word	0x66203a64
2000eafc:	20656c69 	.word	0x20656c69
2000eb00:	22732522 	.word	0x22732522
2000eb04:	696c202c 	.word	0x696c202c
2000eb08:	2520656e 	.word	0x2520656e
2000eb0c:	25732564 	.word	0x25732564
2000eb10:	00000a73 	.word	0x00000a73
2000eb14:	61686e55 	.word	0x61686e55
2000eb18:	656c646e 	.word	0x656c646e
2000eb1c:	52492064 	.word	0x52492064
2000eb20:	78302051 	.word	0x78302051
2000eb24:	000a7825 	.word	0x000a7825
2000eb28:	25207065 	.word	0x25207065
2000eb2c:	20583230 	.word	0x20583230
2000eb30:	20736177 	.word	0x20736177
2000eb34:	65726c61 	.word	0x65726c61
2000eb38:	20796461 	.word	0x20796461
2000eb3c:	69617661 	.word	0x69617661
2000eb40:	6c62616c 	.word	0x6c62616c
2000eb44:	00000065 	.word	0x00000065
2000eb48:	276e6143 	.word	0x276e6143
2000eb4c:	6f632074 	.word	0x6f632074
2000eb50:	6e69746e 	.word	0x6e69746e
2000eb54:	78206575 	.word	0x78206575
2000eb58:	20726566 	.word	0x20726566
2000eb5c:	69206e6f 	.word	0x69206e6f
2000eb60:	7463616e 	.word	0x7463616e
2000eb64:	20657669 	.word	0x20657669
2000eb68:	25207065 	.word	0x25207065
2000eb6c:	00583230 	.word	0x00583230
2000eb70:	0044454c 	.word	0x0044454c
2000eb74:	44206f4e 	.word	0x44206f4e
2000eb78:	6320414d 	.word	0x6320414d
2000eb7c:	6e6e6168 	.word	0x6e6e6168
2000eb80:	20736c65 	.word	0x20736c65
2000eb84:	20657261 	.word	0x20657261
2000eb88:	69617661 	.word	0x69617661
2000eb8c:	6c62616c 	.word	0x6c62616c
2000eb90:	00000065 	.word	0x00000065
2000eb94:	00464e49 	.word	0x00464e49
2000eb98:	00666e69 	.word	0x00666e69
2000eb9c:	004e414e 	.word	0x004e414e
2000eba0:	006e616e 	.word	0x006e616e
2000eba4:	33323130 	.word	0x33323130
2000eba8:	37363534 	.word	0x37363534
2000ebac:	62613938 	.word	0x62613938
2000ebb0:	66656463 	.word	0x66656463
2000ebb4:	00000000 	.word	0x00000000
2000ebb8:	33323130 	.word	0x33323130
2000ebbc:	37363534 	.word	0x37363534
2000ebc0:	42413938 	.word	0x42413938
2000ebc4:	46454443 	.word	0x46454443
2000ebc8:	00000000 	.word	0x00000000
2000ebcc:	6c756e28 	.word	0x6c756e28
2000ebd0:	0000296c 	.word	0x0000296c
2000ebd4:	00000030 	.word	0x00000030
2000ebd8:	435f434c 	.word	0x435f434c
2000ebdc:	414c4c4f 	.word	0x414c4c4f
2000ebe0:	00004554 	.word	0x00004554
2000ebe4:	435f434c 	.word	0x435f434c
2000ebe8:	45505954 	.word	0x45505954
2000ebec:	00000000 	.word	0x00000000
2000ebf0:	4d5f434c 	.word	0x4d5f434c
2000ebf4:	54454e4f 	.word	0x54454e4f
2000ebf8:	00595241 	.word	0x00595241
2000ebfc:	4e5f434c 	.word	0x4e5f434c
2000ec00:	52454d55 	.word	0x52454d55
2000ec04:	00004349 	.word	0x00004349
2000ec08:	545f434c 	.word	0x545f434c
2000ec0c:	00454d49 	.word	0x00454d49
2000ec10:	4d5f434c 	.word	0x4d5f434c
2000ec14:	41535345 	.word	0x41535345
2000ec18:	00534547 	.word	0x00534547
2000ec1c:	69666e49 	.word	0x69666e49
2000ec20:	7974696e 	.word	0x7974696e
2000ec24:	00000000 	.word	0x00000000
2000ec28:	004e614e 	.word	0x004e614e
2000ec2c:	6c6c6142 	.word	0x6c6c6142
2000ec30:	7320636f 	.word	0x7320636f
2000ec34:	65636375 	.word	0x65636375
2000ec38:	64656465 	.word	0x64656465
2000ec3c:	00000000 	.word	0x00000000
2000ec40:	7461642f 	.word	0x7461642f
2000ec44:	656a2f61 	.word	0x656a2f61
2000ec48:	6e696b6e 	.word	0x6e696b6e
2000ec4c:	6f772f73 	.word	0x6f772f73
2000ec50:	70736b72 	.word	0x70736b72
2000ec54:	2f656361 	.word	0x2f656361
2000ec58:	2d554e47 	.word	0x2d554e47
2000ec5c:	6c6f6f74 	.word	0x6c6f6f74
2000ec60:	69616863 	.word	0x69616863
2000ec64:	72612f6e 	.word	0x72612f6e
2000ec68:	34312d6d 	.word	0x34312d6d
2000ec6c:	6372732f 	.word	0x6372732f
2000ec70:	77656e2f 	.word	0x77656e2f
2000ec74:	2d62696c 	.word	0x2d62696c
2000ec78:	77677963 	.word	0x77677963
2000ec7c:	6e2f6e69 	.word	0x6e2f6e69
2000ec80:	696c7765 	.word	0x696c7765
2000ec84:	696c2f62 	.word	0x696c2f62
2000ec88:	732f6362 	.word	0x732f6362
2000ec8c:	696c6474 	.word	0x696c6474
2000ec90:	74642f62 	.word	0x74642f62
2000ec94:	632e616f 	.word	0x632e616f
2000ec98:	00000000 	.word	0x00000000
2000ec9c:	7461642f 	.word	0x7461642f
2000eca0:	656a2f61 	.word	0x656a2f61
2000eca4:	6e696b6e 	.word	0x6e696b6e
2000eca8:	6f772f73 	.word	0x6f772f73
2000ecac:	70736b72 	.word	0x70736b72
2000ecb0:	2f656361 	.word	0x2f656361
2000ecb4:	2d554e47 	.word	0x2d554e47
2000ecb8:	6c6f6f74 	.word	0x6c6f6f74
2000ecbc:	69616863 	.word	0x69616863
2000ecc0:	72612f6e 	.word	0x72612f6e
2000ecc4:	34312d6d 	.word	0x34312d6d
2000ecc8:	6372732f 	.word	0x6372732f
2000eccc:	77656e2f 	.word	0x77656e2f
2000ecd0:	2d62696c 	.word	0x2d62696c
2000ecd4:	77677963 	.word	0x77677963
2000ecd8:	6e2f6e69 	.word	0x6e2f6e69
2000ecdc:	696c7765 	.word	0x696c7765
2000ece0:	696c2f62 	.word	0x696c2f62
2000ece4:	732f6362 	.word	0x732f6362
2000ece8:	696c6474 	.word	0x696c6474
2000ecec:	706d2f62 	.word	0x706d2f62
2000ecf0:	2e636572 	.word	0x2e636572
2000ecf4:	00000063 	.word	0x00000063

2000ecf8 <csiStr>:
2000ecf8:	00005b1b                                .[..

2000ecfc <termColors>:
2000ecfc:	03020100 07060504                       ........

2000ed04 <kernel_cmdline>:
2000ed04:	736e6f63 3d656c6f 30637668 6f6f7220     console=hvc0 roo
2000ed14:	65663d74 00003030                       t=fe00..

2000ed1c <default64mbdtb>:
2000ed1c:	edfe0dd0 00060000 38000000 00050000     ...........8....
2000ed2c:	28000000 11000000 10000000 00000000     ...(............
2000ed3c:	e3000000 c8040000 00000000 00000000     ................
	...
2000ed54:	01000000 00000000 03000000 04000000     ................
2000ed64:	00000000 02000000 03000000 04000000     ................
2000ed74:	0f000000 02000000 03000000 14000000     ................
2000ed84:	1b000000 63736972 696d2d76 616d696e     ....riscv-minima
2000ed94:	6f6e2d6c 00756d6d 03000000 19000000     l-nommu.........
2000eda4:	26000000 63736972 696d2d76 616d696e     ...&riscv-minima
2000edb4:	6f6e2d6c 2c756d6d 756d6571 00000000     l-nommu,qemu....
2000edc4:	01000000 736f6863 00006e65 03000000     ....chosen......
2000edd4:	38000000 2c000000 6c726165 6e6f6379     ...8...,earlycon
2000ede4:	7261753d 35323874 6d6d2c30 302c6f69     =uart8250,mmio,0
2000edf4:	30303178 30303030 30312c30 30303030     x10000000,100000
2000ee04:	6f632030 6c6f736e 74743d65 00305379     0 console=ttyS0.
2000ee14:	02000000 01000000 6f6d656d 38407972     ........memory@8
2000ee24:	30303030 00303030 03000000 07000000     0000000.........
2000ee34:	35000000 6f6d656d 00007972 03000000     ...5memory......
2000ee44:	10000000 41000000 00000000 00000080     .......A........
2000ee54:	00000000 00c0ff03 02000000 01000000     ................
2000ee64:	73757063 00000000 03000000 04000000     cpus............
2000ee74:	00000000 01000000 03000000 04000000     ................
2000ee84:	0f000000 00000000 03000000 04000000     ................
2000ee94:	45000000 40420f00 01000000 40757063     ...E..B@....cpu@
2000eea4:	00000030 03000000 04000000 58000000     0..............X
2000eeb4:	01000000 03000000 04000000 35000000     ...............5
2000eec4:	00757063 03000000 04000000 41000000     cpu............A
2000eed4:	00000000 03000000 05000000 60000000     ...............`
2000eee4:	79616b6f 00000000 03000000 06000000     okay............
2000eef4:	1b000000 63736972 00000076 03000000     ....riscv.......
2000ef04:	08000000 67000000 32337672 00616d69     .......grv32ima.
2000ef14:	03000000 0b000000 71000000 63736972     ...........qrisc
2000ef24:	6f6e2c76 0000656e 01000000 65746e69     v,none......inte
2000ef34:	70757272 6f632d74 6f72746e 72656c6c     rrupt-controller
2000ef44:	00000000 03000000 04000000 7a000000     ...............z
2000ef54:	01000000 03000000 00000000 8b000000     ................
2000ef64:	03000000 0f000000 1b000000 63736972     ............risc
2000ef74:	70632c76 6e692d75 00006374 03000000     v,cpu-intc......
2000ef84:	04000000 58000000 02000000 02000000     .......X........
2000ef94:	02000000 01000000 2d757063 0070616d     ........cpu-map.
2000efa4:	01000000 73756c63 30726574 00000000     ....cluster0....
2000efb4:	01000000 65726f63 00000030 03000000     ....core0.......
2000efc4:	04000000 a0000000 01000000 02000000     ................
2000efd4:	02000000 02000000 02000000 01000000     ................
2000efe4:	00636f73 03000000 04000000 00000000     soc.............
2000eff4:	02000000 03000000 04000000 0f000000     ................
2000f004:	02000000 03000000 0b000000 1b000000     ................
2000f014:	706d6973 622d656c 00007375 03000000     simple-bus......
2000f024:	00000000 a4000000 01000000 74726175     ............uart
2000f034:	30303140 30303030 00000030 03000000     @10000000.......
2000f044:	04000000 ab000000 00000001 03000000     ................
2000f054:	10000000 41000000 00000000 00000010     .......A........
2000f064:	00000000 00010000 03000000 08000000     ................
2000f074:	1b000000 3631736e 00303538 02000000     ....ns16850.....
2000f084:	01000000 65776f70 66666f72 00000000     ....poweroff....
2000f094:	03000000 04000000 bb000000 55550000     ..............UU
2000f0a4:	03000000 04000000 c1000000 00000000     ................
2000f0b4:	03000000 04000000 c8000000 04000000     ................
2000f0c4:	03000000 10000000 1b000000 63737973     ............sysc
2000f0d4:	702d6e6f 7265776f 0066666f 02000000     on-poweroff.....
2000f0e4:	01000000 6f626572 0000746f 03000000     ....reboot......
2000f0f4:	04000000 bb000000 77770000 03000000     ..........ww....
2000f104:	04000000 c1000000 00000000 03000000     ................
2000f114:	04000000 c8000000 04000000 03000000     ................
2000f124:	0e000000 1b000000 63737973 722d6e6f     ........syscon-r
2000f134:	6f6f6265 00000074 02000000 01000000     eboot...........
2000f144:	63737973 31406e6f 30303131 00303030     syscon@11100000.
2000f154:	03000000 04000000 58000000 04000000     ...........X....
2000f164:	03000000 10000000 41000000 00000000     ...........A....
2000f174:	00001011 00000000 00100000 03000000     ................
2000f184:	07000000 1b000000 63737973 00006e6f     ........syscon..
2000f194:	02000000 01000000 6e696c63 31314074     ........clint@11
2000f1a4:	30303030 00003030 03000000 10000000     000000..........
2000f1b4:	cf000000 02000000 03000000 02000000     ................
2000f1c4:	07000000 03000000 10000000 41000000     ...............A
2000f1d4:	00000000 00000011 00000000 00000100     ................
2000f1e4:	03000000 1b000000 1b000000 69666973     ............sifi
2000f1f4:	632c6576 746e696c 69720030 2c766373     ve,clint0.riscv,
2000f204:	6e696c63 00003074 02000000 02000000     clint0..........
2000f214:	02000000 09000000 64646123 73736572     ........#address
2000f224:	6c65632d 2300736c 657a6973 6c65632d     -cells.#size-cel
2000f234:	6300736c 61706d6f 6c626974 6f6d0065     ls.compatible.mo
2000f244:	006c6564 746f6f62 73677261 76656400     del.bootargs.dev
2000f254:	5f656369 65707974 67657200 6d697400     ice_type.reg.tim
2000f264:	73616265 72662d65 65757165 0079636e     ebase-frequency.
2000f274:	6e616870 00656c64 74617473 72007375     phandle.status.r
2000f284:	76637369 6173692c 756d6d00 7079742d     iscv,isa.mmu-typ
2000f294:	69230065 7265746e 74707572 6c65632d     e.#interrupt-cel
2000f2a4:	6900736c 7265746e 74707572 6e6f632d     ls.interrupt-con
2000f2b4:	6c6f7274 0072656c 00757063 676e6172     troller.cpu.rang
2000f2c4:	63007365 6b636f6c 6572662d 6e657571     es.clock-frequen
2000f2d4:	76007963 65756c61 66666f00 00746573     cy.value.offset.
2000f2e4:	6d676572 69007061 7265746e 74707572     regmap.interrupt
2000f2f4:	78652d73 646e6574 00006465 00000000     s-extended......
	...

2000f31c <__compound_literal.0>:
2000f31c:	00000409                                ....

2000f320 <desc_fs_configuration>:
2000f320:	004b0209 80000102 000b0832 00020202     ..K.....2.......
2000f330:	00040900 02020100 24050400 05012000     ...........$. ..
2000f340:	01000124 06022404 00062405 81050701     $....$...$......
2000f350:	10000803 00010409 00000a02 01050700     ................
2000f360:	00004002 02820507 00000040              .@......@...

2000f36c <desc_device>:
2000f36c:	02000112 400102ef 400104c4 02010100     .......@...@....
2000f37c:	00000103                                ....

2000f380 <__bi_84>:
2000f380:	50520006 4275f0d3 2000eaa8              ..RP..uB... 

2000f38c <__bi_78>:
2000f38c:	50520006 7f8882e1 2000eab0              ..RP....... 

2000f398 <__bi_54>:
2000f398:	50520006 5360b3ab 2000eac4              ..RP..`S... 

2000f3a4 <__bi_48>:
2000f3a4:	50520006 b63cffbb 2000eacc              ..RP..<.... 

2000f3b0 <__bi_42>:
2000f3b0:	50520006 02031c86 2000ea28              ..RP....(.. 

2000f3bc <__bi_34>:
2000f3bc:	50520006 9da22254 2000e87c              ..RPT"..|.. 

2000f3c8 <__bi_26>:
2000f3c8:	50520005 68f465de 100106b0              ..RP.e.h....

2000f3d4 <crlf_str.0>:
2000f3d4:	00000a0d                                ....

2000f3d8 <_usbd_driver>:
2000f3d8:	00000000 20005bdd 20005c55 20005c85     .....[. U\. .\. 
2000f3e8:	20005cd1 20005d91 20005e51 00000000     .\. .]. Q^. ....

2000f3f8 <__bi_153.0>:
2000f3f8:	50520009 02000000 2000eb70              ..RP....p.. 

2000f404 <__bi_163.1>:
2000f404:	50520008 00021012                       ..RP....

2000f40c <cvt.0>:
2000f40c:	41459a80 808f418e 49454545 8f8e4949     ..EA.A..EEEIII..
2000f41c:	4f929290 55554f99 9b9a9959 9f9e9d9c     ...O.OUUY.......
2000f42c:	554f4941 a7a6a5a5 abaaa9a8 afaeadac     AIOU............
2000f43c:	b3b2b1b0 b7b6b5b4 bbbab9b8 bfbebdbc     ................
2000f44c:	c3c2c1c0 c7c6c5c4 cbcac9c8 cfcecdcc     ................
2000f45c:	d3d2d1d0 d7d6d5d4 dbdad9d8 dfdedddc     ................
2000f46c:	e3e2e1e0 e7e6e5e4 ebeae9e8 efeeedec     ................
2000f47c:	f3f2f1f0 f7f6f5f4 fbfaf9f8 fffefdfc     ................

2000f48c <rgb_program>:
2000f48c:	2000f494 0000ff09                       ... ....

2000f494 <rgb_program_instructions>:
2000f494:	a04780a0 a022e000 80a023c1 62036403     ..G..."..#...d.b
2000f4a4:	00000045                                E...

2000f4a8 <vsync_program>:
2000f4a8:	2000f4b0 0000ff0e                       ... ....

2000f4b0 <vsync_program_instructions>:
2000f4b0:	a02780a0 c00120c0 e0490042 008620c0     ..'.. ..B.I.. ..
2000f4c0:	20c0e000 e05f20c0 008c38c0              ... . _..8..

2000f4cc <hsync_program>:
2000f4cc:	2000f4d4 0000ff09                       ... ....

2000f4d4 <hsync_program_instructions>:
2000f4d4:	a02780a0 ff000042 ff00ff00 ec01ff01     ..'.B...........
2000f4e4:	0000c100                                ....

2000f4e8 <PS2Keymap_US>:
	...
2000f4f4:	00600900 00000000 00317100 737a0000     ..`......q1...zs
2000f504:	00327761 64786300 00333465 66762000     aw2..cxde43.. vf
2000f514:	00357274 68626e00 00367967 6a6d0000     tr5..nbhgy6...mj
2000f524:	00383775 696b2c00 0039306f 6c2f2e00     u78..,kio09.../l
2000f534:	002d703b 00270000 00003d5b 5d0d0000     ;p-...'.[=.....]
2000f544:	00005c00 00000000 007f0000 34003100     .\...........1.4
2000f554:	00000037 35322e30 001b3836 2d332b00     7...0.2568...+3-
2000f564:	0000392a 00000000 00000000 00000000     *9..............
	...
2000f57c:	007e0c00 00000000 00215100 535a0000     ..~......Q!...ZS
2000f58c:	00405741 44584300 00232445 46562000     AW@..CXDE$#.. VF
2000f59c:	00255254 48424e00 005e5947 4a4d0000     TR%..NBHGY^...MJ
2000f5ac:	002a2655 494b3c00 0028294f 4c3f3e00     U&*..<KIO)(..>?L
2000f5bc:	005f503a 00220000 00002b7b 7d0d0000     :P_...".{+.....}
2000f5cc:	00007c00 00000000 007f0000 34003100     .|...........1.4
2000f5dc:	00000037 35322e30 001b3836 2d332b00     7...0.2568...+3-
2000f5ec:	0000392a 00000000 00000000 00000000     *9..............
	...

2000f684 <_ctype_>:
2000f684:	20202000 20202020 28282020 20282828     .         ((((( 
2000f694:	20202020 20202020 20202020 20202020                     
2000f6a4:	10108820 10101010 10101010 10101010      ...............
2000f6b4:	04040410 04040404 10040404 10101010     ................
2000f6c4:	41411010 41414141 01010101 01010101     ..AAAAAA........
2000f6d4:	01010101 01010101 01010101 10101010     ................
2000f6e4:	42421010 42424242 02020202 02020202     ..BBBBBB........
2000f6f4:	02020202 02020202 02020202 10101010     ................
2000f704:	00000020 00000000 00000000 00000000      ...............
	...

2000f788 <zeroes.0>:
2000f788:	30303030 30303030 30303030 30303030     0000000000000000

2000f798 <blanks.1>:
2000f798:	20202020 20202020 20202020 20202020                     

2000f7a8 <p05.0>:
2000f7a8:	00000005 00000019 0000007d 00000000     ........}.......

2000f7b8 <__mprec_bigtens>:
2000f7b8:	37e08000 4341c379 b5056e17 4693b8b5     ...7y.AC.n.....F
2000f7c8:	e93ff9f5 4d384f03 f9301d32 5a827748     ..?..O8M2.0.Hw.Z
2000f7d8:	7f73bf3c 75154fdd                       <.s..O.u

2000f7e0 <__mprec_tens>:
2000f7e0:	00000000 3ff00000 00000000 40240000     .......?......$@
2000f7f0:	00000000 40590000 00000000 408f4000     ......Y@.....@.@
2000f800:	00000000 40c38800 00000000 40f86a00     .......@.....j.@
2000f810:	00000000 412e8480 00000000 416312d0     .......A......cA
2000f820:	00000000 4197d784 00000000 41cdcd65     .......A....e..A
2000f830:	20000000 4202a05f e8000000 42374876     ... _..B....vH7B
2000f840:	a2000000 426d1a94 e5400000 42a2309c     ......mB..@..0.B
2000f850:	1e900000 42d6bcc4 26340000 430c6bf5     .......B..4&.k.C
2000f860:	37e08000 4341c379 85d8a000 43763457     ...7y.AC....W4vC
2000f870:	674ec800 43abc16d 60913d00 43e158e4     ..Ngm..C.=.`.X.C
2000f880:	78b58c40 4415af1d d6e2ef50 444b1ae4     @..x...DP.....KD
2000f890:	064dd592 4480f0cf c7e14af6 44b52d02     ..M....D.J...-.D
2000f8a0:	79d99db4 44ea7843                       ...yCx.D

2000f8a8 <blk_size>:
2000f8a8:	04000000                                ....

2000f8ac <ram_amt>:
2000f8ac:	00800000                                ....

2000f8b0 <do_sleep>:
2000f8b0:	00000001                                ....

2000f8b4 <time_divisor>:
2000f8b4:	00000001                                ....

2000f8b8 <string_desc_arr>:
2000f8b8:	2000f31c 2000ea1c 2000ea28 2005ae68     ... ... (.. h.. 

2000f8c8 <striped_spin_lock_num>:
2000f8c8:	00000010                                ....

2000f8cc <irq_handler_chain_slots>:
2000f8cc:	00000000 	.word	0x00000000
2000f8d0:	00010000 	.word	0x00010000
	...
2000f8dc:	00020000 	.word	0x00020000
	...
2000f8e8:	00030000 	.word	0x00030000
	...
2000f8f4:	00ff0000 	.word	0x00ff0000
2000f8f8:	00000000 	.word	0x00000000

2000f8fc <irq_handler_chain_first_slot>:
2000f8fc:	b501      	push	{r0, lr}
2000f8fe:	6848      	ldr	r0, [r1, #4]
2000f900:	3101      	adds	r1, #1
2000f902:	468e      	mov	lr, r1
2000f904:	4700      	bx	r0

2000f906 <irq_handler_chain_remove_tail>:
2000f906:	4670      	mov	r0, lr
2000f908:	3809      	subs	r0, #9
2000f90a:	4901      	ldr	r1, [pc, #4]	@ (2000f910 <irq_handler_chain_remove_tail+0xa>)
2000f90c:	4788      	blx	r1
2000f90e:	bd01      	pop	{r0, pc}
2000f910:	20002d5d 	.word	0x20002d5d

2000f914 <default_alarm_pool>:
	...
2000f928:	20010650                                P.. 

2000f92c <_usbd_qdef>:
2000f92c:	200112c0 000c0010 00000000 00000000     ... ............
	...

2000f948 <_usbd_rhport>:
2000f948:	                                         .

2000f949 <fg_col>:
2000f949:	                                         ...

2000f94c <rgb_sm>:
2000f94c:	00000002                                ....

2000f950 <vsync_sm>:
2000f950:	00000001                                ....

2000f954 <pio>:
2000f954:	50300000                                ..0P

2000f958 <currentBgColLine>:
2000f958:	20059cc0                                ... 

2000f95c <currentFgColLine>:
2000f95c:	20059cc0                                ... 

2000f960 <currentLine>:
2000f960:	2005a7b0                                ... 

2000f964 <transmitBuf>:
2000f964:	2005af1c                                ... 

2000f968 <renderBuf>:
2000f968:	2005ae7c                                |.. 

2000f96c <font>:
2000f96c:	00000000 4f5b3e00 6b3e3e5b 1c3e6b4f     .....>[O[>>kOk>.
2000f97c:	1c3e7c3e 3c7e3c18 7d571c18 5e1c1c57     >|>..<~<..W}W..^
2000f98c:	001c5e7f 00183c18 e7c3e7ff 241800ff     .^...<.........$
2000f99c:	e7ff0018 30ffe7db 0e063a48 29792926     .......0H:..&)y)
2000f9ac:	057f4026 7f400705 5a3f2505 5a3ce73c     &@....@..%?Z<.<Z
2000f9bc:	1c1c3e7f 1c1c0808 22147f3e 5f14227f     .>......>.."."._
2000f9cc:	5f5f005f 017f0906 8966007f 60606a95     _.__......f..j``
2000f9dc:	94606060 94a2ffa2 047e0408 7e201008     ```.......~... ~
2000f9ec:	08081020 08081c2a 08082a1c 1010101e      ...*....*......
2000f9fc:	0c1e0c10 38300c1e 0630383e 060e3e0e     ......08>80..>..
2000fa0c:	00000000 5f000000 07000000 14000700     ......._........
2000fa1c:	147f147f 2a7f2a24 08132312 49366264     ....$*.*.#..db6I
2000fa2c:	00502056 00030708 41221c00 22410000     V P......."A..A"
2000fa3c:	1c2a001c 082a1c7f 08083e08 30708000     ..*...*..>....p0
2000fa4c:	08080800 00000808 20006060 02040810     ........``. ....
2000fa5c:	4549513e 7f42003e 49720040 21464949     >QIE>.B.@.rIIIF!
2000fa6c:	334d4941 7f121418 45452710 4a3c3945     AIM3.....'EEE9<J
2000fa7c:	41314949 07091121 49494936 49494636     II1A!...6III6FII
2000fa8c:	00001e29 00000014 00003440 22140800     ).......@4....."
2000fa9c:	14141441 41001414 02081422 06095901     A......A"....Y..
2000faac:	595d413e 11127c4e 497f7c12 3e364949     >A]YN|...|.III6>
2000fabc:	22414141 4141417f 49497f3e 097f4149     AAA".AAA>.IIIA..
2000facc:	3e010909 73514141 0808087f 7f41007f     ...>AAQs......A.
2000fadc:	40200041 7f013f41 41221408 4040407f     A. @A?...."A.@@@
2000faec:	1c027f40 047f7f02 3e7f1008 3e414141     @..........>AAA>
2000fafc:	0909097f 51413e06 097f5e21 26462919     .....>AQ!^...)F&
2000fb0c:	32494949 017f0103 40403f03 201f3f40     III2.....?@@@?. 
2000fb1c:	3f1f2040 3f403840 14081463 78040363     @ .?@8@?c...c..x
2000fb2c:	59610304 00434d49 4141417f 10080402     ..aYIMC..AAA....
2000fb3c:	41410020 02047f41 40040201 40404040      .AAA......@@@@@
2000fb4c:	08070300 54542000 287f4078 38384444     ..... TTx@.(DD88
2000fb5c:	28444444 28444438 5454387f 08001854     DDD(8DD(.8TTT...
2000fb6c:	1802097e 789ca4a4 0404087f 7d440078     ~......x....x.D}
2000fb7c:	40200040 7f003d40 00442810 407f4100     @. @@=...(D..A.@
2000fb8c:	78047c00 087c7804 38780404 38444444     .|.x.x|...x8DDD8
2000fb9c:	242418fc 24241818 087cfc18 48080404     ..$$..$$..|....H
2000fbac:	24545454 443f0404 40403c24 201c7c20     TTT$..?D$<@@ |. 
2000fbbc:	3c1c2040 3c403040 28102844 90904c44     @ .<@0@<D(.(DL..
2000fbcc:	64447c90 00444c54 00413608 00770000     .|DdTLD..6A...w.
2000fbdc:	36410000 01020008 3c020402 3c262326     ..A6.......<&#&<
2000fbec:	61a1a11e 40403a12 54387a20 21595554     ...a.:@@ z8TTUY!
2000fbfc:	41795555 78545422 54552142 54204078     UUyA"TTxB!UTx@ T
2000fc0c:	0c407955 1272521e 55555539 54543959     Uy@..Rr.9UUUY9TT
2000fc1c:	55395954 00585454 417c4500 7d450200     TY9UTTX..E|A..E}
2000fc2c:	45010042 127d407c f07d1211 f0282528     B..E|@}...}.(%(.
2000fc3c:	4555547c 54542000 0a7c547c 32497f09     |TUE. TT|T|...I2
2000fc4c:	32494949 4444443a 484a323a 413a3048     III2:DDD:2JHH0:A
2000fc5c:	3a7a2141 78204042 a0a09d00 42423d7d     A!z:B@ x....}=BB
2000fc6c:	403d3d42 3c3d4040 2424ff24 43497e48     B==@@@=<$.$$H~IC
2000fc7c:	fc2f2b66 09ff2b2f c020f629 03097e88     f+/./+..). ..~..
2000fc8c:	79545420 44000041 4830417d 38324a48      TTyA..D}A0HHJ28
2000fc9c:	7a224040 0a0a7a00 190d7d72 29267d31     @@"z.z..r}..1}&)
2000fcac:	26282f29 26292929 404d4830 08083820     )/(&)))&0HM@ 8..
2000fcbc:	08080808 2f380808 baacc810 3428102f     ......8/..../.(4
2000fccc:	7b0000fa 14080000 2222142a 08142a14     ...{....*."".*..
2000fcdc:	00550055 aa55aa55 55ffaa55 00ff55ff     U.U.U.U.U..U.U..
2000fcec:	00ff0000 ff101010 14141400 101000ff     ................
2000fcfc:	10ff00ff f010f010 fc141414 f7141400     ................
2000fd0c:	0000ff00 14ff00ff fc04f414 10171414     ................
2000fd1c:	1f10101f 14141f10 10001f14 00f01010     ................
2000fd2c:	1f000000 10101010 1010101f 0010f010     ................
2000fd3c:	10ff0000 10101010 10101010 000010ff     ................
2000fd4c:	0014ff00 ff00ff00 101f0000 fc000017     ................
2000fd5c:	1414f404 14171017 f404f414 00ff0000     ................
2000fd6c:	141414f7 14141414 14f700f7 14171414     ................
2000fd7c:	101f1010 1414141f 101014f4 00f010f0     ................
2000fd8c:	1f101f00 1f000000 00000014 000014fc     ................
2000fd9c:	10f010f0 ff10ff10 ff141414 10101014     ................
2000fdac:	0000001f ff10f000 ffffffff f0f0f0f0     ................
2000fdbc:	fffffff0 00000000 0fffff00 0f0f0f0f     ................
2000fdcc:	38444438 4a4afc44 027e344a 02060602     8DD8D.JJJ4~.....
2000fddc:	027e027e 41495563 44443863 7e40043c     ~.~.cUIAc8DD<.@~
2000fdec:	06201e20 02027e02 a5e7a599 492a1c99      . ..~........*I
2000fdfc:	724c1c2a 304c7201 304d4d4a 48784830     *.Lr.rL0JMM00HxH
2000fe0c:	5a62bc30 493e3d46 7e004949 7e010101     0.bZF=>III.~...~
2000fe1c:	2a2a2a2a 5f44442a 51404444 4040444a     *****DD_DD@QJD@@
2000fe2c:	40514a44 01ff0000 ff80e003 08080000     DJQ@............
2000fe3c:	36086b6b 36243612 0f090f06 18000006     kk.6.6$6........
2000fe4c:	00000018 30001010 0101ff40 01011f00     .......0@.......
2000fe5c:	1d19001e 3c001217 003c3c3c 00000000     .......<<<<.....

2000fe6c <keymap>:
2000fe6c:	2000f4e8                                ... 

2000fe70 <__malloc_sbrk_base>:
2000fe70:	ffffffff                                ....

2000fe74 <__malloc_trim_threshold>:
2000fe74:	00020000                                ....

2000fe78 <__malloc_av_>:
	...
2000fe80:	2000fe78 2000fe78 2000fe80 2000fe80     x.. x.. ... ... 
2000fe90:	2000fe88 2000fe88 2000fe90 2000fe90     ... ... ... ... 
2000fea0:	2000fe98 2000fe98 2000fea0 2000fea0     ... ... ... ... 
2000feb0:	2000fea8 2000fea8 2000feb0 2000feb0     ... ... ... ... 
2000fec0:	2000feb8 2000feb8 2000fec0 2000fec0     ... ... ... ... 
2000fed0:	2000fec8 2000fec8 2000fed0 2000fed0     ... ... ... ... 
2000fee0:	2000fed8 2000fed8 2000fee0 2000fee0     ... ... ... ... 
2000fef0:	2000fee8 2000fee8 2000fef0 2000fef0     ... ... ... ... 
2000ff00:	2000fef8 2000fef8 2000ff00 2000ff00     ... ... ... ... 
2000ff10:	2000ff08 2000ff08 2000ff10 2000ff10     ... ... ... ... 
2000ff20:	2000ff18 2000ff18 2000ff20 2000ff20     ... ...  ..  .. 
2000ff30:	2000ff28 2000ff28 2000ff30 2000ff30     (.. (.. 0.. 0.. 
2000ff40:	2000ff38 2000ff38 2000ff40 2000ff40     8.. 8.. @.. @.. 
2000ff50:	2000ff48 2000ff48 2000ff50 2000ff50     H.. H.. P.. P.. 
2000ff60:	2000ff58 2000ff58 2000ff60 2000ff60     X.. X.. `.. `.. 
2000ff70:	2000ff68 2000ff68 2000ff70 2000ff70     h.. h.. p.. p.. 
2000ff80:	2000ff78 2000ff78 2000ff80 2000ff80     x.. x.. ... ... 
2000ff90:	2000ff88 2000ff88 2000ff90 2000ff90     ... ... ... ... 
2000ffa0:	2000ff98 2000ff98 2000ffa0 2000ffa0     ... ... ... ... 
2000ffb0:	2000ffa8 2000ffa8 2000ffb0 2000ffb0     ... ... ... ... 
2000ffc0:	2000ffb8 2000ffb8 2000ffc0 2000ffc0     ... ... ... ... 
2000ffd0:	2000ffc8 2000ffc8 2000ffd0 2000ffd0     ... ... ... ... 
2000ffe0:	2000ffd8 2000ffd8 2000ffe0 2000ffe0     ... ... ... ... 
2000fff0:	2000ffe8 2000ffe8 2000fff0 2000fff0     ... ... ... ... 
20010000:	2000fff8 2000fff8 20010000 20010000     ... ... ... ... 
20010010:	20010008 20010008 20010010 20010010     ... ... ... ... 
20010020:	20010018 20010018 20010020 20010020     ... ...  ..  .. 
20010030:	20010028 20010028 20010030 20010030     (.. (.. 0.. 0.. 
20010040:	20010038 20010038 20010040 20010040     8.. 8.. @.. @.. 
20010050:	20010048 20010048 20010050 20010050     H.. H.. P.. P.. 
20010060:	20010058 20010058 20010060 20010060     X.. X.. `.. `.. 
20010070:	20010068 20010068 20010070 20010070     h.. h.. p.. p.. 
20010080:	20010078 20010078 20010080 20010080     x.. x.. ... ... 
20010090:	20010088 20010088 20010090 20010090     ... ... ... ... 
200100a0:	20010098 20010098 200100a0 200100a0     ... ... ... ... 
200100b0:	200100a8 200100a8 200100b0 200100b0     ... ... ... ... 
200100c0:	200100b8 200100b8 200100c0 200100c0     ... ... ... ... 
200100d0:	200100c8 200100c8 200100d0 200100d0     ... ... ... ... 
200100e0:	200100d8 200100d8 200100e0 200100e0     ... ... ... ... 
200100f0:	200100e8 200100e8 200100f0 200100f0     ... ... ... ... 
20010100:	200100f8 200100f8 20010100 20010100     ... ... ... ... 
20010110:	20010108 20010108 20010110 20010110     ... ... ... ... 
20010120:	20010118 20010118 20010120 20010120     ... ...  ..  .. 
20010130:	20010128 20010128 20010130 20010130     (.. (.. 0.. 0.. 
20010140:	20010138 20010138 20010140 20010140     8.. 8.. @.. @.. 
20010150:	20010148 20010148 20010150 20010150     H.. H.. P.. P.. 
20010160:	20010158 20010158 20010160 20010160     X.. X.. `.. `.. 
20010170:	20010168 20010168 20010170 20010170     h.. h.. p.. p.. 
20010180:	20010178 20010178 20010180 20010180     x.. x.. ... ... 
20010190:	20010188 20010188 20010190 20010190     ... ... ... ... 
200101a0:	20010198 20010198 200101a0 200101a0     ... ... ... ... 
200101b0:	200101a8 200101a8 200101b0 200101b0     ... ... ... ... 
200101c0:	200101b8 200101b8 200101c0 200101c0     ... ... ... ... 
200101d0:	200101c8 200101c8 200101d0 200101d0     ... ... ... ... 
200101e0:	200101d8 200101d8 200101e0 200101e0     ... ... ... ... 
200101f0:	200101e8 200101e8 200101f0 200101f0     ... ... ... ... 
20010200:	200101f8 200101f8 20010200 20010200     ... ... ... ... 
20010210:	20010208 20010208 20010210 20010210     ... ... ... ... 
20010220:	20010218 20010218 20010220 20010220     ... ...  ..  .. 
20010230:	20010228 20010228 20010230 20010230     (.. (.. 0.. 0.. 
20010240:	20010238 20010238 20010240 20010240     8.. 8.. @.. @.. 
20010250:	20010248 20010248 20010250 20010250     H.. H.. P.. P.. 
20010260:	20010258 20010258 20010260 20010260     X.. X.. `.. `.. 
20010270:	20010268 20010268 20010270 20010270     h.. h.. p.. p.. 

20010280 <_impure_ptr>:
20010280:	20010288 00000000                       ... ....

20010288 <_impure_data>:
20010288:	00000000 2001081c 20010884 200108ec     ....... ... ... 
	...
20010320:	00000001 00000000 abcd330e e66d1234     .........3..4.m.
20010330:	0005deec 0000000b 00000000 00000000     ................
	...

200103c8 <__global_locale>:
200103c8:	00000043 00000000 00000000 00000000     C...............
	...
200103e8:	00000043 00000000 00000000 00000000     C...............
	...
20010408:	00000043 00000000 00000000 00000000     C...............
	...
20010428:	00000043 00000000 00000000 00000000     C...............
	...
20010448:	00000043 00000000 00000000 00000000     C...............
	...
20010468:	00000043 00000000 00000000 00000000     C...............
	...
20010488:	00000043 00000000 00000000 00000000     C...............
	...
200104a8:	2000d741 2000cf65 00000000 2000f684     A.. e.. ....... 
200104b8:	2000e8fc 2000e948 2000e948 2000e948     ... H.. H.. H.. 
200104c8:	2000e948 2000e948 2000e948 2000e948     H.. H.. H.. H.. 
200104d8:	2000e948 2000e948 ffffffff ffffffff     H.. H.. ........
200104e8:	ffffffff 0000ffff 53410001 00494943     ..........ASCII.
	...
20010510:	53410000 00494943 00000000 00000000     ..ASCII.........
	...

20010534 <malloc_mutex>:
	...

2001053c <print_mutex>:
	...

20010544 <__pre_init_runtime_init_bootrom_reset>:
20010544:	20003f65                                e?. 

20010548 <__pre_init_runtime_init_early_resets>:
20010548:	20003ed9                                .>. 

2001054c <__pre_init_runtime_init_usb_power_down>:
2001054c:	20003f0d                                .?. 

20010550 <__pre_init_runtime_init_clocks>:
20010550:	20003fb1                                .?. 

20010554 <__pre_init_runtime_init_post_clock_resets>:
20010554:	20003f45                                E?. 

20010558 <__pre_init_runtime_init_boot_locks_reset>:
20010558:	20003e3d                                =>. 

2001055c <__pre_init_runtime_init_spin_locks_reset>:
2001055c:	20003f8d                                .?. 

20010560 <__pre_init_runtime_init_bootrom_locking_enable>:
20010560:	20003e29                                )>. 

20010564 <__pre_init_runtime_init_mutex>:
20010564:	20002e25                                %.. 

20010568 <__pre_init_runtime_init_install_ram_vector_table>:
20010568:	20003f91                                .?. 

2001056c <__pre_init_runtime_init_default_alarm_pool>:
2001056c:	200031d9                                .1. 

20010570 <__pre_init_first_per_core_initializer>:
20010570:	20003e89                                .>. 

20010574 <__pre_init_runtime_init_per_core_bootrom_reset>:
20010574:	20003f79                                y?. 

20010578 <__pre_init_runtime_init_per_core_enable_coprocessors>:
20010578:	20003f29                                )?. 

2001057c <__pre_init_spinlock_set_extexclall>:
2001057c:	2000286d                                m(. 

20010580 <__pre_init_runtime_init_per_core_irq_priorities>:
20010580:	20002895                                .(. 

20010584 <__frame_dummy_init_array_entry>:
20010584:	2000013d 20004829                       =.. )H. 
